

Microchip MPLAB XC8 Assembler V2.31 build 20201012212115 
                                                                                               Sat May 29 17:36:54 2021

Microchip MPLAB XC8 C Compiler v2.31 (Free license) build 20201012212115 Og1 
     1                           	processor	16F887
     2                           	pagewidth 120
     3                           	opt	flic
     4                           	psect	cinit,global,class=CODE,merge=1,delta=2
     5                           	psect	bssCOMMON,global,class=COMMON,space=1,delta=1,noexec
     6                           	psect	bssBANK0,global,class=BANK0,space=1,delta=1,noexec
     7                           	psect	cstackCOMMON,global,class=COMMON,space=1,delta=1,noexec
     8                           	psect	cstackBANK0,global,class=BANK0,space=1,delta=1,noexec
     9                           	psect	maintext,global,class=CODE,split=1,delta=2
    10                           	psect	text1,local,class=CODE,merge=1,delta=2
    11                           	psect	text2,local,class=CODE,merge=1,delta=2
    12                           	psect	text3,local,class=CODE,merge=1,delta=2,group=1
    13                           	psect	text4,local,class=CODE,merge=1,delta=2,group=1
    14                           	psect	text5,local,class=CODE,merge=1,delta=2,group=1
    15                           	psect	text6,local,class=CODE,merge=1,delta=2,group=1
    16                           	psect	text7,local,class=CODE,merge=1,delta=2,group=1
    17                           	psect	text8,local,class=CODE,merge=1,delta=2,group=1
    18                           	psect	text9,local,class=CODE,merge=1,delta=2
    19                           	psect	intentry,global,class=CODE,delta=2
    20                           	psect	config,global,abs,ovrld,class=CONFIG,space=4,delta=2,noexec
    21                           	dabs	1,0x7E,2
    22  0000                     
    23                           ; Version 2.20
    24                           ; Generated 12/02/2020 GMT
    25                           ; 
    26                           ; Copyright © 2020, Microchip Technology Inc. and its subsidiaries ("Microchip")
    27                           ; All rights reserved.
    28                           ; 
    29                           ; This software is developed by Microchip Technology Inc. and its subsidiaries ("Microch
      +                          ip").
    30                           ; 
    31                           ; Redistribution and use in source and binary forms, with or without modification, are
    32                           ; permitted provided that the following conditions are met:
    33                           ; 
    34                           ;     1. Redistributions of source code must retain the above copyright notice, this lis
      +                          t of
    35                           ;        conditions and the following disclaimer.
    36                           ; 
    37                           ;     2. Redistributions in binary form must reproduce the above copyright notice, this 
      +                          list
    38                           ;        of conditions and the following disclaimer in the documentation and/or other
    39                           ;        materials provided with the distribution.
    40                           ; 
    41                           ;     3. Microchip's name may not be used to endorse or promote products derived from th
      +                          is
    42                           ;        software without specific prior written permission.
    43                           ; 
    44                           ; THIS SOFTWARE IS PROVIDED BY MICROCHIP "AS IS" AND ANY EXPRESS OR IMPLIED WARRANTIES,
    45                           ; INCLUDING, BUT NOT LIMITED TO, THE IMPLIED WARRANTIES OF MERCHANTABILITY AND FITNESS F
      +                          OR
    46                           ; PURPOSE ARE DISCLAIMED.  IN NO EVENT SHALL MICROCHIP BE LIABLE FOR ANY DIRECT, INDIREC
      +                          T,
    47                           ; INCIDENTAL, SPECIAL, EXEMPLARY, OR CONSEQUENTIAL DAMAGES (INCLUDING BUT NOT LIMITED TO
    48                           ; PROCUREMENT OF SUBSTITUTE GOODS OR SERVICES; LOSS OF USE, DATA OR PROFITS; OR BUSINESS
    49                           ; INTERRUPTION) HOWSOEVER CAUSED AND ON ANY THEORY OF LIABILITY, WHETHER IN CONTRACT, ST
      +                          RICT
    50                           ; LIABILITY, OR TORT (INCLUDING NEGLIGENCE OR OTHERWISE) ARISING IN ANY WAY OUT OF THE U
      +                          SE OF
    51                           ; THIS SOFTWARE, EVEN IF ADVISED OF THE POSSIBILITY OF SUCH DAMAGE.
    52                           ; 
    53                           ; 
    54                           ; Code-generator required, PIC16F887 Definitions
    55                           ; 
    56                           ; SFR Addresses
    57  0000                     	;# 
    58  0001                     	;# 
    59  0002                     	;# 
    60  0003                     	;# 
    61  0004                     	;# 
    62  0005                     	;# 
    63  0006                     	;# 
    64  0007                     	;# 
    65  0008                     	;# 
    66  0009                     	;# 
    67  000A                     	;# 
    68  000B                     	;# 
    69  000C                     	;# 
    70  000D                     	;# 
    71  000E                     	;# 
    72  000E                     	;# 
    73  000F                     	;# 
    74  0010                     	;# 
    75  0011                     	;# 
    76  0012                     	;# 
    77  0013                     	;# 
    78  0014                     	;# 
    79  0015                     	;# 
    80  0015                     	;# 
    81  0016                     	;# 
    82  0017                     	;# 
    83  0018                     	;# 
    84  0019                     	;# 
    85  001A                     	;# 
    86  001B                     	;# 
    87  001B                     	;# 
    88  001C                     	;# 
    89  001D                     	;# 
    90  001E                     	;# 
    91  001F                     	;# 
    92  0081                     	;# 
    93  0085                     	;# 
    94  0086                     	;# 
    95  0087                     	;# 
    96  0088                     	;# 
    97  0089                     	;# 
    98  008C                     	;# 
    99  008D                     	;# 
   100  008E                     	;# 
   101  008F                     	;# 
   102  0090                     	;# 
   103  0091                     	;# 
   104  0092                     	;# 
   105  0093                     	;# 
   106  0093                     	;# 
   107  0093                     	;# 
   108  0094                     	;# 
   109  0095                     	;# 
   110  0096                     	;# 
   111  0097                     	;# 
   112  0098                     	;# 
   113  0099                     	;# 
   114  009A                     	;# 
   115  009B                     	;# 
   116  009C                     	;# 
   117  009D                     	;# 
   118  009E                     	;# 
   119  009F                     	;# 
   120  0105                     	;# 
   121  0107                     	;# 
   122  0108                     	;# 
   123  0109                     	;# 
   124  010C                     	;# 
   125  010C                     	;# 
   126  010D                     	;# 
   127  010E                     	;# 
   128  010F                     	;# 
   129  0185                     	;# 
   130  0187                     	;# 
   131  0188                     	;# 
   132  0189                     	;# 
   133  018C                     	;# 
   134  018D                     	;# 
   135  0000                     	;# 
   136  0001                     	;# 
   137  0002                     	;# 
   138  0003                     	;# 
   139  0004                     	;# 
   140  0005                     	;# 
   141  0006                     	;# 
   142  0007                     	;# 
   143  0008                     	;# 
   144  0009                     	;# 
   145  000A                     	;# 
   146  000B                     	;# 
   147  000C                     	;# 
   148  000D                     	;# 
   149  000E                     	;# 
   150  000E                     	;# 
   151  000F                     	;# 
   152  0010                     	;# 
   153  0011                     	;# 
   154  0012                     	;# 
   155  0013                     	;# 
   156  0014                     	;# 
   157  0015                     	;# 
   158  0015                     	;# 
   159  0016                     	;# 
   160  0017                     	;# 
   161  0018                     	;# 
   162  0019                     	;# 
   163  001A                     	;# 
   164  001B                     	;# 
   165  001B                     	;# 
   166  001C                     	;# 
   167  001D                     	;# 
   168  001E                     	;# 
   169  001F                     	;# 
   170  0081                     	;# 
   171  0085                     	;# 
   172  0086                     	;# 
   173  0087                     	;# 
   174  0088                     	;# 
   175  0089                     	;# 
   176  008C                     	;# 
   177  008D                     	;# 
   178  008E                     	;# 
   179  008F                     	;# 
   180  0090                     	;# 
   181  0091                     	;# 
   182  0092                     	;# 
   183  0093                     	;# 
   184  0093                     	;# 
   185  0093                     	;# 
   186  0094                     	;# 
   187  0095                     	;# 
   188  0096                     	;# 
   189  0097                     	;# 
   190  0098                     	;# 
   191  0099                     	;# 
   192  009A                     	;# 
   193  009B                     	;# 
   194  009C                     	;# 
   195  009D                     	;# 
   196  009E                     	;# 
   197  009F                     	;# 
   198  0105                     	;# 
   199  0107                     	;# 
   200  0108                     	;# 
   201  0109                     	;# 
   202  010C                     	;# 
   203  010C                     	;# 
   204  010D                     	;# 
   205  010E                     	;# 
   206  010F                     	;# 
   207  0185                     	;# 
   208  0187                     	;# 
   209  0188                     	;# 
   210  0189                     	;# 
   211  018C                     	;# 
   212  018D                     	;# 
   213  001B                     _CCPR2L	set	27
   214  0008                     _PORTD	set	8
   215  0015                     _CCPR1L	set	21
   216  001D                     _CCP2CON	set	29
   217  0017                     _CCP1CON	set	23
   218  001F                     _ADCON0bits	set	31
   219  0012                     _T2CON	set	18
   220  0007                     _PORTC	set	7
   221  0005                     _PORTA	set	5
   222  0001                     _TMR0	set	1
   223  0007                     _PORTCbits	set	7
   224  000B                     _INTCONbits	set	11
   225  001E                     _ADRESH	set	30
   226  000C                     _PIR1bits	set	12
   227  0092                     _PR2	set	146
   228  009F                     _ADCON1bits	set	159
   229  008C                     _PIE1bits	set	140
   230  008F                     _OSCCONbits	set	143
   231  0081                     _OPTION_REG	set	129
   232  0088                     _TRISD	set	136
   233  0087                     _TRISC	set	135
   234  0085                     _TRISA	set	133
   235  0189                     _ANSELH	set	393
   236  0188                     _ANSEL	set	392
   237                           
   238                           	psect	cinit
   239  000F                     start_initialization:	
   240                           ; #config settings
   241                           
   242  000F                     __initialization:
   243                           
   244                           ; Clear objects allocated to COMMON
   245  000F  01F8               	clrf	__pbssCOMMON& (0+127)
   246  0010  01F9               	clrf	(__pbssCOMMON+1)& (0+127)
   247  0011  01FA               	clrf	(__pbssCOMMON+2)& (0+127)
   248                           
   249                           ; Clear objects allocated to BANK0
   250  0012  1283               	bcf	3,5	;RP0=0, select bank0
   251  0013  1303               	bcf	3,6	;RP1=0, select bank0
   252  0014  01E8               	clrf	__pbssBANK0& (0+127)
   253  0015  01E9               	clrf	(__pbssBANK0+1)& (0+127)
   254  0016  01EA               	clrf	(__pbssBANK0+2)& (0+127)
   255  0017  01EB               	clrf	(__pbssBANK0+3)& (0+127)
   256  0018                     end_of_initialization:	
   257                           ;End of C runtime variable initialization code
   258                           
   259  0018                     __end_of__initialization:
   260  0018  0183               	clrf	3
   261  0019  120A  118A  2FE3   	ljmp	_main	;jump to C main() function
   262                           
   263                           	psect	bssCOMMON
   264  0078                     __pbssCOMMON:
   265  0078                     _PWM1:
   266  0078                     	ds	1
   267  0079                     _POT3:
   268  0079                     	ds	1
   269  007A                     _VAL:
   270  007A                     	ds	1
   271                           
   272                           	psect	bssBANK0
   273  0068                     __pbssBANK0:
   274  0068                     _S2:
   275  0068                     	ds	2
   276  006A                     _S1:
   277  006A                     	ds	2
   278                           
   279                           	psect	cstackCOMMON
   280  0070                     __pcstackCOMMON:
   281  0070                     ?_canales:
   282  0070                     ?_isr:	
   283                           ; 1 bytes @ 0x0
   284                           
   285  0070                     ??_isr:	
   286                           ; 1 bytes @ 0x0
   287                           
   288  0070                     ?_setup:	
   289                           ; 1 bytes @ 0x0
   290                           
   291  0070                     ?_main:	
   292                           ; 1 bytes @ 0x0
   293                           
   294                           
   295                           ; 1 bytes @ 0x0
   296  0070                     	ds	3
   297  0073                     ??_setup:
   298  0073                     ?__Umul8_16:	
   299                           ; 1 bytes @ 0x3
   300                           
   301  0073                     ?___awdiv:	
   302                           ; 2 bytes @ 0x3
   303                           
   304  0073                     ?___xxtofl:	
   305                           ; 2 bytes @ 0x3
   306                           
   307  0073                     __Umul8_16@multiplicand:	
   308                           ; 4 bytes @ 0x3
   309                           
   310  0073                     ___awdiv@divisor:	
   311                           ; 1 bytes @ 0x3
   312                           
   313  0073                     ___xxtofl@val:	
   314                           ; 2 bytes @ 0x3
   315                           
   316                           
   317                           ; 4 bytes @ 0x3
   318  0073                     	ds	2
   319  0075                     ??__Umul8_16:
   320  0075                     ___awdiv@dividend:	
   321                           ; 1 bytes @ 0x5
   322                           
   323                           
   324                           ; 2 bytes @ 0x5
   325  0075                     	ds	2
   326  0077                     ??___awdiv:
   327                           
   328                           ; 1 bytes @ 0x7
   329  0077                     	ds	1
   330  0078                     ??_main:
   331                           
   332                           	psect	cstackBANK0
   333  0020                     __pcstackBANK0:	
   334                           ; 1 bytes @ 0x8
   335                           
   336  0020                     ??___xxtofl:
   337  0020                     ___awdiv@counter:	
   338                           ; 1 bytes @ 0x0
   339                           
   340  0020                     __Umul8_16@product:	
   341                           ; 1 bytes @ 0x0
   342                           
   343                           
   344                           ; 2 bytes @ 0x0
   345  0020                     	ds	1
   346  0021                     ___awdiv@sign:
   347                           
   348                           ; 1 bytes @ 0x1
   349  0021                     	ds	1
   350  0022                     ___awdiv@quotient:
   351  0022                     __Umul8_16@word_mpld:	
   352                           ; 2 bytes @ 0x2
   353                           
   354                           
   355                           ; 2 bytes @ 0x2
   356  0022                     	ds	2
   357  0024                     __Umul8_16@multiplier:
   358  0024                     ___xxtofl@sign:	
   359                           ; 1 bytes @ 0x4
   360                           
   361                           
   362                           ; 1 bytes @ 0x4
   363  0024                     	ds	1
   364  0025                     ___xxtofl@exp:
   365                           
   366                           ; 1 bytes @ 0x5
   367  0025                     	ds	1
   368  0026                     ___xxtofl@arg:
   369                           
   370                           ; 4 bytes @ 0x6
   371  0026                     	ds	4
   372  002A                     ?___flmul:
   373  002A                     ___flmul@b:	
   374                           ; 4 bytes @ 0xA
   375                           
   376                           
   377                           ; 4 bytes @ 0xA
   378  002A                     	ds	4
   379  002E                     ___flmul@a:
   380                           
   381                           ; 4 bytes @ 0xE
   382  002E                     	ds	4
   383  0032                     ??___flmul:
   384                           
   385                           ; 1 bytes @ 0x12
   386  0032                     	ds	5
   387  0037                     ___flmul@sign:
   388                           
   389                           ; 1 bytes @ 0x17
   390  0037                     	ds	1
   391  0038                     ___flmul@grs:
   392                           
   393                           ; 4 bytes @ 0x18
   394  0038                     	ds	4
   395  003C                     ___flmul@aexp:
   396                           
   397                           ; 1 bytes @ 0x1C
   398  003C                     	ds	1
   399  003D                     ___flmul@bexp:
   400                           
   401                           ; 1 bytes @ 0x1D
   402  003D                     	ds	1
   403  003E                     ___flmul@prod:
   404                           
   405                           ; 4 bytes @ 0x1E
   406  003E                     	ds	4
   407  0042                     ___flmul@temp:
   408                           
   409                           ; 2 bytes @ 0x22
   410  0042                     	ds	2
   411  0044                     ?___fladd:
   412  0044                     ___fladd@b:	
   413                           ; 4 bytes @ 0x24
   414                           
   415                           
   416                           ; 4 bytes @ 0x24
   417  0044                     	ds	4
   418  0048                     ___fladd@a:
   419                           
   420                           ; 4 bytes @ 0x28
   421  0048                     	ds	4
   422  004C                     ??___fladd:
   423                           
   424                           ; 1 bytes @ 0x2C
   425  004C                     	ds	8
   426  0054                     ___fladd@signs:
   427                           
   428                           ; 1 bytes @ 0x34
   429  0054                     	ds	1
   430  0055                     ___fladd@aexp:
   431                           
   432                           ; 1 bytes @ 0x35
   433  0055                     	ds	1
   434  0056                     ___fladd@bexp:
   435                           
   436                           ; 1 bytes @ 0x36
   437  0056                     	ds	1
   438  0057                     ___fladd@grs:
   439                           
   440                           ; 1 bytes @ 0x37
   441  0057                     	ds	1
   442  0058                     ?___fltol:
   443  0058                     ___fltol@f1:	
   444                           ; 4 bytes @ 0x38
   445                           
   446                           
   447                           ; 4 bytes @ 0x38
   448  0058                     	ds	4
   449  005C                     ??___fltol:
   450                           
   451                           ; 1 bytes @ 0x3C
   452  005C                     	ds	5
   453  0061                     ___fltol@sign1:
   454                           
   455                           ; 1 bytes @ 0x41
   456  0061                     	ds	1
   457  0062                     ___fltol@exp1:
   458                           
   459                           ; 1 bytes @ 0x42
   460  0062                     	ds	1
   461  0063                     ??_canales:
   462                           
   463                           ; 1 bytes @ 0x43
   464  0063                     	ds	4
   465  0067                     canales@VAL:
   466                           
   467                           ; 1 bytes @ 0x47
   468  0067                     	ds	1
   469                           
   470                           	psect	maintext
   471  07E3                     __pmaintext:	
   472 ;;
   473 ;;Main: autosize = 0, tempsize = 0, incstack = 0, save=0
   474 ;;
   475 ;; *************** function _main *****************
   476 ;; Defined at:
   477 ;;		line 150 in file "MainFinal.c"
   478 ;; Parameters:    Size  Location     Type
   479 ;;		None
   480 ;; Auto vars:     Size  Location     Type
   481 ;;		None
   482 ;; Return value:  Size  Location     Type
   483 ;;                  1    wreg      void 
   484 ;; Registers used:
   485 ;;		wreg, fsr0l, fsr0h, status,2, status,0, btemp+1, pclath, cstack
   486 ;; Tracked objects:
   487 ;;		On entry : B00/0
   488 ;;		On exit  : 0/0
   489 ;;		Unchanged: 0/0
   490 ;; Data sizes:     COMMON   BANK0   BANK1   BANK3   BANK2
   491 ;;      Params:         0       0       0       0       0
   492 ;;      Locals:         0       0       0       0       0
   493 ;;      Temps:          0       0       0       0       0
   494 ;;      Totals:         0       0       0       0       0
   495 ;;Total ram usage:        0 bytes
   496 ;; Hardware stack levels required when called:    4
   497 ;; This function calls:
   498 ;;		_canales
   499 ;;		_setup
   500 ;; This function is called by:
   501 ;;		Startup code after reset
   502 ;; This function uses a non-reentrant model
   503 ;;
   504                           
   505                           
   506                           ;psect for function _main
   507  07E3                     _main:
   508  07E3                     l1947:	
   509                           ;incstack = 0
   510                           ; Regs used in _main: [wreg-fsr0h+status,2+status,0+btemp+1+pclath+cstack]
   511                           
   512                           
   513                           ;MainFinal.c: 151:     setup();
   514  07E3  120A  158A  26D3  120A  118A  	fcall	_setup
   515  07E8                     l1949:
   516                           
   517                           ;MainFinal.c: 153:         canales(VAL);
   518  07E8  087A               	movf	_VAL,w
   519  07E9  120A  118A  2605  120A  118A  	fcall	_canales
   520  07EE  2FE8               	goto	l1949
   521  07EF  120A  118A  280C   	ljmp	start
   522  07F2                     __end_of_main:
   523                           
   524                           	psect	text1
   525  0ED3                     __ptext1:	
   526 ;; *************** function _setup *****************
   527 ;; Defined at:
   528 ;;		line 93 in file "MainFinal.c"
   529 ;; Parameters:    Size  Location     Type
   530 ;;		None
   531 ;; Auto vars:     Size  Location     Type
   532 ;;		None
   533 ;; Return value:  Size  Location     Type
   534 ;;                  1    wreg      void 
   535 ;; Registers used:
   536 ;;		wreg, status,2, status,0
   537 ;; Tracked objects:
   538 ;;		On entry : 0/0
   539 ;;		On exit  : 0/0
   540 ;;		Unchanged: 0/0
   541 ;; Data sizes:     COMMON   BANK0   BANK1   BANK3   BANK2
   542 ;;      Params:         0       0       0       0       0
   543 ;;      Locals:         0       0       0       0       0
   544 ;;      Temps:          1       0       0       0       0
   545 ;;      Totals:         1       0       0       0       0
   546 ;;Total ram usage:        1 bytes
   547 ;; Hardware stack levels used:    1
   548 ;; Hardware stack levels required when called:    1
   549 ;; This function calls:
   550 ;;		Nothing
   551 ;; This function is called by:
   552 ;;		_main
   553 ;; This function uses a non-reentrant model
   554 ;;
   555                           
   556                           
   557                           ;psect for function _setup
   558  0ED3                     _setup:
   559  0ED3                     l1157:	
   560                           ;incstack = 0
   561                           ; Regs used in _setup: [wreg+status,2+status,0]
   562                           
   563                           
   564                           ;MainFinal.c: 95:     ANSEL = 0B00001111;
   565  0ED3  300F               	movlw	15
   566  0ED4  1683               	bsf	3,5	;RP0=1, select bank3
   567  0ED5  1703               	bsf	3,6	;RP1=1, select bank3
   568  0ED6  0088               	movwf	8	;volatile
   569  0ED7                     l1159:
   570                           
   571                           ;MainFinal.c: 96:     ANSELH = 0X00;
   572  0ED7  0189               	clrf	9	;volatile
   573  0ED8                     l1161:
   574                           
   575                           ;MainFinal.c: 98:     TRISA = 0B00001111;
   576  0ED8  300F               	movlw	15
   577  0ED9  1683               	bsf	3,5	;RP0=1, select bank1
   578  0EDA  1303               	bcf	3,6	;RP1=0, select bank1
   579  0EDB  0085               	movwf	5	;volatile
   580                           
   581                           ;MainFinal.c: 99:     TRISC = 0X00;
   582  0EDC  0187               	clrf	7	;volatile
   583                           
   584                           ;MainFinal.c: 100:     TRISD = 0X00;
   585  0EDD  0188               	clrf	8	;volatile
   586                           
   587                           ;MainFinal.c: 102:     PORTA = 0X00;
   588  0EDE  1283               	bcf	3,5	;RP0=0, select bank0
   589  0EDF  1303               	bcf	3,6	;RP1=0, select bank0
   590  0EE0  0185               	clrf	5	;volatile
   591                           
   592                           ;MainFinal.c: 103:     PORTC = 0X00;
   593  0EE1  0187               	clrf	7	;volatile
   594                           
   595                           ;MainFinal.c: 106:     OPTION_REG = 01000000;
   596  0EE2  1683               	bsf	3,5	;RP0=1, select bank1
   597  0EE3  1303               	bcf	3,6	;RP1=0, select bank1
   598  0EE4  0181               	clrf	1	;volatile
   599  0EE5                     l1163:
   600                           
   601                           ;MainFinal.c: 107:     TMR0 = 156;
   602  0EE5  309C               	movlw	156
   603  0EE6  1283               	bcf	3,5	;RP0=0, select bank0
   604  0EE7  1303               	bcf	3,6	;RP1=0, select bank0
   605  0EE8  0081               	movwf	1	;volatile
   606  0EE9                     l1165:
   607                           
   608                           ;MainFinal.c: 108:     INTCONbits.GIE = 1;
   609  0EE9  178B               	bsf	11,7	;volatile
   610  0EEA                     l1167:
   611                           
   612                           ;MainFinal.c: 109:     INTCONbits.PEIE = 1;
   613  0EEA  170B               	bsf	11,6	;volatile
   614  0EEB                     l1169:
   615                           
   616                           ;MainFinal.c: 110:     INTCONbits.T0IE = 1;
   617  0EEB  168B               	bsf	11,5	;volatile
   618  0EEC                     l1171:
   619                           
   620                           ;MainFinal.c: 111:     INTCONbits.T0IF = 0;
   621  0EEC  110B               	bcf	11,2	;volatile
   622  0EED                     l1173:
   623                           
   624                           ;MainFinal.c: 114:     OSCCONbits.SCS = 1;
   625  0EED  1683               	bsf	3,5	;RP0=1, select bank1
   626  0EEE  1303               	bcf	3,6	;RP1=0, select bank1
   627  0EEF  140F               	bsf	15,0	;volatile
   628  0EF0                     l1175:
   629                           
   630                           ;MainFinal.c: 115:     OSCCONbits.IRCF2 = 1;
   631  0EF0  170F               	bsf	15,6	;volatile
   632  0EF1                     l1177:
   633                           
   634                           ;MainFinal.c: 116:     OSCCONbits.IRCF1 = 1;
   635  0EF1  168F               	bsf	15,5	;volatile
   636  0EF2                     l1179:
   637                           
   638                           ;MainFinal.c: 117:     OSCCONbits.IRCF0 = 0;
   639  0EF2  120F               	bcf	15,4	;volatile
   640  0EF3                     l1181:
   641                           
   642                           ;MainFinal.c: 118:     PIR1bits.TMR2IF = 0;
   643  0EF3  1283               	bcf	3,5	;RP0=0, select bank0
   644  0EF4  1303               	bcf	3,6	;RP1=0, select bank0
   645  0EF5  108C               	bcf	12,1	;volatile
   646  0EF6                     l1183:
   647                           
   648                           ;MainFinal.c: 119:     T2CON = 0X26;
   649  0EF6  3026               	movlw	38
   650  0EF7  0092               	movwf	18	;volatile
   651  0EF8                     l1185:
   652                           
   653                           ;MainFinal.c: 122:     ADCON0bits.CHS = 0;
   654  0EF8  30C3               	movlw	-61
   655  0EF9  059F               	andwf	31,f	;volatile
   656  0EFA                     l1187:
   657                           
   658                           ;MainFinal.c: 123:     ADCON0bits.CHS = 2;
   659  0EFA  081F               	movf	31,w	;volatile
   660  0EFB  39C3               	andlw	-61
   661  0EFC  3808               	iorlw	8
   662  0EFD  009F               	movwf	31	;volatile
   663  0EFE                     l1189:
   664                           
   665                           ;MainFinal.c: 124:     _delay((unsigned long)((100)*(4000000/4000000.0)));
   666  0EFE  3021               	movlw	33
   667  0EFF  00F3               	movwf	??_setup
   668  0F00                     u2657:
   669  0F00  0BF3               	decfsz	??_setup,f
   670  0F01  2F00               	goto	u2657
   671  0F02                     l1191:
   672                           
   673                           ;MainFinal.c: 126:     PIE1bits.ADIE = 1;
   674  0F02  1683               	bsf	3,5	;RP0=1, select bank1
   675  0F03  1303               	bcf	3,6	;RP1=0, select bank1
   676  0F04  170C               	bsf	12,6	;volatile
   677  0F05                     l1193:
   678                           
   679                           ;MainFinal.c: 127:     PIR1bits.ADIF = 0;
   680  0F05  1283               	bcf	3,5	;RP0=0, select bank0
   681  0F06  1303               	bcf	3,6	;RP1=0, select bank0
   682  0F07  130C               	bcf	12,6	;volatile
   683  0F08                     l1195:
   684                           
   685                           ;MainFinal.c: 128:     ADCON0bits.ADON = 1;
   686  0F08  141F               	bsf	31,0	;volatile
   687  0F09                     l1197:
   688                           
   689                           ;MainFinal.c: 129:     ADCON0bits.ADCS = 1;
   690  0F09  081F               	movf	31,w	;volatile
   691  0F0A  393F               	andlw	-193
   692  0F0B  3840               	iorlw	64
   693  0F0C  009F               	movwf	31	;volatile
   694  0F0D                     l1199:
   695                           
   696                           ;MainFinal.c: 130:     ADCON1bits.ADFM = 0;
   697  0F0D  1683               	bsf	3,5	;RP0=1, select bank1
   698  0F0E  1303               	bcf	3,6	;RP1=0, select bank1
   699  0F0F  139F               	bcf	31,7	;volatile
   700  0F10                     l1201:
   701                           
   702                           ;MainFinal.c: 131:     ADCON1bits.VCFG0 = 0;
   703  0F10  121F               	bcf	31,4	;volatile
   704  0F11                     l1203:
   705                           
   706                           ;MainFinal.c: 132:     ADCON1bits.VCFG1 = 0;
   707  0F11  129F               	bcf	31,5	;volatile
   708  0F12                     l1205:
   709                           
   710                           ;MainFinal.c: 135:     PR2 = 250;
   711  0F12  30FA               	movlw	250
   712  0F13  0092               	movwf	18	;volatile
   713  0F14                     l1207:
   714                           
   715                           ;MainFinal.c: 136:     CCP1CON = 0B00001100;
   716  0F14  300C               	movlw	12
   717  0F15  1283               	bcf	3,5	;RP0=0, select bank0
   718  0F16  1303               	bcf	3,6	;RP1=0, select bank0
   719  0F17  0097               	movwf	23	;volatile
   720  0F18                     l1209:
   721                           
   722                           ;MainFinal.c: 137:     CCP2CON = 0B00001111;
   723  0F18  300F               	movlw	15
   724  0F19  009D               	movwf	29	;volatile
   725  0F1A                     l74:
   726  0F1A  0008               	return
   727  0F1B                     __end_of_setup:
   728                           
   729                           	psect	text2
   730  0605                     __ptext2:	
   731 ;; *************** function _canales *****************
   732 ;; Defined at:
   733 ;;		line 162 in file "MainFinal.c"
   734 ;; Parameters:    Size  Location     Type
   735 ;;  VAL             1    wreg     unsigned char 
   736 ;; Auto vars:     Size  Location     Type
   737 ;;  VAL             1   71[BANK0 ] unsigned char 
   738 ;; Return value:  Size  Location     Type
   739 ;;                  1    wreg      void 
   740 ;; Registers used:
   741 ;;		wreg, fsr0l, fsr0h, status,2, status,0, btemp+1, pclath, cstack
   742 ;; Tracked objects:
   743 ;;		On entry : 0/0
   744 ;;		On exit  : 0/0
   745 ;;		Unchanged: 0/0
   746 ;; Data sizes:     COMMON   BANK0   BANK1   BANK3   BANK2
   747 ;;      Params:         0       0       0       0       0
   748 ;;      Locals:         0       1       0       0       0
   749 ;;      Temps:          0       4       0       0       0
   750 ;;      Totals:         0       5       0       0       0
   751 ;;Total ram usage:        5 bytes
   752 ;; Hardware stack levels used:    1
   753 ;; Hardware stack levels required when called:    3
   754 ;; This function calls:
   755 ;;		___awdiv
   756 ;;		___fladd
   757 ;;		___flmul
   758 ;;		___fltol
   759 ;;		___xxtofl
   760 ;; This function is called by:
   761 ;;		_main
   762 ;; This function uses a non-reentrant model
   763 ;;
   764                           
   765                           
   766                           ;psect for function _canales
   767  0605                     _canales:
   768                           
   769                           ;incstack = 0
   770                           ; Regs used in _canales: [wreg-fsr0h+status,2+status,0+btemp+1+pclath+cstack]
   771                           ;canales@VAL stored from wreg
   772  0605  1283               	bcf	3,5	;RP0=0, select bank0
   773  0606  1303               	bcf	3,6	;RP1=0, select bank0
   774  0607  00E7               	movwf	canales@VAL
   775  0608                     l1901:
   776                           
   777                           ;MainFinal.c: 163:         switch(ADCON0bits.CHS){
   778  0608  2F10               	goto	l1939
   779  0609                     l1903:
   780                           
   781                           ;MainFinal.c: 165:                 S1 = ((0.247*VAL)+62);
   782  0609  0867               	movf	canales@VAL,w
   783  060A  00E3               	movwf	??_canales
   784  060B  01E4               	clrf	??_canales+1
   785  060C  01E5               	clrf	??_canales+2
   786  060D  01E6               	clrf	??_canales+3
   787  060E  0866               	movf	??_canales+3,w
   788  060F  00F6               	movwf	___xxtofl@val+3
   789  0610  0865               	movf	??_canales+2,w
   790  0611  00F5               	movwf	___xxtofl@val+2
   791  0612  0864               	movf	??_canales+1,w
   792  0613  00F4               	movwf	___xxtofl@val+1
   793  0614  0863               	movf	??_canales,w
   794  0615  00F3               	movwf	___xxtofl@val
   795  0616  3001               	movlw	1
   796  0617  120A  118A  2727  120A  118A  	fcall	___xxtofl
   797  061C  0876               	movf	?___xxtofl+3,w
   798  061D  1283               	bcf	3,5	;RP0=0, select bank0
   799  061E  1303               	bcf	3,6	;RP1=0, select bank0
   800  061F  00B1               	movwf	___flmul@a+3
   801  0620  0875               	movf	?___xxtofl+2,w
   802  0621  00B0               	movwf	___flmul@a+2
   803  0622  0874               	movf	?___xxtofl+1,w
   804  0623  00AF               	movwf	___flmul@a+1
   805  0624  0873               	movf	?___xxtofl,w
   806  0625  00AE               	movwf	___flmul@a
   807  0626  303E               	movlw	62
   808  0627  00AD               	movwf	___flmul@b+3
   809  0628  307C               	movlw	124
   810  0629  00AC               	movwf	___flmul@b+2
   811  062A  30ED               	movlw	237
   812  062B  00AB               	movwf	___flmul@b+1
   813  062C  3091               	movlw	145
   814  062D  00AA               	movwf	___flmul@b
   815  062E  120A  118A  201C  120A  118A  	fcall	___flmul
   816  0633  1283               	bcf	3,5	;RP0=0, select bank0
   817  0634  1303               	bcf	3,6	;RP1=0, select bank0
   818  0635  082D               	movf	?___flmul+3,w
   819  0636  00CB               	movwf	___fladd@a+3
   820  0637  082C               	movf	?___flmul+2,w
   821  0638  00CA               	movwf	___fladd@a+2
   822  0639  082B               	movf	?___flmul+1,w
   823  063A  00C9               	movwf	___fladd@a+1
   824  063B  082A               	movf	?___flmul,w
   825  063C  00C8               	movwf	___fladd@a
   826  063D  3042               	movlw	66
   827  063E  00C7               	movwf	___fladd@b+3
   828  063F  3078               	movlw	120
   829  0640  00C6               	movwf	___fladd@b+2
   830  0641  3000               	movlw	0
   831  0642  00C5               	movwf	___fladd@b+1
   832  0643  3000               	movlw	0
   833  0644  00C4               	movwf	___fladd@b
   834  0645  120A  118A  237D  120A  118A  	fcall	___fladd
   835  064A  1283               	bcf	3,5	;RP0=0, select bank0
   836  064B  1303               	bcf	3,6	;RP1=0, select bank0
   837  064C  0847               	movf	?___fladd+3,w
   838  064D  00DB               	movwf	___fltol@f1+3
   839  064E  0846               	movf	?___fladd+2,w
   840  064F  00DA               	movwf	___fltol@f1+2
   841  0650  0845               	movf	?___fladd+1,w
   842  0651  00D9               	movwf	___fltol@f1+1
   843  0652  0844               	movf	?___fladd,w
   844  0653  00D8               	movwf	___fltol@f1
   845  0654  120A  158A  2784  120A  118A  	fcall	___fltol
   846  0659  1283               	bcf	3,5	;RP0=0, select bank0
   847  065A  1303               	bcf	3,6	;RP1=0, select bank0
   848  065B  0859               	movf	?___fltol+1,w
   849  065C  00EB               	movwf	_S1+1
   850  065D  0858               	movf	?___fltol,w
   851  065E  00EA               	movwf	_S1
   852  065F                     l1905:
   853                           
   854                           ;MainFinal.c: 166:                 CCPR1L = S1;
   855  065F  086A               	movf	_S1,w
   856  0660  0095               	movwf	21	;volatile
   857  0661                     l1907:
   858                           
   859                           ;MainFinal.c: 167:                 ADCON0bits.CHS = 3;
   860  0661  081F               	movf	31,w	;volatile
   861  0662  39C3               	andlw	-61
   862  0663  380C               	iorlw	12
   863  0664  009F               	movwf	31	;volatile
   864  0665                     l1909:
   865                           
   866                           ;MainFinal.c: 168:                 _delay((unsigned long)((100)*(4000000/4000000.0)));
   867  0665  3020               	movlw	32
   868  0666  1283               	bcf	3,5	;RP0=0, select bank0
   869  0667  1303               	bcf	3,6	;RP1=0, select bank0
   870  0668  00E3               	movwf	??_canales
   871  0669                     u2667:
   872  0669  0BE3               	decfsz	??_canales,f
   873  066A  2E69               	goto	u2667
   874  066B  0000               	nop
   875  066C                     l1911:
   876                           
   877                           ;MainFinal.c: 169:                 ADCON0bits.GO = 1;
   878  066C  1283               	bcf	3,5	;RP0=0, select bank0
   879  066D  1303               	bcf	3,6	;RP1=0, select bank0
   880  066E  149F               	bsf	31,1	;volatile
   881                           
   882                           ;MainFinal.c: 170:                 break;
   883  066F  2F26               	goto	l93
   884  0670                     l1913:
   885                           
   886                           ;MainFinal.c: 174:                 POT3 = VAL/10;
   887  0670  300A               	movlw	10
   888  0671  00F3               	movwf	___awdiv@divisor
   889  0672  3000               	movlw	0
   890  0673  00F4               	movwf	___awdiv@divisor+1
   891  0674  0867               	movf	canales@VAL,w
   892  0675  00E3               	movwf	??_canales
   893  0676  01E4               	clrf	??_canales+1
   894  0677  0863               	movf	??_canales,w
   895  0678  00F5               	movwf	___awdiv@dividend
   896  0679  0864               	movf	??_canales+1,w
   897  067A  00F6               	movwf	___awdiv@dividend+1
   898  067B  120A  158A  271B  120A  118A  	fcall	___awdiv
   899  0680  0873               	movf	?___awdiv,w
   900  0681  1283               	bcf	3,5	;RP0=0, select bank0
   901  0682  1303               	bcf	3,6	;RP1=0, select bank0
   902  0683  00E5               	movwf	??_canales+2
   903  0684  0865               	movf	??_canales+2,w
   904  0685  00F9               	movwf	_POT3
   905  0686                     l1915:
   906                           
   907                           ;MainFinal.c: 175:                 if(POT3 <= 5){
   908  0686  3006               	movlw	6
   909  0687  0279               	subwf	_POT3,w
   910  0688  1803               	skipnc
   911  0689  2E8B               	goto	u2631
   912  068A  2E8C               	goto	u2630
   913  068B                     u2631:
   914  068B  2E90               	goto	l89
   915  068C                     u2630:
   916  068C                     l1917:
   917                           
   918                           ;MainFinal.c: 176:                     POT3 = 5;
   919  068C  3005               	movlw	5
   920  068D  00E3               	movwf	??_canales
   921  068E  0863               	movf	??_canales,w
   922  068F  00F9               	movwf	_POT3
   923  0690                     l89:	
   924                           ;MainFinal.c: 177:                 }
   925                           
   926                           
   927                           ;MainFinal.c: 178:                 if(POT3 >= 25){
   928  0690  3019               	movlw	25
   929  0691  0279               	subwf	_POT3,w
   930  0692  1C03               	skipc
   931  0693  2E95               	goto	u2641
   932  0694  2E96               	goto	u2640
   933  0695                     u2641:
   934  0695  2E9A               	goto	l90
   935  0696                     u2640:
   936  0696                     l1919:
   937                           
   938                           ;MainFinal.c: 179:                     POT3 = 25;
   939  0696  3019               	movlw	25
   940  0697  00E3               	movwf	??_canales
   941  0698  0863               	movf	??_canales,w
   942  0699  00F9               	movwf	_POT3
   943  069A                     l90:	
   944                           ;MainFinal.c: 180:                 }
   945                           
   946                           
   947                           ;MainFinal.c: 181:                 PORTD = VAL ;
   948  069A  0867               	movf	canales@VAL,w
   949  069B  0088               	movwf	8	;volatile
   950  069C                     l1921:
   951                           
   952                           ;MainFinal.c: 182:                 ADCON0bits.CHS = 2;
   953  069C  081F               	movf	31,w	;volatile
   954  069D  39C3               	andlw	-61
   955  069E  3808               	iorlw	8
   956  069F  009F               	movwf	31	;volatile
   957  06A0                     l1923:
   958                           
   959                           ;MainFinal.c: 183:                 _delay((unsigned long)((100)*(4000000/4000000.0)));
   960  06A0  3020               	movlw	32
   961  06A1  1283               	bcf	3,5	;RP0=0, select bank0
   962  06A2  1303               	bcf	3,6	;RP1=0, select bank0
   963  06A3  00E3               	movwf	??_canales
   964  06A4                     u2677:
   965  06A4  0BE3               	decfsz	??_canales,f
   966  06A5  2EA4               	goto	u2677
   967  06A6  0000               	nop
   968  06A7                     l1925:
   969                           
   970                           ;MainFinal.c: 184:                 ADCON0bits.GO = 1;
   971  06A7  1283               	bcf	3,5	;RP0=0, select bank0
   972  06A8  1303               	bcf	3,6	;RP1=0, select bank0
   973  06A9  149F               	bsf	31,1	;volatile
   974                           
   975                           ;MainFinal.c: 185:                 break;
   976  06AA  2F26               	goto	l93
   977  06AB                     l1927:
   978                           
   979                           ;MainFinal.c: 188:                 S2 = ((0.247*VAL)+62);
   980  06AB  0867               	movf	canales@VAL,w
   981  06AC  00E3               	movwf	??_canales
   982  06AD  01E4               	clrf	??_canales+1
   983  06AE  01E5               	clrf	??_canales+2
   984  06AF  01E6               	clrf	??_canales+3
   985  06B0  0866               	movf	??_canales+3,w
   986  06B1  00F6               	movwf	___xxtofl@val+3
   987  06B2  0865               	movf	??_canales+2,w
   988  06B3  00F5               	movwf	___xxtofl@val+2
   989  06B4  0864               	movf	??_canales+1,w
   990  06B5  00F4               	movwf	___xxtofl@val+1
   991  06B6  0863               	movf	??_canales,w
   992  06B7  00F3               	movwf	___xxtofl@val
   993  06B8  3001               	movlw	1
   994  06B9  120A  118A  2727  120A  118A  	fcall	___xxtofl
   995  06BE  0876               	movf	?___xxtofl+3,w
   996  06BF  1283               	bcf	3,5	;RP0=0, select bank0
   997  06C0  1303               	bcf	3,6	;RP1=0, select bank0
   998  06C1  00B1               	movwf	___flmul@a+3
   999  06C2  0875               	movf	?___xxtofl+2,w
  1000  06C3  00B0               	movwf	___flmul@a+2
  1001  06C4  0874               	movf	?___xxtofl+1,w
  1002  06C5  00AF               	movwf	___flmul@a+1
  1003  06C6  0873               	movf	?___xxtofl,w
  1004  06C7  00AE               	movwf	___flmul@a
  1005  06C8  303E               	movlw	62
  1006  06C9  00AD               	movwf	___flmul@b+3
  1007  06CA  307C               	movlw	124
  1008  06CB  00AC               	movwf	___flmul@b+2
  1009  06CC  30ED               	movlw	237
  1010  06CD  00AB               	movwf	___flmul@b+1
  1011  06CE  3091               	movlw	145
  1012  06CF  00AA               	movwf	___flmul@b
  1013  06D0  120A  118A  201C  120A  118A  	fcall	___flmul
  1014  06D5  1283               	bcf	3,5	;RP0=0, select bank0
  1015  06D6  1303               	bcf	3,6	;RP1=0, select bank0
  1016  06D7  082D               	movf	?___flmul+3,w
  1017  06D8  00CB               	movwf	___fladd@a+3
  1018  06D9  082C               	movf	?___flmul+2,w
  1019  06DA  00CA               	movwf	___fladd@a+2
  1020  06DB  082B               	movf	?___flmul+1,w
  1021  06DC  00C9               	movwf	___fladd@a+1
  1022  06DD  082A               	movf	?___flmul,w
  1023  06DE  00C8               	movwf	___fladd@a
  1024  06DF  3042               	movlw	66
  1025  06E0  00C7               	movwf	___fladd@b+3
  1026  06E1  3078               	movlw	120
  1027  06E2  00C6               	movwf	___fladd@b+2
  1028  06E3  3000               	movlw	0
  1029  06E4  00C5               	movwf	___fladd@b+1
  1030  06E5  3000               	movlw	0
  1031  06E6  00C4               	movwf	___fladd@b
  1032  06E7  120A  118A  237D  120A  118A  	fcall	___fladd
  1033  06EC  1283               	bcf	3,5	;RP0=0, select bank0
  1034  06ED  1303               	bcf	3,6	;RP1=0, select bank0
  1035  06EE  0847               	movf	?___fladd+3,w
  1036  06EF  00DB               	movwf	___fltol@f1+3
  1037  06F0  0846               	movf	?___fladd+2,w
  1038  06F1  00DA               	movwf	___fltol@f1+2
  1039  06F2  0845               	movf	?___fladd+1,w
  1040  06F3  00D9               	movwf	___fltol@f1+1
  1041  06F4  0844               	movf	?___fladd,w
  1042  06F5  00D8               	movwf	___fltol@f1
  1043  06F6  120A  158A  2784  120A  118A  	fcall	___fltol
  1044  06FB  1283               	bcf	3,5	;RP0=0, select bank0
  1045  06FC  1303               	bcf	3,6	;RP1=0, select bank0
  1046  06FD  0859               	movf	?___fltol+1,w
  1047  06FE  00E9               	movwf	_S2+1
  1048  06FF  0858               	movf	?___fltol,w
  1049  0700  00E8               	movwf	_S2
  1050  0701                     l1929:
  1051                           
  1052                           ;MainFinal.c: 189:                 CCPR2L = S2;
  1053  0701  0868               	movf	_S2,w
  1054  0702  009B               	movwf	27	;volatile
  1055  0703                     l1931:
  1056                           
  1057                           ;MainFinal.c: 190:                 ADCON0bits.CHS = 0;
  1058  0703  30C3               	movlw	-61
  1059  0704  059F               	andwf	31,f	;volatile
  1060  0705                     l1933:
  1061                           
  1062                           ;MainFinal.c: 191:                 _delay((unsigned long)((100)*(4000000/4000000.0)));
  1063  0705  3020               	movlw	32
  1064  0706  1283               	bcf	3,5	;RP0=0, select bank0
  1065  0707  1303               	bcf	3,6	;RP1=0, select bank0
  1066  0708  00E3               	movwf	??_canales
  1067  0709                     u2687:
  1068  0709  0BE3               	decfsz	??_canales,f
  1069  070A  2F09               	goto	u2687
  1070  070B  0000               	nop
  1071  070C                     l1935:
  1072                           
  1073                           ;MainFinal.c: 192:                 ADCON0bits.GO = 1;
  1074  070C  1283               	bcf	3,5	;RP0=0, select bank0
  1075  070D  1303               	bcf	3,6	;RP1=0, select bank0
  1076  070E  149F               	bsf	31,1	;volatile
  1077                           
  1078                           ;MainFinal.c: 193:                 break;
  1079  070F  2F26               	goto	l93
  1080  0710                     l1939:
  1081  0710  0C1F               	rrf	31,w	;volatile
  1082  0711  00E3               	movwf	??_canales
  1083  0712  0C63               	rrf	??_canales,w
  1084  0713  390F               	andlw	15
  1085  0714  00E4               	movwf	??_canales+1
  1086  0715  01E5               	clrf	??_canales+2
  1087                           
  1088                           ; Switch on 2 bytes has been partitioned into a top level switch of size 1, and 1 sub-sw
      +                          itches
  1089                           ; Switch size 1, requested type "simple"
  1090                           ; Number of cases is 1, Range of values is 0 to 0
  1091                           ; switch strategies available:
  1092                           ; Name         Instructions Cycles
  1093                           ; simple_byte            4     3 (average)
  1094                           ; direct_byte           11     8 (fixed)
  1095                           ; jumptable            260     6 (fixed)
  1096                           ;	Chosen strategy is simple_byte
  1097  0716  0865               	movf	??_canales+2,w
  1098  0717  3A00               	xorlw	0	; case 0
  1099  0718  1903               	skipnz
  1100  0719  2F1B               	goto	l1981
  1101  071A  2F26               	goto	l93
  1102  071B                     l1981:
  1103                           
  1104                           ; Switch size 1, requested type "simple"
  1105                           ; Number of cases is 3, Range of values is 0 to 3
  1106                           ; switch strategies available:
  1107                           ; Name         Instructions Cycles
  1108                           ; simple_byte           10     6 (average)
  1109                           ; direct_byte           20     8 (fixed)
  1110                           ; jumptable            260     6 (fixed)
  1111                           ;	Chosen strategy is simple_byte
  1112  071B  0864               	movf	??_canales+1,w
  1113  071C  3A00               	xorlw	0	; case 0
  1114  071D  1903               	skipnz
  1115  071E  2E09               	goto	l1903
  1116  071F  3A02               	xorlw	2	; case 2
  1117  0720  1903               	skipnz
  1118  0721  2EAB               	goto	l1927
  1119  0722  3A01               	xorlw	1	; case 3
  1120  0723  1903               	skipnz
  1121  0724  2E70               	goto	l1913
  1122  0725  2F26               	goto	l93
  1123  0726                     l93:
  1124  0726  0008               	return
  1125  0727                     __end_of_canales:
  1126                           
  1127                           	psect	text3
  1128  0727                     __ptext3:	
  1129 ;; *************** function ___xxtofl *****************
  1130 ;; Defined at:
  1131 ;;		line 10 in file "C:\Program Files\Microchip\xc8\v2.31\pic\sources\c90\common\xxtofl.c"
  1132 ;; Parameters:    Size  Location     Type
  1133 ;;  sign            1    wreg     unsigned char 
  1134 ;;  val             4    3[COMMON] long 
  1135 ;; Auto vars:     Size  Location     Type
  1136 ;;  sign            1    4[BANK0 ] unsigned char 
  1137 ;;  arg             4    6[BANK0 ] unsigned long 
  1138 ;;  exp             1    5[BANK0 ] unsigned char 
  1139 ;; Return value:  Size  Location     Type
  1140 ;;                  4    3[COMMON] unsigned char 
  1141 ;; Registers used:
  1142 ;;		wreg, status,2, status,0
  1143 ;; Tracked objects:
  1144 ;;		On entry : 0/0
  1145 ;;		On exit  : 0/0
  1146 ;;		Unchanged: 0/0
  1147 ;; Data sizes:     COMMON   BANK0   BANK1   BANK3   BANK2
  1148 ;;      Params:         4       0       0       0       0
  1149 ;;      Locals:         0       6       0       0       0
  1150 ;;      Temps:          0       4       0       0       0
  1151 ;;      Totals:         4      10       0       0       0
  1152 ;;Total ram usage:       14 bytes
  1153 ;; Hardware stack levels used:    1
  1154 ;; Hardware stack levels required when called:    1
  1155 ;; This function calls:
  1156 ;;		Nothing
  1157 ;; This function is called by:
  1158 ;;		_canales
  1159 ;; This function uses a non-reentrant model
  1160 ;;
  1161                           
  1162                           
  1163                           ;psect for function ___xxtofl
  1164  0727                     ___xxtofl:
  1165                           
  1166                           ;incstack = 0
  1167                           ; Regs used in ___xxtofl: [wreg+status,2+status,0]
  1168                           ;___xxtofl@sign stored from wreg
  1169  0727  1283               	bcf	3,5	;RP0=0, select bank0
  1170  0728  1303               	bcf	3,6	;RP1=0, select bank0
  1171  0729  00A4               	movwf	___xxtofl@sign
  1172  072A                     l1857:
  1173  072A  0824               	movf	___xxtofl@sign,w
  1174  072B  1903               	btfsc	3,2
  1175  072C  2F2E               	goto	u2491
  1176  072D  2F2F               	goto	u2490
  1177  072E                     u2491:
  1178  072E  2F43               	goto	l1863
  1179  072F                     u2490:
  1180  072F                     l1859:
  1181  072F  1FF6               	btfss	___xxtofl@val+3,7
  1182  0730  2F32               	goto	u2501
  1183  0731  2F33               	goto	u2500
  1184  0732                     u2501:
  1185  0732  2F43               	goto	l1863
  1186  0733                     u2500:
  1187  0733                     l1861:
  1188  0733  0973               	comf	___xxtofl@val,w
  1189  0734  00A6               	movwf	___xxtofl@arg
  1190  0735  0974               	comf	___xxtofl@val+1,w
  1191  0736  00A7               	movwf	___xxtofl@arg+1
  1192  0737  0975               	comf	___xxtofl@val+2,w
  1193  0738  00A8               	movwf	___xxtofl@arg+2
  1194  0739  0976               	comf	___xxtofl@val+3,w
  1195  073A  00A9               	movwf	___xxtofl@arg+3
  1196  073B  0AA6               	incf	___xxtofl@arg,f
  1197  073C  1903               	skipnz
  1198  073D  0AA7               	incf	___xxtofl@arg+1,f
  1199  073E  1903               	skipnz
  1200  073F  0AA8               	incf	___xxtofl@arg+2,f
  1201  0740  1903               	skipnz
  1202  0741  0AA9               	incf	___xxtofl@arg+3,f
  1203  0742  2F4B               	goto	l612
  1204  0743                     l1863:
  1205  0743  0876               	movf	___xxtofl@val+3,w
  1206  0744  00A9               	movwf	___xxtofl@arg+3
  1207  0745  0875               	movf	___xxtofl@val+2,w
  1208  0746  00A8               	movwf	___xxtofl@arg+2
  1209  0747  0874               	movf	___xxtofl@val+1,w
  1210  0748  00A7               	movwf	___xxtofl@arg+1
  1211  0749  0873               	movf	___xxtofl@val,w
  1212  074A  00A6               	movwf	___xxtofl@arg
  1213  074B                     l612:
  1214  074B  0876               	movf	___xxtofl@val+3,w
  1215  074C  0475               	iorwf	___xxtofl@val+2,w
  1216  074D  0474               	iorwf	___xxtofl@val+1,w
  1217  074E  0473               	iorwf	___xxtofl@val,w
  1218  074F  1D03               	skipz
  1219  0750  2F52               	goto	u2511
  1220  0751  2F53               	goto	u2510
  1221  0752                     u2511:
  1222  0752  2F5C               	goto	l1869
  1223  0753                     u2510:
  1224  0753                     l1865:
  1225  0753  3000               	movlw	0
  1226  0754  00F6               	movwf	?___xxtofl+3
  1227  0755  3000               	movlw	0
  1228  0756  00F5               	movwf	?___xxtofl+2
  1229  0757  3000               	movlw	0
  1230  0758  00F4               	movwf	?___xxtofl+1
  1231  0759  3000               	movlw	0
  1232  075A  00F3               	movwf	?___xxtofl
  1233  075B  2FE2               	goto	l614
  1234  075C                     l1869:
  1235  075C  3096               	movlw	150
  1236  075D  00A0               	movwf	??___xxtofl
  1237  075E  0820               	movf	??___xxtofl,w
  1238  075F  00A5               	movwf	___xxtofl@exp
  1239  0760  2F6E               	goto	l1873
  1240  0761                     l1871:
  1241  0761  3001               	movlw	1
  1242  0762  00A0               	movwf	??___xxtofl
  1243  0763  0820               	movf	??___xxtofl,w
  1244  0764  07A5               	addwf	___xxtofl@exp,f
  1245  0765  3001               	movlw	1
  1246  0766                     u2525:
  1247  0766  1003               	clrc
  1248  0767  0CA9               	rrf	___xxtofl@arg+3,f
  1249  0768  0CA8               	rrf	___xxtofl@arg+2,f
  1250  0769  0CA7               	rrf	___xxtofl@arg+1,f
  1251  076A  0CA6               	rrf	___xxtofl@arg,f
  1252  076B  3EFF               	addlw	-1
  1253  076C  1D03               	skipz
  1254  076D  2F66               	goto	u2525
  1255  076E                     l1873:
  1256  076E  30FE               	movlw	254
  1257  076F  0529               	andwf	___xxtofl@arg+3,w
  1258  0770  1D03               	btfss	3,2
  1259  0771  2F73               	goto	u2531
  1260  0772  2F74               	goto	u2530
  1261  0773                     u2531:
  1262  0773  2F61               	goto	l1871
  1263  0774                     u2530:
  1264  0774  2F90               	goto	l618
  1265  0775                     l1875:
  1266  0775  3001               	movlw	1
  1267  0776  00A0               	movwf	??___xxtofl
  1268  0777  0820               	movf	??___xxtofl,w
  1269  0778  07A5               	addwf	___xxtofl@exp,f
  1270  0779                     l1877:
  1271  0779  3001               	movlw	1
  1272  077A  07A6               	addwf	___xxtofl@arg,f
  1273  077B  3000               	movlw	0
  1274  077C  1803               	skipnc
  1275  077D  3001               	movlw	1
  1276  077E  07A7               	addwf	___xxtofl@arg+1,f
  1277  077F  3000               	movlw	0
  1278  0780  1803               	skipnc
  1279  0781  3001               	movlw	1
  1280  0782  07A8               	addwf	___xxtofl@arg+2,f
  1281  0783  3000               	movlw	0
  1282  0784  1803               	skipnc
  1283  0785  3001               	movlw	1
  1284  0786  07A9               	addwf	___xxtofl@arg+3,f
  1285  0787                     l1879:
  1286  0787  3001               	movlw	1
  1287  0788                     u2545:
  1288  0788  1003               	clrc
  1289  0789  0CA9               	rrf	___xxtofl@arg+3,f
  1290  078A  0CA8               	rrf	___xxtofl@arg+2,f
  1291  078B  0CA7               	rrf	___xxtofl@arg+1,f
  1292  078C  0CA6               	rrf	___xxtofl@arg,f
  1293  078D  3EFF               	addlw	-1
  1294  078E  1D03               	skipz
  1295  078F  2F88               	goto	u2545
  1296  0790                     l618:
  1297  0790  30FF               	movlw	255
  1298  0791  0529               	andwf	___xxtofl@arg+3,w
  1299  0792  1D03               	btfss	3,2
  1300  0793  2F95               	goto	u2551
  1301  0794  2F96               	goto	u2550
  1302  0795                     u2551:
  1303  0795  2F75               	goto	l1875
  1304  0796                     u2550:
  1305  0796  2FA2               	goto	l1883
  1306  0797                     l1881:
  1307  0797  3001               	movlw	1
  1308  0798  02A5               	subwf	___xxtofl@exp,f
  1309  0799  3001               	movlw	1
  1310  079A  00A0               	movwf	??___xxtofl
  1311  079B                     u2565:
  1312  079B  1003               	clrc
  1313  079C  0DA6               	rlf	___xxtofl@arg,f
  1314  079D  0DA7               	rlf	___xxtofl@arg+1,f
  1315  079E  0DA8               	rlf	___xxtofl@arg+2,f
  1316  079F  0DA9               	rlf	___xxtofl@arg+3,f
  1317  07A0  0BA0               	decfsz	??___xxtofl,f
  1318  07A1  2F9B               	goto	u2565
  1319  07A2                     l1883:
  1320  07A2  1BA8               	btfsc	___xxtofl@arg+2,7
  1321  07A3  2FA5               	goto	u2571
  1322  07A4  2FA6               	goto	u2570
  1323  07A5                     u2571:
  1324  07A5  2FAC               	goto	l625
  1325  07A6                     u2570:
  1326  07A6                     l1885:
  1327  07A6  3002               	movlw	2
  1328  07A7  0225               	subwf	___xxtofl@exp,w
  1329  07A8  1803               	skipnc
  1330  07A9  2FAB               	goto	u2581
  1331  07AA  2FAC               	goto	u2580
  1332  07AB                     u2581:
  1333  07AB  2F97               	goto	l1881
  1334  07AC                     u2580:
  1335  07AC                     l625:
  1336  07AC  1825               	btfsc	___xxtofl@exp,0
  1337  07AD  2FAF               	goto	u2591
  1338  07AE  2FB0               	goto	u2590
  1339  07AF                     u2591:
  1340  07AF  2FB8               	goto	l626
  1341  07B0                     u2590:
  1342  07B0                     l1887:
  1343  07B0  30FF               	movlw	255
  1344  07B1  05A6               	andwf	___xxtofl@arg,f
  1345  07B2  30FF               	movlw	255
  1346  07B3  05A7               	andwf	___xxtofl@arg+1,f
  1347  07B4  307F               	movlw	127
  1348  07B5  05A8               	andwf	___xxtofl@arg+2,f
  1349  07B6  30FF               	movlw	255
  1350  07B7  05A9               	andwf	___xxtofl@arg+3,f
  1351  07B8                     l626:
  1352  07B8  1003               	clrc
  1353  07B9  0CA5               	rrf	___xxtofl@exp,f
  1354  07BA                     l1889:
  1355  07BA  0825               	movf	___xxtofl@exp,w
  1356  07BB  00A0               	movwf	??___xxtofl
  1357  07BC  01A1               	clrf	??___xxtofl+1
  1358  07BD  01A2               	clrf	??___xxtofl+2
  1359  07BE  01A3               	clrf	??___xxtofl+3
  1360  07BF  3018               	movlw	24
  1361  07C0                     u2605:
  1362  07C0  1003               	clrc
  1363  07C1  0DA0               	rlf	??___xxtofl,f
  1364  07C2  0DA1               	rlf	??___xxtofl+1,f
  1365  07C3  0DA2               	rlf	??___xxtofl+2,f
  1366  07C4  0DA3               	rlf	??___xxtofl+3,f
  1367  07C5                     u2600:
  1368  07C5  3EFF               	addlw	-1
  1369  07C6  1D03               	skipz
  1370  07C7  2FC0               	goto	u2605
  1371  07C8  0820               	movf	??___xxtofl,w
  1372  07C9  04A6               	iorwf	___xxtofl@arg,f
  1373  07CA  0821               	movf	??___xxtofl+1,w
  1374  07CB  04A7               	iorwf	___xxtofl@arg+1,f
  1375  07CC  0822               	movf	??___xxtofl+2,w
  1376  07CD  04A8               	iorwf	___xxtofl@arg+2,f
  1377  07CE  0823               	movf	??___xxtofl+3,w
  1378  07CF  04A9               	iorwf	___xxtofl@arg+3,f
  1379  07D0                     l1891:
  1380  07D0  0824               	movf	___xxtofl@sign,w
  1381  07D1  1903               	btfsc	3,2
  1382  07D2  2FD4               	goto	u2611
  1383  07D3  2FD5               	goto	u2610
  1384  07D4                     u2611:
  1385  07D4  2FDA               	goto	l1897
  1386  07D5                     u2610:
  1387  07D5                     l1893:
  1388  07D5  1FF6               	btfss	___xxtofl@val+3,7
  1389  07D6  2FD8               	goto	u2621
  1390  07D7  2FD9               	goto	u2620
  1391  07D8                     u2621:
  1392  07D8  2FDA               	goto	l1897
  1393  07D9                     u2620:
  1394  07D9                     l1895:
  1395  07D9  17A9               	bsf	___xxtofl@arg+3,7
  1396  07DA                     l1897:
  1397  07DA  0829               	movf	___xxtofl@arg+3,w
  1398  07DB  00F6               	movwf	?___xxtofl+3
  1399  07DC  0828               	movf	___xxtofl@arg+2,w
  1400  07DD  00F5               	movwf	?___xxtofl+2
  1401  07DE  0827               	movf	___xxtofl@arg+1,w
  1402  07DF  00F4               	movwf	?___xxtofl+1
  1403  07E0  0826               	movf	___xxtofl@arg,w
  1404  07E1  00F3               	movwf	?___xxtofl
  1405  07E2                     l614:
  1406  07E2  0008               	return
  1407  07E3                     __end_of___xxtofl:
  1408                           
  1409                           	psect	text4
  1410  0F84                     __ptext4:	
  1411 ;; *************** function ___fltol *****************
  1412 ;; Defined at:
  1413 ;;		line 43 in file "C:\Program Files\Microchip\xc8\v2.31\pic\sources\c90\common\fltol.c"
  1414 ;; Parameters:    Size  Location     Type
  1415 ;;  f1              4   56[BANK0 ] unsigned char 
  1416 ;; Auto vars:     Size  Location     Type
  1417 ;;  exp1            1   66[BANK0 ] unsigned char 
  1418 ;;  sign1           1   65[BANK0 ] unsigned char 
  1419 ;; Return value:  Size  Location     Type
  1420 ;;                  4   56[BANK0 ] long 
  1421 ;; Registers used:
  1422 ;;		wreg, status,2, status,0
  1423 ;; Tracked objects:
  1424 ;;		On entry : 0/0
  1425 ;;		On exit  : 0/0
  1426 ;;		Unchanged: 0/0
  1427 ;; Data sizes:     COMMON   BANK0   BANK1   BANK3   BANK2
  1428 ;;      Params:         0       4       0       0       0
  1429 ;;      Locals:         0       2       0       0       0
  1430 ;;      Temps:          0       5       0       0       0
  1431 ;;      Totals:         0      11       0       0       0
  1432 ;;Total ram usage:       11 bytes
  1433 ;; Hardware stack levels used:    1
  1434 ;; Hardware stack levels required when called:    1
  1435 ;; This function calls:
  1436 ;;		Nothing
  1437 ;; This function is called by:
  1438 ;;		_canales
  1439 ;; This function uses a non-reentrant model
  1440 ;;
  1441                           
  1442                           
  1443                           ;psect for function ___fltol
  1444  0F84                     ___fltol:
  1445  0F84                     l1363:	
  1446                           ;incstack = 0
  1447                           ; Regs used in ___fltol: [wreg+status,2+status,0]
  1448                           
  1449  0F84  1003               	clrc
  1450  0F85  1283               	bcf	3,5	;RP0=0, select bank0
  1451  0F86  1303               	bcf	3,6	;RP1=0, select bank0
  1452  0F87  0D5A               	rlf	___fltol@f1+2,w
  1453  0F88  0D5B               	rlf	___fltol@f1+3,w
  1454  0F89  00DC               	movwf	??___fltol
  1455  0F8A  085C               	movf	??___fltol,w
  1456  0F8B  00E2               	movwf	___fltol@exp1
  1457  0F8C  0862               	movf	___fltol@exp1,w
  1458  0F8D  1D03               	btfss	3,2
  1459  0F8E  2F90               	goto	u1401
  1460  0F8F  2F91               	goto	u1400
  1461  0F90                     u1401:
  1462  0F90  2F9A               	goto	l1369
  1463  0F91                     u1400:
  1464  0F91                     l1365:
  1465  0F91  3000               	movlw	0
  1466  0F92  00DB               	movwf	?___fltol+3
  1467  0F93  3000               	movlw	0
  1468  0F94  00DA               	movwf	?___fltol+2
  1469  0F95  3000               	movlw	0
  1470  0F96  00D9               	movwf	?___fltol+1
  1471  0F97  3000               	movlw	0
  1472  0F98  00D8               	movwf	?___fltol
  1473  0F99  2FFF               	goto	l365
  1474  0F9A                     l1369:
  1475  0F9A  0858               	movf	___fltol@f1,w
  1476  0F9B  00DC               	movwf	??___fltol
  1477  0F9C  0859               	movf	___fltol@f1+1,w
  1478  0F9D  00DD               	movwf	??___fltol+1
  1479  0F9E  085A               	movf	___fltol@f1+2,w
  1480  0F9F  00DE               	movwf	??___fltol+2
  1481  0FA0  085B               	movf	___fltol@f1+3,w
  1482  0FA1  00DF               	movwf	??___fltol+3
  1483  0FA2  301F               	movlw	31
  1484  0FA3                     u1415:
  1485  0FA3  1003               	clrc
  1486  0FA4  0CDF               	rrf	??___fltol+3,f
  1487  0FA5  0CDE               	rrf	??___fltol+2,f
  1488  0FA6  0CDD               	rrf	??___fltol+1,f
  1489  0FA7  0CDC               	rrf	??___fltol,f
  1490  0FA8                     u1410:
  1491  0FA8  3EFF               	addlw	-1
  1492  0FA9  1D03               	skipz
  1493  0FAA  2FA3               	goto	u1415
  1494  0FAB  085C               	movf	??___fltol,w
  1495  0FAC  00E0               	movwf	??___fltol+4
  1496  0FAD  0860               	movf	??___fltol+4,w
  1497  0FAE  00E1               	movwf	___fltol@sign1
  1498  0FAF                     l1371:
  1499  0FAF  17DA               	bsf	___fltol@f1+2,7
  1500  0FB0                     l1373:
  1501  0FB0  30FF               	movlw	255
  1502  0FB1  05D8               	andwf	___fltol@f1,f
  1503  0FB2  30FF               	movlw	255
  1504  0FB3  05D9               	andwf	___fltol@f1+1,f
  1505  0FB4  30FF               	movlw	255
  1506  0FB5  05DA               	andwf	___fltol@f1+2,f
  1507  0FB6  3000               	movlw	0
  1508  0FB7  05DB               	andwf	___fltol@f1+3,f
  1509  0FB8                     l1375:
  1510  0FB8  3096               	movlw	150
  1511  0FB9  02E2               	subwf	___fltol@exp1,f
  1512  0FBA                     l1377:
  1513  0FBA  1FE2               	btfss	___fltol@exp1,7
  1514  0FBB  2FBD               	goto	u1421
  1515  0FBC  2FBE               	goto	u1420
  1516  0FBD                     u1421:
  1517  0FBD  2FD8               	goto	l1387
  1518  0FBE                     u1420:
  1519  0FBE                     l1379:
  1520  0FBE  0862               	movf	___fltol@exp1,w
  1521  0FBF  3A80               	xorlw	128
  1522  0FC0  3E97               	addlw	151
  1523  0FC1  1803               	skipnc
  1524  0FC2  2FC4               	goto	u1431
  1525  0FC3  2FC5               	goto	u1430
  1526  0FC4                     u1431:
  1527  0FC4  2FC6               	goto	l1385
  1528  0FC5                     u1430:
  1529  0FC5  2F91               	goto	l1365
  1530  0FC6                     l1385:
  1531  0FC6  3001               	movlw	1
  1532  0FC7                     u1445:
  1533  0FC7  1003               	clrc
  1534  0FC8  0CDB               	rrf	___fltol@f1+3,f
  1535  0FC9  0CDA               	rrf	___fltol@f1+2,f
  1536  0FCA  0CD9               	rrf	___fltol@f1+1,f
  1537  0FCB  0CD8               	rrf	___fltol@f1,f
  1538  0FCC  3EFF               	addlw	-1
  1539  0FCD  1D03               	skipz
  1540  0FCE  2FC7               	goto	u1445
  1541  0FCF  3001               	movlw	1
  1542  0FD0  00DC               	movwf	??___fltol
  1543  0FD1  085C               	movf	??___fltol,w
  1544  0FD2  07E2               	addwf	___fltol@exp1,f
  1545  0FD3  1D03               	btfss	3,2
  1546  0FD4  2FD6               	goto	u1451
  1547  0FD5  2FD7               	goto	u1450
  1548  0FD6                     u1451:
  1549  0FD6  2FC6               	goto	l1385
  1550  0FD7                     u1450:
  1551  0FD7  2FEF               	goto	l1395
  1552  0FD8                     l1387:
  1553  0FD8  3020               	movlw	32
  1554  0FD9  0262               	subwf	___fltol@exp1,w
  1555  0FDA  1C03               	skipc
  1556  0FDB  2FDD               	goto	u1461
  1557  0FDC  2FDE               	goto	u1460
  1558  0FDD                     u1461:
  1559  0FDD  2FEA               	goto	l372
  1560  0FDE                     u1460:
  1561  0FDE  2F91               	goto	l1365
  1562  0FDF                     l1393:
  1563  0FDF  3001               	movlw	1
  1564  0FE0  00DC               	movwf	??___fltol
  1565  0FE1                     u1475:
  1566  0FE1  1003               	clrc
  1567  0FE2  0DD8               	rlf	___fltol@f1,f
  1568  0FE3  0DD9               	rlf	___fltol@f1+1,f
  1569  0FE4  0DDA               	rlf	___fltol@f1+2,f
  1570  0FE5  0DDB               	rlf	___fltol@f1+3,f
  1571  0FE6  0BDC               	decfsz	??___fltol,f
  1572  0FE7  2FE1               	goto	u1475
  1573  0FE8  3001               	movlw	1
  1574  0FE9  02E2               	subwf	___fltol@exp1,f
  1575  0FEA                     l372:
  1576  0FEA  0862               	movf	___fltol@exp1,w
  1577  0FEB  1D03               	btfss	3,2
  1578  0FEC  2FEE               	goto	u1481
  1579  0FED  2FEF               	goto	u1480
  1580  0FEE                     u1481:
  1581  0FEE  2FDF               	goto	l1393
  1582  0FEF                     u1480:
  1583  0FEF                     l1395:
  1584  0FEF  0861               	movf	___fltol@sign1,w
  1585  0FF0  1903               	btfsc	3,2
  1586  0FF1  2FF3               	goto	u1491
  1587  0FF2  2FF4               	goto	u1490
  1588  0FF3                     u1491:
  1589  0FF3  2FFF               	goto	l375
  1590  0FF4                     u1490:
  1591  0FF4                     l1397:
  1592  0FF4  09D8               	comf	___fltol@f1,f
  1593  0FF5  09D9               	comf	___fltol@f1+1,f
  1594  0FF6  09DA               	comf	___fltol@f1+2,f
  1595  0FF7  09DB               	comf	___fltol@f1+3,f
  1596  0FF8  0AD8               	incf	___fltol@f1,f
  1597  0FF9  1903               	skipnz
  1598  0FFA  0AD9               	incf	___fltol@f1+1,f
  1599  0FFB  1903               	skipnz
  1600  0FFC  0ADA               	incf	___fltol@f1+2,f
  1601  0FFD  1903               	skipnz
  1602  0FFE  0ADB               	incf	___fltol@f1+3,f
  1603  0FFF                     l375:
  1604  0FFF                     l365:
  1605  0FFF  0008               	return
  1606  1000                     __end_of___fltol:
  1607                           
  1608                           	psect	text5
  1609  001C                     __ptext5:	
  1610 ;; *************** function ___flmul *****************
  1611 ;; Defined at:
  1612 ;;		line 8 in file "C:\Program Files\Microchip\xc8\v2.31\pic\sources\c90\common\sprcmul.c"
  1613 ;; Parameters:    Size  Location     Type
  1614 ;;  b               4   10[BANK0 ] long 
  1615 ;;  a               4   14[BANK0 ] long 
  1616 ;; Auto vars:     Size  Location     Type
  1617 ;;  prod            4   30[BANK0 ] struct .
  1618 ;;  grs             4   24[BANK0 ] unsigned long 
  1619 ;;  temp            2   34[BANK0 ] struct .
  1620 ;;  bexp            1   29[BANK0 ] unsigned char 
  1621 ;;  aexp            1   28[BANK0 ] unsigned char 
  1622 ;;  sign            1   23[BANK0 ] unsigned char 
  1623 ;; Return value:  Size  Location     Type
  1624 ;;                  4   10[BANK0 ] unsigned char 
  1625 ;; Registers used:
  1626 ;;		wreg, status,2, status,0, btemp+1, pclath, cstack
  1627 ;; Tracked objects:
  1628 ;;		On entry : 0/0
  1629 ;;		On exit  : 0/0
  1630 ;;		Unchanged: 0/0
  1631 ;; Data sizes:     COMMON   BANK0   BANK1   BANK3   BANK2
  1632 ;;      Params:         0       8       0       0       0
  1633 ;;      Locals:         0      13       0       0       0
  1634 ;;      Temps:          0       5       0       0       0
  1635 ;;      Totals:         0      26       0       0       0
  1636 ;;Total ram usage:       26 bytes
  1637 ;; Hardware stack levels used:    1
  1638 ;; Hardware stack levels required when called:    2
  1639 ;; This function calls:
  1640 ;;		__Umul8_16
  1641 ;; This function is called by:
  1642 ;;		_canales
  1643 ;; This function uses a non-reentrant model
  1644 ;;
  1645                           
  1646                           
  1647                           ;psect for function ___flmul
  1648  001C                     ___flmul:
  1649  001C                     l1593:	
  1650                           ;incstack = 0
  1651                           ; Regs used in ___flmul: [wreg+status,2+status,0+btemp+1+pclath+cstack]
  1652                           
  1653  001C  1283               	bcf	3,5	;RP0=0, select bank0
  1654  001D  1303               	bcf	3,6	;RP1=0, select bank0
  1655  001E  082D               	movf	___flmul@b+3,w
  1656  001F  3980               	andlw	128
  1657  0020  00B2               	movwf	??___flmul
  1658  0021  0832               	movf	??___flmul,w
  1659  0022  00B7               	movwf	___flmul@sign
  1660  0023                     l1595:
  1661  0023  082D               	movf	___flmul@b+3,w
  1662  0024  00B2               	movwf	??___flmul
  1663  0025  0732               	addwf	??___flmul,w
  1664  0026  00B3               	movwf	??___flmul+1
  1665  0027  0833               	movf	??___flmul+1,w
  1666  0028  00BD               	movwf	___flmul@bexp
  1667  0029                     l1597:
  1668  0029  1FAC               	btfss	___flmul@b+2,7
  1669  002A  282C               	goto	u1961
  1670  002B  282D               	goto	u1960
  1671  002C                     u1961:
  1672  002C  282E               	goto	l1601
  1673  002D                     u1960:
  1674  002D                     l1599:
  1675  002D  143D               	bsf	___flmul@bexp,0
  1676  002E                     l1601:
  1677  002E  083D               	movf	___flmul@bexp,w
  1678  002F  1903               	btfsc	3,2
  1679  0030  2832               	goto	u1971
  1680  0031  2833               	goto	u1970
  1681  0032                     u1971:
  1682  0032  2842               	goto	l1609
  1683  0033                     u1970:
  1684  0033                     l1603:
  1685  0033  0A3D               	incf	___flmul@bexp,w
  1686  0034  1D03               	btfss	3,2
  1687  0035  2837               	goto	u1981
  1688  0036  2838               	goto	u1980
  1689  0037                     u1981:
  1690  0037  2840               	goto	l1607
  1691  0038                     u1980:
  1692  0038                     l1605:
  1693  0038  3000               	movlw	0
  1694  0039  00AD               	movwf	___flmul@b+3
  1695  003A  3000               	movlw	0
  1696  003B  00AC               	movwf	___flmul@b+2
  1697  003C  3000               	movlw	0
  1698  003D  00AB               	movwf	___flmul@b+1
  1699  003E  3000               	movlw	0
  1700  003F  00AA               	movwf	___flmul@b
  1701  0040                     l1607:
  1702  0040  17AC               	bsf	___flmul@b+2,7
  1703  0041  284A               	goto	l1611
  1704  0042                     l1609:
  1705  0042  3000               	movlw	0
  1706  0043  00AD               	movwf	___flmul@b+3
  1707  0044  3000               	movlw	0
  1708  0045  00AC               	movwf	___flmul@b+2
  1709  0046  3000               	movlw	0
  1710  0047  00AB               	movwf	___flmul@b+1
  1711  0048  3000               	movlw	0
  1712  0049  00AA               	movwf	___flmul@b
  1713  004A                     l1611:
  1714  004A  0831               	movf	___flmul@a+3,w
  1715  004B  3980               	andlw	128
  1716  004C  00B2               	movwf	??___flmul
  1717  004D  0832               	movf	??___flmul,w
  1718  004E  06B7               	xorwf	___flmul@sign,f
  1719  004F                     l1613:
  1720  004F  0831               	movf	___flmul@a+3,w
  1721  0050  00B2               	movwf	??___flmul
  1722  0051  0732               	addwf	??___flmul,w
  1723  0052  00B3               	movwf	??___flmul+1
  1724  0053  0833               	movf	??___flmul+1,w
  1725  0054  00BC               	movwf	___flmul@aexp
  1726  0055                     l1615:
  1727  0055  1FB0               	btfss	___flmul@a+2,7
  1728  0056  2858               	goto	u1991
  1729  0057  2859               	goto	u1990
  1730  0058                     u1991:
  1731  0058  285A               	goto	l1619
  1732  0059                     u1990:
  1733  0059                     l1617:
  1734  0059  143C               	bsf	___flmul@aexp,0
  1735  005A                     l1619:
  1736  005A  083C               	movf	___flmul@aexp,w
  1737  005B  1903               	btfsc	3,2
  1738  005C  285E               	goto	u2001
  1739  005D  285F               	goto	u2000
  1740  005E                     u2001:
  1741  005E  286E               	goto	l1627
  1742  005F                     u2000:
  1743  005F                     l1621:
  1744  005F  0A3C               	incf	___flmul@aexp,w
  1745  0060  1D03               	btfss	3,2
  1746  0061  2863               	goto	u2011
  1747  0062  2864               	goto	u2010
  1748  0063                     u2011:
  1749  0063  286C               	goto	l1625
  1750  0064                     u2010:
  1751  0064                     l1623:
  1752  0064  3000               	movlw	0
  1753  0065  00B1               	movwf	___flmul@a+3
  1754  0066  3000               	movlw	0
  1755  0067  00B0               	movwf	___flmul@a+2
  1756  0068  3000               	movlw	0
  1757  0069  00AF               	movwf	___flmul@a+1
  1758  006A  3000               	movlw	0
  1759  006B  00AE               	movwf	___flmul@a
  1760  006C                     l1625:
  1761  006C  17B0               	bsf	___flmul@a+2,7
  1762  006D  2876               	goto	l1629
  1763  006E                     l1627:
  1764  006E  3000               	movlw	0
  1765  006F  00B1               	movwf	___flmul@a+3
  1766  0070  3000               	movlw	0
  1767  0071  00B0               	movwf	___flmul@a+2
  1768  0072  3000               	movlw	0
  1769  0073  00AF               	movwf	___flmul@a+1
  1770  0074  3000               	movlw	0
  1771  0075  00AE               	movwf	___flmul@a
  1772  0076                     l1629:
  1773  0076  083C               	movf	___flmul@aexp,w
  1774  0077  1903               	btfsc	3,2
  1775  0078  287A               	goto	u2021
  1776  0079  287B               	goto	u2020
  1777  007A                     u2021:
  1778  007A  2880               	goto	l1633
  1779  007B                     u2020:
  1780  007B                     l1631:
  1781  007B  083D               	movf	___flmul@bexp,w
  1782  007C  1D03               	btfss	3,2
  1783  007D  287F               	goto	u2031
  1784  007E  2880               	goto	u2030
  1785  007F                     u2031:
  1786  007F  2889               	goto	l1637
  1787  0080                     u2030:
  1788  0080                     l1633:
  1789  0080  3000               	movlw	0
  1790  0081  00AD               	movwf	?___flmul+3
  1791  0082  3000               	movlw	0
  1792  0083  00AC               	movwf	?___flmul+2
  1793  0084  3000               	movlw	0
  1794  0085  00AB               	movwf	?___flmul+1
  1795  0086  3000               	movlw	0
  1796  0087  00AA               	movwf	?___flmul
  1797  0088  2B7C               	goto	l568
  1798  0089                     l1637:
  1799  0089  082A               	movf	___flmul@b,w
  1800  008A  00B2               	movwf	??___flmul
  1801  008B  0832               	movf	??___flmul,w
  1802  008C  00F3               	movwf	__Umul8_16@multiplicand
  1803  008D  0830               	movf	___flmul@a+2,w
  1804  008E  120A  158A  267D  120A  118A  	fcall	__Umul8_16
  1805  0093  0874               	movf	?__Umul8_16+1,w
  1806  0094  1283               	bcf	3,5	;RP0=0, select bank0
  1807  0095  1303               	bcf	3,6	;RP1=0, select bank0
  1808  0096  00C3               	movwf	___flmul@temp+1
  1809  0097  0873               	movf	?__Umul8_16,w
  1810  0098  00C2               	movwf	___flmul@temp
  1811  0099                     l1639:
  1812  0099  0842               	movf	___flmul@temp,w
  1813  009A  00B2               	movwf	??___flmul
  1814  009B  01B3               	clrf	??___flmul+1
  1815  009C  01B4               	clrf	??___flmul+2
  1816  009D  01B5               	clrf	??___flmul+3
  1817  009E  0835               	movf	??___flmul+3,w
  1818  009F  00BB               	movwf	___flmul@grs+3
  1819  00A0  0834               	movf	??___flmul+2,w
  1820  00A1  00BA               	movwf	___flmul@grs+2
  1821  00A2  0833               	movf	??___flmul+1,w
  1822  00A3  00B9               	movwf	___flmul@grs+1
  1823  00A4  0832               	movf	??___flmul,w
  1824  00A5  00B8               	movwf	___flmul@grs
  1825  00A6                     l1641:
  1826  00A6  0843               	movf	___flmul@temp+1,w
  1827  00A7  00B2               	movwf	??___flmul
  1828  00A8  01B3               	clrf	??___flmul+1
  1829  00A9  01B4               	clrf	??___flmul+2
  1830  00AA  01B5               	clrf	??___flmul+3
  1831  00AB  0835               	movf	??___flmul+3,w
  1832  00AC  00C1               	movwf	___flmul@prod+3
  1833  00AD  0834               	movf	??___flmul+2,w
  1834  00AE  00C0               	movwf	___flmul@prod+2
  1835  00AF  0833               	movf	??___flmul+1,w
  1836  00B0  00BF               	movwf	___flmul@prod+1
  1837  00B1  0832               	movf	??___flmul,w
  1838  00B2  00BE               	movwf	___flmul@prod
  1839  00B3  082B               	movf	___flmul@b+1,w
  1840  00B4  00B2               	movwf	??___flmul
  1841  00B5  0832               	movf	??___flmul,w
  1842  00B6  00F3               	movwf	__Umul8_16@multiplicand
  1843  00B7  082F               	movf	___flmul@a+1,w
  1844  00B8  120A  158A  267D  120A  118A  	fcall	__Umul8_16
  1845  00BD  0874               	movf	?__Umul8_16+1,w
  1846  00BE  1283               	bcf	3,5	;RP0=0, select bank0
  1847  00BF  1303               	bcf	3,6	;RP1=0, select bank0
  1848  00C0  00C3               	movwf	___flmul@temp+1
  1849  00C1  0873               	movf	?__Umul8_16,w
  1850  00C2  00C2               	movwf	___flmul@temp
  1851  00C3                     l1643:
  1852  00C3  0842               	movf	___flmul@temp,w
  1853  00C4  00B2               	movwf	??___flmul
  1854  00C5  01B3               	clrf	??___flmul+1
  1855  00C6  01B4               	clrf	??___flmul+2
  1856  00C7  01B5               	clrf	??___flmul+3
  1857  00C8  0832               	movf	??___flmul,w
  1858  00C9  07B8               	addwf	___flmul@grs,f
  1859  00CA  0833               	movf	??___flmul+1,w
  1860  00CB  1103               	clrz
  1861  00CC  1803               	skipnc
  1862  00CD  3E01               	addlw	1
  1863  00CE  1903               	skipnz
  1864  00CF  28D1               	goto	u2041
  1865  00D0  07B9               	addwf	___flmul@grs+1,f
  1866  00D1                     u2041:
  1867  00D1  0834               	movf	??___flmul+2,w
  1868  00D2  1103               	clrz
  1869  00D3  1803               	skipnc
  1870  00D4  3E01               	addlw	1
  1871  00D5  1903               	skipnz
  1872  00D6  28D8               	goto	u2042
  1873  00D7  07BA               	addwf	___flmul@grs+2,f
  1874  00D8                     u2042:
  1875  00D8  0835               	movf	??___flmul+3,w
  1876  00D9  1103               	clrz
  1877  00DA  1803               	skipnc
  1878  00DB  3E01               	addlw	1
  1879  00DC  1903               	skipnz
  1880  00DD  28DF               	goto	u2043
  1881  00DE  07BB               	addwf	___flmul@grs+3,f
  1882  00DF                     u2043:
  1883  00DF                     l1645:
  1884  00DF  0843               	movf	___flmul@temp+1,w
  1885  00E0  00B2               	movwf	??___flmul
  1886  00E1  01B3               	clrf	??___flmul+1
  1887  00E2  01B4               	clrf	??___flmul+2
  1888  00E3  01B5               	clrf	??___flmul+3
  1889  00E4  0832               	movf	??___flmul,w
  1890  00E5  07BE               	addwf	___flmul@prod,f
  1891  00E6  0833               	movf	??___flmul+1,w
  1892  00E7  1103               	clrz
  1893  00E8  1803               	skipnc
  1894  00E9  3E01               	addlw	1
  1895  00EA  1903               	skipnz
  1896  00EB  28ED               	goto	u2051
  1897  00EC  07BF               	addwf	___flmul@prod+1,f
  1898  00ED                     u2051:
  1899  00ED  0834               	movf	??___flmul+2,w
  1900  00EE  1103               	clrz
  1901  00EF  1803               	skipnc
  1902  00F0  3E01               	addlw	1
  1903  00F1  1903               	skipnz
  1904  00F2  28F4               	goto	u2052
  1905  00F3  07C0               	addwf	___flmul@prod+2,f
  1906  00F4                     u2052:
  1907  00F4  0835               	movf	??___flmul+3,w
  1908  00F5  1103               	clrz
  1909  00F6  1803               	skipnc
  1910  00F7  3E01               	addlw	1
  1911  00F8  1903               	skipnz
  1912  00F9  28FB               	goto	u2053
  1913  00FA  07C1               	addwf	___flmul@prod+3,f
  1914  00FB                     u2053:
  1915  00FB  082C               	movf	___flmul@b+2,w
  1916  00FC  00B2               	movwf	??___flmul
  1917  00FD  0832               	movf	??___flmul,w
  1918  00FE  00F3               	movwf	__Umul8_16@multiplicand
  1919  00FF  082E               	movf	___flmul@a,w
  1920  0100  120A  158A  267D  120A  118A  	fcall	__Umul8_16
  1921  0105  0874               	movf	?__Umul8_16+1,w
  1922  0106  1283               	bcf	3,5	;RP0=0, select bank0
  1923  0107  1303               	bcf	3,6	;RP1=0, select bank0
  1924  0108  00C3               	movwf	___flmul@temp+1
  1925  0109  0873               	movf	?__Umul8_16,w
  1926  010A  00C2               	movwf	___flmul@temp
  1927  010B                     l1647:
  1928  010B  0842               	movf	___flmul@temp,w
  1929  010C  00B2               	movwf	??___flmul
  1930  010D  01B3               	clrf	??___flmul+1
  1931  010E  01B4               	clrf	??___flmul+2
  1932  010F  01B5               	clrf	??___flmul+3
  1933  0110  0832               	movf	??___flmul,w
  1934  0111  07B8               	addwf	___flmul@grs,f
  1935  0112  0833               	movf	??___flmul+1,w
  1936  0113  1103               	clrz
  1937  0114  1803               	skipnc
  1938  0115  3E01               	addlw	1
  1939  0116  1903               	skipnz
  1940  0117  2919               	goto	u2061
  1941  0118  07B9               	addwf	___flmul@grs+1,f
  1942  0119                     u2061:
  1943  0119  0834               	movf	??___flmul+2,w
  1944  011A  1103               	clrz
  1945  011B  1803               	skipnc
  1946  011C  3E01               	addlw	1
  1947  011D  1903               	skipnz
  1948  011E  2920               	goto	u2062
  1949  011F  07BA               	addwf	___flmul@grs+2,f
  1950  0120                     u2062:
  1951  0120  0835               	movf	??___flmul+3,w
  1952  0121  1103               	clrz
  1953  0122  1803               	skipnc
  1954  0123  3E01               	addlw	1
  1955  0124  1903               	skipnz
  1956  0125  2927               	goto	u2063
  1957  0126  07BB               	addwf	___flmul@grs+3,f
  1958  0127                     u2063:
  1959  0127                     l1649:
  1960  0127  0843               	movf	___flmul@temp+1,w
  1961  0128  00B2               	movwf	??___flmul
  1962  0129  01B3               	clrf	??___flmul+1
  1963  012A  01B4               	clrf	??___flmul+2
  1964  012B  01B5               	clrf	??___flmul+3
  1965  012C  0832               	movf	??___flmul,w
  1966  012D  07BE               	addwf	___flmul@prod,f
  1967  012E  0833               	movf	??___flmul+1,w
  1968  012F  1103               	clrz
  1969  0130  1803               	skipnc
  1970  0131  3E01               	addlw	1
  1971  0132  1903               	skipnz
  1972  0133  2935               	goto	u2071
  1973  0134  07BF               	addwf	___flmul@prod+1,f
  1974  0135                     u2071:
  1975  0135  0834               	movf	??___flmul+2,w
  1976  0136  1103               	clrz
  1977  0137  1803               	skipnc
  1978  0138  3E01               	addlw	1
  1979  0139  1903               	skipnz
  1980  013A  293C               	goto	u2072
  1981  013B  07C0               	addwf	___flmul@prod+2,f
  1982  013C                     u2072:
  1983  013C  0835               	movf	??___flmul+3,w
  1984  013D  1103               	clrz
  1985  013E  1803               	skipnc
  1986  013F  3E01               	addlw	1
  1987  0140  1903               	skipnz
  1988  0141  2943               	goto	u2073
  1989  0142  07C1               	addwf	___flmul@prod+3,f
  1990  0143                     u2073:
  1991  0143                     l1651:
  1992  0143  3008               	movlw	8
  1993  0144  00B2               	movwf	??___flmul
  1994  0145                     u2085:
  1995  0145  1003               	clrc
  1996  0146  0DB8               	rlf	___flmul@grs,f
  1997  0147  0DB9               	rlf	___flmul@grs+1,f
  1998  0148  0DBA               	rlf	___flmul@grs+2,f
  1999  0149  0DBB               	rlf	___flmul@grs+3,f
  2000  014A  0BB2               	decfsz	??___flmul,f
  2001  014B  2945               	goto	u2085
  2002  014C                     l1653:
  2003  014C  082B               	movf	___flmul@b+1,w
  2004  014D  00B2               	movwf	??___flmul
  2005  014E  0832               	movf	??___flmul,w
  2006  014F  00F3               	movwf	__Umul8_16@multiplicand
  2007  0150  082E               	movf	___flmul@a,w
  2008  0151  120A  158A  267D  120A  118A  	fcall	__Umul8_16
  2009  0156  0874               	movf	?__Umul8_16+1,w
  2010  0157  1283               	bcf	3,5	;RP0=0, select bank0
  2011  0158  1303               	bcf	3,6	;RP1=0, select bank0
  2012  0159  00C3               	movwf	___flmul@temp+1
  2013  015A  0873               	movf	?__Umul8_16,w
  2014  015B  00C2               	movwf	___flmul@temp
  2015  015C                     l1655:
  2016  015C  0842               	movf	___flmul@temp,w
  2017  015D  00B2               	movwf	??___flmul
  2018  015E  0843               	movf	___flmul@temp+1,w
  2019  015F  00B3               	movwf	??___flmul+1
  2020  0160  01B4               	clrf	??___flmul+2
  2021  0161  01B5               	clrf	??___flmul+3
  2022  0162  0832               	movf	??___flmul,w
  2023  0163  07B8               	addwf	___flmul@grs,f
  2024  0164  0833               	movf	??___flmul+1,w
  2025  0165  1103               	clrz
  2026  0166  1803               	skipnc
  2027  0167  3E01               	addlw	1
  2028  0168  1903               	skipnz
  2029  0169  296B               	goto	u2091
  2030  016A  07B9               	addwf	___flmul@grs+1,f
  2031  016B                     u2091:
  2032  016B  0834               	movf	??___flmul+2,w
  2033  016C  1103               	clrz
  2034  016D  1803               	skipnc
  2035  016E  3E01               	addlw	1
  2036  016F  1903               	skipnz
  2037  0170  2972               	goto	u2092
  2038  0171  07BA               	addwf	___flmul@grs+2,f
  2039  0172                     u2092:
  2040  0172  0835               	movf	??___flmul+3,w
  2041  0173  1103               	clrz
  2042  0174  1803               	skipnc
  2043  0175  3E01               	addlw	1
  2044  0176  1903               	skipnz
  2045  0177  2979               	goto	u2093
  2046  0178  07BB               	addwf	___flmul@grs+3,f
  2047  0179                     u2093:
  2048  0179                     l1657:
  2049  0179  082A               	movf	___flmul@b,w
  2050  017A  00B2               	movwf	??___flmul
  2051  017B  0832               	movf	??___flmul,w
  2052  017C  00F3               	movwf	__Umul8_16@multiplicand
  2053  017D  082F               	movf	___flmul@a+1,w
  2054  017E  120A  158A  267D  120A  118A  	fcall	__Umul8_16
  2055  0183  0874               	movf	?__Umul8_16+1,w
  2056  0184  1283               	bcf	3,5	;RP0=0, select bank0
  2057  0185  1303               	bcf	3,6	;RP1=0, select bank0
  2058  0186  00C3               	movwf	___flmul@temp+1
  2059  0187  0873               	movf	?__Umul8_16,w
  2060  0188  00C2               	movwf	___flmul@temp
  2061  0189                     l1659:
  2062  0189  0842               	movf	___flmul@temp,w
  2063  018A  00B2               	movwf	??___flmul
  2064  018B  0843               	movf	___flmul@temp+1,w
  2065  018C  00B3               	movwf	??___flmul+1
  2066  018D  01B4               	clrf	??___flmul+2
  2067  018E  01B5               	clrf	??___flmul+3
  2068  018F  0832               	movf	??___flmul,w
  2069  0190  07B8               	addwf	___flmul@grs,f
  2070  0191  0833               	movf	??___flmul+1,w
  2071  0192  1103               	clrz
  2072  0193  1803               	skipnc
  2073  0194  3E01               	addlw	1
  2074  0195  1903               	skipnz
  2075  0196  2998               	goto	u2101
  2076  0197  07B9               	addwf	___flmul@grs+1,f
  2077  0198                     u2101:
  2078  0198  0834               	movf	??___flmul+2,w
  2079  0199  1103               	clrz
  2080  019A  1803               	skipnc
  2081  019B  3E01               	addlw	1
  2082  019C  1903               	skipnz
  2083  019D  299F               	goto	u2102
  2084  019E  07BA               	addwf	___flmul@grs+2,f
  2085  019F                     u2102:
  2086  019F  0835               	movf	??___flmul+3,w
  2087  01A0  1103               	clrz
  2088  01A1  1803               	skipnc
  2089  01A2  3E01               	addlw	1
  2090  01A3  1903               	skipnz
  2091  01A4  29A6               	goto	u2103
  2092  01A5  07BB               	addwf	___flmul@grs+3,f
  2093  01A6                     u2103:
  2094  01A6                     l1661:
  2095  01A6  3008               	movlw	8
  2096  01A7  00B2               	movwf	??___flmul
  2097  01A8                     u2115:
  2098  01A8  1003               	clrc
  2099  01A9  0DB8               	rlf	___flmul@grs,f
  2100  01AA  0DB9               	rlf	___flmul@grs+1,f
  2101  01AB  0DBA               	rlf	___flmul@grs+2,f
  2102  01AC  0DBB               	rlf	___flmul@grs+3,f
  2103  01AD  0BB2               	decfsz	??___flmul,f
  2104  01AE  29A8               	goto	u2115
  2105  01AF  082A               	movf	___flmul@b,w
  2106  01B0  00B2               	movwf	??___flmul
  2107  01B1  0832               	movf	??___flmul,w
  2108  01B2  00F3               	movwf	__Umul8_16@multiplicand
  2109  01B3  082E               	movf	___flmul@a,w
  2110  01B4  120A  158A  267D  120A  118A  	fcall	__Umul8_16
  2111  01B9  0874               	movf	?__Umul8_16+1,w
  2112  01BA  1283               	bcf	3,5	;RP0=0, select bank0
  2113  01BB  1303               	bcf	3,6	;RP1=0, select bank0
  2114  01BC  00C3               	movwf	___flmul@temp+1
  2115  01BD  0873               	movf	?__Umul8_16,w
  2116  01BE  00C2               	movwf	___flmul@temp
  2117  01BF                     l1663:
  2118  01BF  0842               	movf	___flmul@temp,w
  2119  01C0  00B2               	movwf	??___flmul
  2120  01C1  0843               	movf	___flmul@temp+1,w
  2121  01C2  00B3               	movwf	??___flmul+1
  2122  01C3  01B4               	clrf	??___flmul+2
  2123  01C4  01B5               	clrf	??___flmul+3
  2124  01C5  0832               	movf	??___flmul,w
  2125  01C6  07B8               	addwf	___flmul@grs,f
  2126  01C7  0833               	movf	??___flmul+1,w
  2127  01C8  1103               	clrz
  2128  01C9  1803               	skipnc
  2129  01CA  3E01               	addlw	1
  2130  01CB  1903               	skipnz
  2131  01CC  29CE               	goto	u2121
  2132  01CD  07B9               	addwf	___flmul@grs+1,f
  2133  01CE                     u2121:
  2134  01CE  0834               	movf	??___flmul+2,w
  2135  01CF  1103               	clrz
  2136  01D0  1803               	skipnc
  2137  01D1  3E01               	addlw	1
  2138  01D2  1903               	skipnz
  2139  01D3  29D5               	goto	u2122
  2140  01D4  07BA               	addwf	___flmul@grs+2,f
  2141  01D5                     u2122:
  2142  01D5  0835               	movf	??___flmul+3,w
  2143  01D6  1103               	clrz
  2144  01D7  1803               	skipnc
  2145  01D8  3E01               	addlw	1
  2146  01D9  1903               	skipnz
  2147  01DA  29DC               	goto	u2123
  2148  01DB  07BB               	addwf	___flmul@grs+3,f
  2149  01DC                     u2123:
  2150  01DC                     l1665:
  2151  01DC  082B               	movf	___flmul@b+1,w
  2152  01DD  00B2               	movwf	??___flmul
  2153  01DE  0832               	movf	??___flmul,w
  2154  01DF  00F3               	movwf	__Umul8_16@multiplicand
  2155  01E0  0830               	movf	___flmul@a+2,w
  2156  01E1  120A  158A  267D  120A  118A  	fcall	__Umul8_16
  2157  01E6  0874               	movf	?__Umul8_16+1,w
  2158  01E7  1283               	bcf	3,5	;RP0=0, select bank0
  2159  01E8  1303               	bcf	3,6	;RP1=0, select bank0
  2160  01E9  00C3               	movwf	___flmul@temp+1
  2161  01EA  0873               	movf	?__Umul8_16,w
  2162  01EB  00C2               	movwf	___flmul@temp
  2163  01EC  0842               	movf	___flmul@temp,w
  2164  01ED  00B2               	movwf	??___flmul
  2165  01EE  0843               	movf	___flmul@temp+1,w
  2166  01EF  00B3               	movwf	??___flmul+1
  2167  01F0  01B4               	clrf	??___flmul+2
  2168  01F1  01B5               	clrf	??___flmul+3
  2169  01F2  0832               	movf	??___flmul,w
  2170  01F3  07BE               	addwf	___flmul@prod,f
  2171  01F4  0833               	movf	??___flmul+1,w
  2172  01F5  1103               	clrz
  2173  01F6  1803               	skipnc
  2174  01F7  3E01               	addlw	1
  2175  01F8  1903               	skipnz
  2176  01F9  29FB               	goto	u2131
  2177  01FA  07BF               	addwf	___flmul@prod+1,f
  2178  01FB                     u2131:
  2179  01FB  0834               	movf	??___flmul+2,w
  2180  01FC  1103               	clrz
  2181  01FD  1803               	skipnc
  2182  01FE  3E01               	addlw	1
  2183  01FF  1903               	skipnz
  2184  0200  2A02               	goto	u2132
  2185  0201  07C0               	addwf	___flmul@prod+2,f
  2186  0202                     u2132:
  2187  0202  0835               	movf	??___flmul+3,w
  2188  0203  1103               	clrz
  2189  0204  1803               	skipnc
  2190  0205  3E01               	addlw	1
  2191  0206  1903               	skipnz
  2192  0207  2A09               	goto	u2133
  2193  0208  07C1               	addwf	___flmul@prod+3,f
  2194  0209                     u2133:
  2195  0209                     l1667:
  2196  0209  082C               	movf	___flmul@b+2,w
  2197  020A  00B2               	movwf	??___flmul
  2198  020B  0832               	movf	??___flmul,w
  2199  020C  00F3               	movwf	__Umul8_16@multiplicand
  2200  020D  082F               	movf	___flmul@a+1,w
  2201  020E  120A  158A  267D  120A  118A  	fcall	__Umul8_16
  2202  0213  0874               	movf	?__Umul8_16+1,w
  2203  0214  1283               	bcf	3,5	;RP0=0, select bank0
  2204  0215  1303               	bcf	3,6	;RP1=0, select bank0
  2205  0216  00C3               	movwf	___flmul@temp+1
  2206  0217  0873               	movf	?__Umul8_16,w
  2207  0218  00C2               	movwf	___flmul@temp
  2208  0219                     l1669:
  2209  0219  0842               	movf	___flmul@temp,w
  2210  021A  00B2               	movwf	??___flmul
  2211  021B  0843               	movf	___flmul@temp+1,w
  2212  021C  00B3               	movwf	??___flmul+1
  2213  021D  01B4               	clrf	??___flmul+2
  2214  021E  01B5               	clrf	??___flmul+3
  2215  021F  0832               	movf	??___flmul,w
  2216  0220  07BE               	addwf	___flmul@prod,f
  2217  0221  0833               	movf	??___flmul+1,w
  2218  0222  1103               	clrz
  2219  0223  1803               	skipnc
  2220  0224  3E01               	addlw	1
  2221  0225  1903               	skipnz
  2222  0226  2A28               	goto	u2141
  2223  0227  07BF               	addwf	___flmul@prod+1,f
  2224  0228                     u2141:
  2225  0228  0834               	movf	??___flmul+2,w
  2226  0229  1103               	clrz
  2227  022A  1803               	skipnc
  2228  022B  3E01               	addlw	1
  2229  022C  1903               	skipnz
  2230  022D  2A2F               	goto	u2142
  2231  022E  07C0               	addwf	___flmul@prod+2,f
  2232  022F                     u2142:
  2233  022F  0835               	movf	??___flmul+3,w
  2234  0230  1103               	clrz
  2235  0231  1803               	skipnc
  2236  0232  3E01               	addlw	1
  2237  0233  1903               	skipnz
  2238  0234  2A36               	goto	u2143
  2239  0235  07C1               	addwf	___flmul@prod+3,f
  2240  0236                     u2143:
  2241  0236  082C               	movf	___flmul@b+2,w
  2242  0237  00B2               	movwf	??___flmul
  2243  0238  0832               	movf	??___flmul,w
  2244  0239  00F3               	movwf	__Umul8_16@multiplicand
  2245  023A  0830               	movf	___flmul@a+2,w
  2246  023B  120A  158A  267D  120A  118A  	fcall	__Umul8_16
  2247  0240  0874               	movf	?__Umul8_16+1,w
  2248  0241  1283               	bcf	3,5	;RP0=0, select bank0
  2249  0242  1303               	bcf	3,6	;RP1=0, select bank0
  2250  0243  00C3               	movwf	___flmul@temp+1
  2251  0244  0873               	movf	?__Umul8_16,w
  2252  0245  00C2               	movwf	___flmul@temp
  2253  0246                     l1671:
  2254  0246  0842               	movf	___flmul@temp,w
  2255  0247  00B2               	movwf	??___flmul
  2256  0248  0843               	movf	___flmul@temp+1,w
  2257  0249  00B3               	movwf	??___flmul+1
  2258  024A  01B4               	clrf	??___flmul+2
  2259  024B  01B5               	clrf	??___flmul+3
  2260  024C  3008               	movlw	8
  2261  024D                     u2155:
  2262  024D  1003               	clrc
  2263  024E  0DB2               	rlf	??___flmul,f
  2264  024F  0DB3               	rlf	??___flmul+1,f
  2265  0250  0DB4               	rlf	??___flmul+2,f
  2266  0251  0DB5               	rlf	??___flmul+3,f
  2267  0252                     u2150:
  2268  0252  3EFF               	addlw	-1
  2269  0253  1D03               	skipz
  2270  0254  2A4D               	goto	u2155
  2271  0255  0832               	movf	??___flmul,w
  2272  0256  07BE               	addwf	___flmul@prod,f
  2273  0257  0833               	movf	??___flmul+1,w
  2274  0258  1103               	clrz
  2275  0259  1803               	skipnc
  2276  025A  3E01               	addlw	1
  2277  025B  1903               	skipnz
  2278  025C  2A5E               	goto	u2161
  2279  025D  07BF               	addwf	___flmul@prod+1,f
  2280  025E                     u2161:
  2281  025E  0834               	movf	??___flmul+2,w
  2282  025F  1103               	clrz
  2283  0260  1803               	skipnc
  2284  0261  3E01               	addlw	1
  2285  0262  1903               	skipnz
  2286  0263  2A65               	goto	u2162
  2287  0264  07C0               	addwf	___flmul@prod+2,f
  2288  0265                     u2162:
  2289  0265  0835               	movf	??___flmul+3,w
  2290  0266  1103               	clrz
  2291  0267  1803               	skipnc
  2292  0268  3E01               	addlw	1
  2293  0269  1903               	skipnz
  2294  026A  2A6C               	goto	u2163
  2295  026B  07C1               	addwf	___flmul@prod+3,f
  2296  026C                     u2163:
  2297  026C                     l1673:
  2298  026C  0838               	movf	___flmul@grs,w
  2299  026D  00B2               	movwf	??___flmul
  2300  026E  0839               	movf	___flmul@grs+1,w
  2301  026F  00B3               	movwf	??___flmul+1
  2302  0270  083A               	movf	___flmul@grs+2,w
  2303  0271  00B4               	movwf	??___flmul+2
  2304  0272  083B               	movf	___flmul@grs+3,w
  2305  0273  00B5               	movwf	??___flmul+3
  2306  0274  3018               	movlw	24
  2307  0275                     u2175:
  2308  0275  1003               	clrc
  2309  0276  0CB5               	rrf	??___flmul+3,f
  2310  0277  0CB4               	rrf	??___flmul+2,f
  2311  0278  0CB3               	rrf	??___flmul+1,f
  2312  0279  0CB2               	rrf	??___flmul,f
  2313  027A                     u2170:
  2314  027A  3EFF               	addlw	-1
  2315  027B  1D03               	skipz
  2316  027C  2A75               	goto	u2175
  2317  027D  0832               	movf	??___flmul,w
  2318  027E  07BE               	addwf	___flmul@prod,f
  2319  027F  0833               	movf	??___flmul+1,w
  2320  0280  1103               	clrz
  2321  0281  1803               	skipnc
  2322  0282  3E01               	addlw	1
  2323  0283  1903               	skipnz
  2324  0284  2A86               	goto	u2181
  2325  0285  07BF               	addwf	___flmul@prod+1,f
  2326  0286                     u2181:
  2327  0286  0834               	movf	??___flmul+2,w
  2328  0287  1103               	clrz
  2329  0288  1803               	skipnc
  2330  0289  3E01               	addlw	1
  2331  028A  1903               	skipnz
  2332  028B  2A8D               	goto	u2182
  2333  028C  07C0               	addwf	___flmul@prod+2,f
  2334  028D                     u2182:
  2335  028D  0835               	movf	??___flmul+3,w
  2336  028E  1103               	clrz
  2337  028F  1803               	skipnc
  2338  0290  3E01               	addlw	1
  2339  0291  1903               	skipnz
  2340  0292  2A94               	goto	u2183
  2341  0293  07C1               	addwf	___flmul@prod+3,f
  2342  0294                     u2183:
  2343  0294                     l1675:
  2344  0294  3008               	movlw	8
  2345  0295  00B2               	movwf	??___flmul
  2346  0296                     u2195:
  2347  0296  1003               	clrc
  2348  0297  0DB8               	rlf	___flmul@grs,f
  2349  0298  0DB9               	rlf	___flmul@grs+1,f
  2350  0299  0DBA               	rlf	___flmul@grs+2,f
  2351  029A  0DBB               	rlf	___flmul@grs+3,f
  2352  029B  0BB2               	decfsz	??___flmul,f
  2353  029C  2A96               	goto	u2195
  2354  029D                     l1677:
  2355  029D  083D               	movf	___flmul@bexp,w
  2356  029E  073C               	addwf	___flmul@aexp,w
  2357  029F  00B2               	movwf	??___flmul
  2358  02A0  01B3               	clrf	??___flmul+1
  2359  02A1  0DB3               	rlf	??___flmul+1,f
  2360  02A2  0832               	movf	??___flmul,w
  2361  02A3  3E82               	addlw	130
  2362  02A4  00C2               	movwf	___flmul@temp
  2363  02A5  0833               	movf	??___flmul+1,w
  2364  02A6  1803               	skipnc
  2365  02A7  3E01               	addlw	1
  2366  02A8  3EFF               	addlw	255
  2367  02A9  00C3               	movwf	___flmul@temp+1
  2368  02AA  2AC8               	goto	l1689
  2369  02AB                     l1679:
  2370  02AB  3001               	movlw	1
  2371  02AC  00B2               	movwf	??___flmul
  2372  02AD                     u2205:
  2373  02AD  1003               	clrc
  2374  02AE  0DBE               	rlf	___flmul@prod,f
  2375  02AF  0DBF               	rlf	___flmul@prod+1,f
  2376  02B0  0DC0               	rlf	___flmul@prod+2,f
  2377  02B1  0DC1               	rlf	___flmul@prod+3,f
  2378  02B2  0BB2               	decfsz	??___flmul,f
  2379  02B3  2AAD               	goto	u2205
  2380  02B4                     l1681:
  2381  02B4  1FBB               	btfss	___flmul@grs+3,7
  2382  02B5  2AB7               	goto	u2211
  2383  02B6  2AB8               	goto	u2210
  2384  02B7                     u2211:
  2385  02B7  2AB9               	goto	l1685
  2386  02B8                     u2210:
  2387  02B8                     l1683:
  2388  02B8  143E               	bsf	___flmul@prod,0
  2389  02B9                     l1685:
  2390  02B9  3001               	movlw	1
  2391  02BA  00B2               	movwf	??___flmul
  2392  02BB                     u2225:
  2393  02BB  1003               	clrc
  2394  02BC  0DB8               	rlf	___flmul@grs,f
  2395  02BD  0DB9               	rlf	___flmul@grs+1,f
  2396  02BE  0DBA               	rlf	___flmul@grs+2,f
  2397  02BF  0DBB               	rlf	___flmul@grs+3,f
  2398  02C0  0BB2               	decfsz	??___flmul,f
  2399  02C1  2ABB               	goto	u2225
  2400  02C2                     l1687:
  2401  02C2  30FF               	movlw	255
  2402  02C3  07C2               	addwf	___flmul@temp,f
  2403  02C4  1803               	skipnc
  2404  02C5  0AC3               	incf	___flmul@temp+1,f
  2405  02C6  30FF               	movlw	255
  2406  02C7  07C3               	addwf	___flmul@temp+1,f
  2407  02C8                     l1689:
  2408  02C8  1FC0               	btfss	___flmul@prod+2,7
  2409  02C9  2ACB               	goto	u2231
  2410  02CA  2ACC               	goto	u2230
  2411  02CB                     u2231:
  2412  02CB  2AAB               	goto	l1679
  2413  02CC                     u2230:
  2414  02CC                     l1691:
  2415  02CC  01BC               	clrf	___flmul@aexp
  2416  02CD                     l1693:
  2417  02CD  1FBB               	btfss	___flmul@grs+3,7
  2418  02CE  2AD0               	goto	u2241
  2419  02CF  2AD1               	goto	u2240
  2420  02D0                     u2241:
  2421  02D0  2AED               	goto	l1701
  2422  02D1                     u2240:
  2423  02D1                     l1695:
  2424  02D1  30FF               	movlw	255
  2425  02D2  0538               	andwf	___flmul@grs,w
  2426  02D3  00B2               	movwf	??___flmul
  2427  02D4  30FF               	movlw	255
  2428  02D5  0539               	andwf	___flmul@grs+1,w
  2429  02D6  00B3               	movwf	??___flmul+1
  2430  02D7  30FF               	movlw	255
  2431  02D8  053A               	andwf	___flmul@grs+2,w
  2432  02D9  00B4               	movwf	??___flmul+2
  2433  02DA  307F               	movlw	127
  2434  02DB  053B               	andwf	___flmul@grs+3,w
  2435  02DC  00B5               	movwf	??___flmul+3
  2436  02DD  0835               	movf	??___flmul+3,w
  2437  02DE  0434               	iorwf	??___flmul+2,w
  2438  02DF  0433               	iorwf	??___flmul+1,w
  2439  02E0  0432               	iorwf	??___flmul,w
  2440  02E1  1903               	skipnz
  2441  02E2  2AE4               	goto	u2251
  2442  02E3  2AE5               	goto	u2250
  2443  02E4                     u2251:
  2444  02E4  2AE8               	goto	l574
  2445  02E5                     u2250:
  2446  02E5                     l1697:
  2447  02E5  01BC               	clrf	___flmul@aexp
  2448  02E6  0ABC               	incf	___flmul@aexp,f
  2449  02E7  2AED               	goto	l1701
  2450  02E8                     l574:
  2451  02E8  1C3E               	btfss	___flmul@prod,0
  2452  02E9  2AEB               	goto	u2261
  2453  02EA  2AEC               	goto	u2260
  2454  02EB                     u2261:
  2455  02EB  2AED               	goto	l1701
  2456  02EC                     u2260:
  2457  02EC  2AE5               	goto	l1697
  2458  02ED                     l1701:
  2459  02ED  083C               	movf	___flmul@aexp,w
  2460  02EE  1903               	btfsc	3,2
  2461  02EF  2AF1               	goto	u2271
  2462  02F0  2AF2               	goto	u2270
  2463  02F1                     u2271:
  2464  02F1  2B23               	goto	l1711
  2465  02F2                     u2270:
  2466  02F2                     l1703:
  2467  02F2  3001               	movlw	1
  2468  02F3  07BE               	addwf	___flmul@prod,f
  2469  02F4  3000               	movlw	0
  2470  02F5  1803               	skipnc
  2471  02F6  3001               	movlw	1
  2472  02F7  07BF               	addwf	___flmul@prod+1,f
  2473  02F8  3000               	movlw	0
  2474  02F9  1803               	skipnc
  2475  02FA  3001               	movlw	1
  2476  02FB  07C0               	addwf	___flmul@prod+2,f
  2477  02FC  3000               	movlw	0
  2478  02FD  1803               	skipnc
  2479  02FE  3001               	movlw	1
  2480  02FF  07C1               	addwf	___flmul@prod+3,f
  2481  0300                     l1705:
  2482  0300  1C41               	btfss	___flmul@prod+3,0
  2483  0301  2B03               	goto	u2281
  2484  0302  2B04               	goto	u2280
  2485  0303                     u2281:
  2486  0303  2B23               	goto	l1711
  2487  0304                     u2280:
  2488  0304                     l1707:
  2489  0304  083E               	movf	___flmul@prod,w
  2490  0305  00B2               	movwf	??___flmul
  2491  0306  083F               	movf	___flmul@prod+1,w
  2492  0307  00B3               	movwf	??___flmul+1
  2493  0308  0840               	movf	___flmul@prod+2,w
  2494  0309  00B4               	movwf	??___flmul+2
  2495  030A  0841               	movf	___flmul@prod+3,w
  2496  030B  00B5               	movwf	??___flmul+3
  2497  030C  3001               	movlw	1
  2498  030D  00B6               	movwf	??___flmul+4
  2499  030E                     u2295:
  2500  030E  0D35               	rlf	??___flmul+3,w
  2501  030F  0CB5               	rrf	??___flmul+3,f
  2502  0310  0CB4               	rrf	??___flmul+2,f
  2503  0311  0CB3               	rrf	??___flmul+1,f
  2504  0312  0CB2               	rrf	??___flmul,f
  2505  0313                     u2290:
  2506  0313  0BB6               	decfsz	??___flmul+4,f
  2507  0314  2B0E               	goto	u2295
  2508  0315  0835               	movf	??___flmul+3,w
  2509  0316  00C1               	movwf	___flmul@prod+3
  2510  0317  0834               	movf	??___flmul+2,w
  2511  0318  00C0               	movwf	___flmul@prod+2
  2512  0319  0833               	movf	??___flmul+1,w
  2513  031A  00BF               	movwf	___flmul@prod+1
  2514  031B  0832               	movf	??___flmul,w
  2515  031C  00BE               	movwf	___flmul@prod
  2516  031D                     l1709:
  2517  031D  3001               	movlw	1
  2518  031E  07C2               	addwf	___flmul@temp,f
  2519  031F  1803               	skipnc
  2520  0320  0AC3               	incf	___flmul@temp+1,f
  2521  0321  3000               	movlw	0
  2522  0322  07C3               	addwf	___flmul@temp+1,f
  2523  0323                     l1711:
  2524  0323  0843               	movf	___flmul@temp+1,w
  2525  0324  3A80               	xorlw	128
  2526  0325  00FF               	movwf	btemp+1
  2527  0326  3080               	movlw	128
  2528  0327  027F               	subwf	btemp+1,w
  2529  0328  1D03               	skipz
  2530  0329  2B2C               	goto	u2305
  2531  032A  30FF               	movlw	255
  2532  032B  0242               	subwf	___flmul@temp,w
  2533  032C                     u2305:
  2534  032C  1C03               	skipc
  2535  032D  2B2F               	goto	u2301
  2536  032E  2B30               	goto	u2300
  2537  032F                     u2301:
  2538  032F  2B3B               	goto	l1715
  2539  0330                     u2300:
  2540  0330                     l1713:
  2541  0330  307F               	movlw	127
  2542  0331  1283               	bcf	3,5	;RP0=0, select bank0
  2543  0332  1303               	bcf	3,6	;RP1=0, select bank0
  2544  0333  00C1               	movwf	___flmul@prod+3
  2545  0334  3080               	movlw	128
  2546  0335  00C0               	movwf	___flmul@prod+2
  2547  0336  3000               	movlw	0
  2548  0337  00BF               	movwf	___flmul@prod+1
  2549  0338  3000               	movlw	0
  2550  0339  00BE               	movwf	___flmul@prod
  2551  033A  2B70               	goto	l580
  2552  033B                     l1715:
  2553  033B  1283               	bcf	3,5	;RP0=0, select bank0
  2554  033C  1303               	bcf	3,6	;RP1=0, select bank0
  2555  033D  0843               	movf	___flmul@temp+1,w
  2556  033E  3A80               	xorlw	128
  2557  033F  00FF               	movwf	btemp+1
  2558  0340  3080               	movlw	128
  2559  0341  027F               	subwf	btemp+1,w
  2560  0342  1D03               	skipz
  2561  0343  2B46               	goto	u2315
  2562  0344  3001               	movlw	1
  2563  0345  0242               	subwf	___flmul@temp,w
  2564  0346                     u2315:
  2565  0346  1803               	skipnc
  2566  0347  2B49               	goto	u2311
  2567  0348  2B4A               	goto	u2310
  2568  0349                     u2311:
  2569  0349  2B56               	goto	l1721
  2570  034A                     u2310:
  2571  034A                     l1717:
  2572  034A  3000               	movlw	0
  2573  034B  1283               	bcf	3,5	;RP0=0, select bank0
  2574  034C  1303               	bcf	3,6	;RP1=0, select bank0
  2575  034D  00C1               	movwf	___flmul@prod+3
  2576  034E  3000               	movlw	0
  2577  034F  00C0               	movwf	___flmul@prod+2
  2578  0350  3000               	movlw	0
  2579  0351  00BF               	movwf	___flmul@prod+1
  2580  0352  3000               	movlw	0
  2581  0353  00BE               	movwf	___flmul@prod
  2582  0354                     l1719:
  2583  0354  01B7               	clrf	___flmul@sign
  2584  0355  2B70               	goto	l580
  2585  0356                     l1721:
  2586  0356  1283               	bcf	3,5	;RP0=0, select bank0
  2587  0357  1303               	bcf	3,6	;RP1=0, select bank0
  2588  0358  0842               	movf	___flmul@temp,w
  2589  0359  00B2               	movwf	??___flmul
  2590  035A  0832               	movf	??___flmul,w
  2591  035B  00BD               	movwf	___flmul@bexp
  2592  035C  30FF               	movlw	255
  2593  035D  05BE               	andwf	___flmul@prod,f
  2594  035E  30FF               	movlw	255
  2595  035F  05BF               	andwf	___flmul@prod+1,f
  2596  0360  307F               	movlw	127
  2597  0361  05C0               	andwf	___flmul@prod+2,f
  2598  0362  3000               	movlw	0
  2599  0363  05C1               	andwf	___flmul@prod+3,f
  2600  0364                     l1723:
  2601  0364  1C3D               	btfss	___flmul@bexp,0
  2602  0365  2B67               	goto	u2321
  2603  0366  2B68               	goto	u2320
  2604  0367                     u2321:
  2605  0367  2B69               	goto	l1727
  2606  0368                     u2320:
  2607  0368                     l1725:
  2608  0368  17C0               	bsf	___flmul@prod+2,7
  2609  0369                     l1727:
  2610  0369  083D               	movf	___flmul@bexp,w
  2611  036A  00B2               	movwf	??___flmul
  2612  036B  1003               	clrc
  2613  036C  0C32               	rrf	??___flmul,w
  2614  036D  00B3               	movwf	??___flmul+1
  2615  036E  0833               	movf	??___flmul+1,w
  2616  036F  00C1               	movwf	___flmul@prod+3
  2617  0370                     l580:
  2618  0370  0837               	movf	___flmul@sign,w
  2619  0371  00B2               	movwf	??___flmul
  2620  0372  0832               	movf	??___flmul,w
  2621  0373  04C1               	iorwf	___flmul@prod+3,f
  2622  0374                     l1729:
  2623  0374  0841               	movf	___flmul@prod+3,w
  2624  0375  00AD               	movwf	?___flmul+3
  2625  0376  0840               	movf	___flmul@prod+2,w
  2626  0377  00AC               	movwf	?___flmul+2
  2627  0378  083F               	movf	___flmul@prod+1,w
  2628  0379  00AB               	movwf	?___flmul+1
  2629  037A  083E               	movf	___flmul@prod,w
  2630  037B  00AA               	movwf	?___flmul
  2631  037C                     l568:
  2632  037C  0008               	return
  2633  037D                     __end_of___flmul:
  2634                           
  2635                           	psect	text6
  2636  0E7D                     __ptext6:	
  2637 ;; *************** function __Umul8_16 *****************
  2638 ;; Defined at:
  2639 ;;		line 4 in file "C:\Program Files\Microchip\xc8\v2.31\pic\sources\c90\common\Umul8_16.c"
  2640 ;; Parameters:    Size  Location     Type
  2641 ;;  multiplier      1    wreg     unsigned char 
  2642 ;;  multiplicand    1    3[COMMON] unsigned char 
  2643 ;; Auto vars:     Size  Location     Type
  2644 ;;  multiplier      1    4[BANK0 ] unsigned char 
  2645 ;;  word_mpld       2    2[BANK0 ] unsigned int 
  2646 ;;  product         2    0[BANK0 ] unsigned int 
  2647 ;; Return value:  Size  Location     Type
  2648 ;;                  2    3[COMMON] unsigned int 
  2649 ;; Registers used:
  2650 ;;		wreg, status,2, status,0
  2651 ;; Tracked objects:
  2652 ;;		On entry : 0/0
  2653 ;;		On exit  : 0/0
  2654 ;;		Unchanged: 0/0
  2655 ;; Data sizes:     COMMON   BANK0   BANK1   BANK3   BANK2
  2656 ;;      Params:         2       0       0       0       0
  2657 ;;      Locals:         0       5       0       0       0
  2658 ;;      Temps:          2       0       0       0       0
  2659 ;;      Totals:         4       5       0       0       0
  2660 ;;Total ram usage:        9 bytes
  2661 ;; Hardware stack levels used:    1
  2662 ;; Hardware stack levels required when called:    1
  2663 ;; This function calls:
  2664 ;;		Nothing
  2665 ;; This function is called by:
  2666 ;;		___flmul
  2667 ;; This function uses a non-reentrant model
  2668 ;;
  2669                           
  2670                           
  2671                           ;psect for function __Umul8_16
  2672  0E7D                     __Umul8_16:
  2673                           
  2674                           ;incstack = 0
  2675                           ; Regs used in __Umul8_16: [wreg+status,2+status,0]
  2676                           ;__Umul8_16@multiplier stored from wreg
  2677  0E7D  1283               	bcf	3,5	;RP0=0, select bank0
  2678  0E7E  1303               	bcf	3,6	;RP1=0, select bank0
  2679  0E7F  00A4               	movwf	__Umul8_16@multiplier
  2680  0E80                     l1305:
  2681  0E80  01A0               	clrf	__Umul8_16@product
  2682  0E81  01A1               	clrf	__Umul8_16@product+1
  2683  0E82                     l1307:
  2684  0E82  0873               	movf	__Umul8_16@multiplicand,w
  2685  0E83  00F5               	movwf	??__Umul8_16
  2686  0E84  01F6               	clrf	??__Umul8_16+1
  2687  0E85  0875               	movf	??__Umul8_16,w
  2688  0E86  00A2               	movwf	__Umul8_16@word_mpld
  2689  0E87  0876               	movf	??__Umul8_16+1,w
  2690  0E88  00A3               	movwf	__Umul8_16@word_mpld+1
  2691  0E89                     l1309:
  2692  0E89  1C24               	btfss	__Umul8_16@multiplier,0
  2693  0E8A  2E8C               	goto	u1271
  2694  0E8B  2E8D               	goto	u1270
  2695  0E8C                     u1271:
  2696  0E8C  2E93               	goto	l587
  2697  0E8D                     u1270:
  2698  0E8D                     l1311:
  2699  0E8D  0822               	movf	__Umul8_16@word_mpld,w
  2700  0E8E  07A0               	addwf	__Umul8_16@product,f
  2701  0E8F  1803               	skipnc
  2702  0E90  0AA1               	incf	__Umul8_16@product+1,f
  2703  0E91  0823               	movf	__Umul8_16@word_mpld+1,w
  2704  0E92  07A1               	addwf	__Umul8_16@product+1,f
  2705  0E93                     l587:
  2706  0E93  3001               	movlw	1
  2707  0E94                     u1285:
  2708  0E94  1003               	clrc
  2709  0E95  0DA2               	rlf	__Umul8_16@word_mpld,f
  2710  0E96  0DA3               	rlf	__Umul8_16@word_mpld+1,f
  2711  0E97  3EFF               	addlw	-1
  2712  0E98  1D03               	skipz
  2713  0E99  2E94               	goto	u1285
  2714  0E9A  1003               	clrc
  2715  0E9B  0CA4               	rrf	__Umul8_16@multiplier,f
  2716  0E9C                     l1313:
  2717  0E9C  0824               	movf	__Umul8_16@multiplier,w
  2718  0E9D  1D03               	btfss	3,2
  2719  0E9E  2EA0               	goto	u1291
  2720  0E9F  2EA1               	goto	u1290
  2721  0EA0                     u1291:
  2722  0EA0  2E89               	goto	l1309
  2723  0EA1                     u1290:
  2724  0EA1                     l1315:
  2725  0EA1  0821               	movf	__Umul8_16@product+1,w
  2726  0EA2  00F4               	movwf	?__Umul8_16+1
  2727  0EA3  0820               	movf	__Umul8_16@product,w
  2728  0EA4  00F3               	movwf	?__Umul8_16
  2729  0EA5                     l589:
  2730  0EA5  0008               	return
  2731  0EA6                     __end_of__Umul8_16:
  2732                           
  2733                           	psect	text7
  2734  037D                     __ptext7:	
  2735 ;; *************** function ___fladd *****************
  2736 ;; Defined at:
  2737 ;;		line 10 in file "C:\Program Files\Microchip\xc8\v2.31\pic\sources\c90\common\sprcadd.c"
  2738 ;; Parameters:    Size  Location     Type
  2739 ;;  b               4   36[BANK0 ] unsigned int 
  2740 ;;  a               4   40[BANK0 ] unsigned int 
  2741 ;; Auto vars:     Size  Location     Type
  2742 ;;  grs             1   55[BANK0 ] unsigned char 
  2743 ;;  bexp            1   54[BANK0 ] unsigned char 
  2744 ;;  aexp            1   53[BANK0 ] unsigned char 
  2745 ;;  signs           1   52[BANK0 ] unsigned char 
  2746 ;; Return value:  Size  Location     Type
  2747 ;;                  4   36[BANK0 ] unsigned char 
  2748 ;; Registers used:
  2749 ;;		wreg, status,2, status,0, btemp+1
  2750 ;; Tracked objects:
  2751 ;;		On entry : 0/0
  2752 ;;		On exit  : 0/0
  2753 ;;		Unchanged: 0/0
  2754 ;; Data sizes:     COMMON   BANK0   BANK1   BANK3   BANK2
  2755 ;;      Params:         0       8       0       0       0
  2756 ;;      Locals:         0       4       0       0       0
  2757 ;;      Temps:          0       8       0       0       0
  2758 ;;      Totals:         0      20       0       0       0
  2759 ;;Total ram usage:       20 bytes
  2760 ;; Hardware stack levels used:    1
  2761 ;; Hardware stack levels required when called:    1
  2762 ;; This function calls:
  2763 ;;		Nothing
  2764 ;; This function is called by:
  2765 ;;		_canales
  2766 ;; This function uses a non-reentrant model
  2767 ;;
  2768                           
  2769                           
  2770                           ;psect for function ___fladd
  2771  037D                     ___fladd:
  2772  037D                     l1399:	
  2773                           ;incstack = 0
  2774                           ; Regs used in ___fladd: [wreg+status,2+status,0+btemp+1]
  2775                           
  2776  037D  1283               	bcf	3,5	;RP0=0, select bank0
  2777  037E  1303               	bcf	3,6	;RP1=0, select bank0
  2778  037F  0847               	movf	___fladd@b+3,w
  2779  0380  3980               	andlw	128
  2780  0381  00CC               	movwf	??___fladd
  2781  0382  084C               	movf	??___fladd,w
  2782  0383  00D4               	movwf	___fladd@signs
  2783  0384                     l1401:
  2784  0384  0847               	movf	___fladd@b+3,w
  2785  0385  00CC               	movwf	??___fladd
  2786  0386  074C               	addwf	??___fladd,w
  2787  0387  00CD               	movwf	??___fladd+1
  2788  0388  084D               	movf	??___fladd+1,w
  2789  0389  00D6               	movwf	___fladd@bexp
  2790  038A                     l1403:
  2791  038A  1FC6               	btfss	___fladd@b+2,7
  2792  038B  2B8D               	goto	u1501
  2793  038C  2B8E               	goto	u1500
  2794  038D                     u1501:
  2795  038D  2B8F               	goto	l1407
  2796  038E                     u1500:
  2797  038E                     l1405:
  2798  038E  1456               	bsf	___fladd@bexp,0
  2799  038F                     l1407:
  2800  038F  0856               	movf	___fladd@bexp,w
  2801  0390  1903               	btfsc	3,2
  2802  0391  2B93               	goto	u1511
  2803  0392  2B94               	goto	u1510
  2804  0393                     u1511:
  2805  0393  2BA4               	goto	l1417
  2806  0394                     u1510:
  2807  0394                     l1409:
  2808  0394  0A56               	incf	___fladd@bexp,w
  2809  0395  1D03               	btfss	3,2
  2810  0396  2B98               	goto	u1521
  2811  0397  2B99               	goto	u1520
  2812  0398                     u1521:
  2813  0398  2BA1               	goto	l1413
  2814  0399                     u1520:
  2815  0399                     l1411:
  2816  0399  3000               	movlw	0
  2817  039A  00C7               	movwf	___fladd@b+3
  2818  039B  3000               	movlw	0
  2819  039C  00C6               	movwf	___fladd@b+2
  2820  039D  3000               	movlw	0
  2821  039E  00C5               	movwf	___fladd@b+1
  2822  039F  3000               	movlw	0
  2823  03A0  00C4               	movwf	___fladd@b
  2824  03A1                     l1413:
  2825  03A1  17C6               	bsf	___fladd@b+2,7
  2826  03A2                     l1415:
  2827  03A2  01C7               	clrf	___fladd@b+3
  2828  03A3  2BAC               	goto	l1419
  2829  03A4                     l1417:
  2830  03A4  3000               	movlw	0
  2831  03A5  00C7               	movwf	___fladd@b+3
  2832  03A6  3000               	movlw	0
  2833  03A7  00C6               	movwf	___fladd@b+2
  2834  03A8  3000               	movlw	0
  2835  03A9  00C5               	movwf	___fladd@b+1
  2836  03AA  3000               	movlw	0
  2837  03AB  00C4               	movwf	___fladd@b
  2838  03AC                     l1419:
  2839  03AC  084B               	movf	___fladd@a+3,w
  2840  03AD  3980               	andlw	128
  2841  03AE  00CC               	movwf	??___fladd
  2842  03AF  084C               	movf	??___fladd,w
  2843  03B0  00D5               	movwf	___fladd@aexp
  2844  03B1                     l1421:
  2845  03B1  0855               	movf	___fladd@aexp,w
  2846  03B2  0654               	xorwf	___fladd@signs,w
  2847  03B3  1903               	skipnz
  2848  03B4  2BB6               	goto	u1531
  2849  03B5  2BB7               	goto	u1530
  2850  03B6                     u1531:
  2851  03B6  2BB8               	goto	l1425
  2852  03B7                     u1530:
  2853  03B7                     l1423:
  2854  03B7  1754               	bsf	___fladd@signs,6
  2855  03B8                     l1425:
  2856  03B8  084B               	movf	___fladd@a+3,w
  2857  03B9  00CC               	movwf	??___fladd
  2858  03BA  074C               	addwf	??___fladd,w
  2859  03BB  00CD               	movwf	??___fladd+1
  2860  03BC  084D               	movf	??___fladd+1,w
  2861  03BD  00D5               	movwf	___fladd@aexp
  2862  03BE                     l1427:
  2863  03BE  1FCA               	btfss	___fladd@a+2,7
  2864  03BF  2BC1               	goto	u1541
  2865  03C0  2BC2               	goto	u1540
  2866  03C1                     u1541:
  2867  03C1  2BC3               	goto	l1431
  2868  03C2                     u1540:
  2869  03C2                     l1429:
  2870  03C2  1455               	bsf	___fladd@aexp,0
  2871  03C3                     l1431:
  2872  03C3  0855               	movf	___fladd@aexp,w
  2873  03C4  1903               	btfsc	3,2
  2874  03C5  2BC7               	goto	u1551
  2875  03C6  2BC8               	goto	u1550
  2876  03C7                     u1551:
  2877  03C7  2BD8               	goto	l1441
  2878  03C8                     u1550:
  2879  03C8                     l1433:
  2880  03C8  0A55               	incf	___fladd@aexp,w
  2881  03C9  1D03               	btfss	3,2
  2882  03CA  2BCC               	goto	u1561
  2883  03CB  2BCD               	goto	u1560
  2884  03CC                     u1561:
  2885  03CC  2BD5               	goto	l1437
  2886  03CD                     u1560:
  2887  03CD                     l1435:
  2888  03CD  3000               	movlw	0
  2889  03CE  00CB               	movwf	___fladd@a+3
  2890  03CF  3000               	movlw	0
  2891  03D0  00CA               	movwf	___fladd@a+2
  2892  03D1  3000               	movlw	0
  2893  03D2  00C9               	movwf	___fladd@a+1
  2894  03D3  3000               	movlw	0
  2895  03D4  00C8               	movwf	___fladd@a
  2896  03D5                     l1437:
  2897  03D5  17CA               	bsf	___fladd@a+2,7
  2898  03D6                     l1439:
  2899  03D6  01CB               	clrf	___fladd@a+3
  2900  03D7  2BE0               	goto	l472
  2901  03D8                     l1441:
  2902  03D8  3000               	movlw	0
  2903  03D9  00CB               	movwf	___fladd@a+3
  2904  03DA  3000               	movlw	0
  2905  03DB  00CA               	movwf	___fladd@a+2
  2906  03DC  3000               	movlw	0
  2907  03DD  00C9               	movwf	___fladd@a+1
  2908  03DE  3000               	movlw	0
  2909  03DF  00C8               	movwf	___fladd@a
  2910  03E0                     l472:
  2911  03E0  0856               	movf	___fladd@bexp,w
  2912  03E1  0255               	subwf	___fladd@aexp,w
  2913  03E2  1803               	skipnc
  2914  03E3  2BE5               	goto	u1571
  2915  03E4  2BE6               	goto	u1570
  2916  03E5                     u1571:
  2917  03E5  2C2A               	goto	l1477
  2918  03E6                     u1570:
  2919  03E6                     l1443:
  2920  03E6  1F54               	btfss	___fladd@signs,6
  2921  03E7  2BE9               	goto	u1581
  2922  03E8  2BEA               	goto	u1580
  2923  03E9                     u1581:
  2924  03E9  2BEE               	goto	l1447
  2925  03EA                     u1580:
  2926  03EA                     l1445:
  2927  03EA  3080               	movlw	128
  2928  03EB  00CC               	movwf	??___fladd
  2929  03EC  084C               	movf	??___fladd,w
  2930  03ED  06D4               	xorwf	___fladd@signs,f
  2931  03EE                     l1447:
  2932  03EE  0856               	movf	___fladd@bexp,w
  2933  03EF  00CC               	movwf	??___fladd
  2934  03F0  084C               	movf	??___fladd,w
  2935  03F1  00D7               	movwf	___fladd@grs
  2936  03F2                     l1449:
  2937  03F2  0855               	movf	___fladd@aexp,w
  2938  03F3  00CC               	movwf	??___fladd
  2939  03F4  084C               	movf	??___fladd,w
  2940  03F5  00D6               	movwf	___fladd@bexp
  2941  03F6                     l1451:
  2942  03F6  0857               	movf	___fladd@grs,w
  2943  03F7  00CC               	movwf	??___fladd
  2944  03F8  084C               	movf	??___fladd,w
  2945  03F9  00D5               	movwf	___fladd@aexp
  2946  03FA                     l1453:
  2947  03FA  0844               	movf	___fladd@b,w
  2948  03FB  00CC               	movwf	??___fladd
  2949  03FC  084C               	movf	??___fladd,w
  2950  03FD  00D7               	movwf	___fladd@grs
  2951  03FE                     l1455:
  2952  03FE  0848               	movf	___fladd@a,w
  2953  03FF  00CC               	movwf	??___fladd
  2954  0400  084C               	movf	??___fladd,w
  2955  0401  00C4               	movwf	___fladd@b
  2956  0402                     l1457:
  2957  0402  0857               	movf	___fladd@grs,w
  2958  0403  00CC               	movwf	??___fladd
  2959  0404  084C               	movf	??___fladd,w
  2960  0405  00C8               	movwf	___fladd@a
  2961  0406                     l1459:
  2962  0406  0845               	movf	___fladd@b+1,w
  2963  0407  00CC               	movwf	??___fladd
  2964  0408  084C               	movf	??___fladd,w
  2965  0409  00D7               	movwf	___fladd@grs
  2966  040A                     l1461:
  2967  040A  0849               	movf	___fladd@a+1,w
  2968  040B  00CC               	movwf	??___fladd
  2969  040C  084C               	movf	??___fladd,w
  2970  040D  00C5               	movwf	___fladd@b+1
  2971  040E                     l1463:
  2972  040E  0857               	movf	___fladd@grs,w
  2973  040F  00CC               	movwf	??___fladd
  2974  0410  084C               	movf	??___fladd,w
  2975  0411  00C9               	movwf	___fladd@a+1
  2976  0412                     l1465:
  2977  0412  0846               	movf	___fladd@b+2,w
  2978  0413  00CC               	movwf	??___fladd
  2979  0414  084C               	movf	??___fladd,w
  2980  0415  00D7               	movwf	___fladd@grs
  2981  0416                     l1467:
  2982  0416  084A               	movf	___fladd@a+2,w
  2983  0417  00CC               	movwf	??___fladd
  2984  0418  084C               	movf	??___fladd,w
  2985  0419  00C6               	movwf	___fladd@b+2
  2986  041A                     l1469:
  2987  041A  0857               	movf	___fladd@grs,w
  2988  041B  00CC               	movwf	??___fladd
  2989  041C  084C               	movf	??___fladd,w
  2990  041D  00CA               	movwf	___fladd@a+2
  2991  041E                     l1471:
  2992  041E  0847               	movf	___fladd@b+3,w
  2993  041F  00CC               	movwf	??___fladd
  2994  0420  084C               	movf	??___fladd,w
  2995  0421  00D7               	movwf	___fladd@grs
  2996  0422                     l1473:
  2997  0422  084B               	movf	___fladd@a+3,w
  2998  0423  00CC               	movwf	??___fladd
  2999  0424  084C               	movf	??___fladd,w
  3000  0425  00C7               	movwf	___fladd@b+3
  3001  0426                     l1475:
  3002  0426  0857               	movf	___fladd@grs,w
  3003  0427  00CC               	movwf	??___fladd
  3004  0428  084C               	movf	??___fladd,w
  3005  0429  00CB               	movwf	___fladd@a+3
  3006  042A                     l1477:
  3007  042A  01D7               	clrf	___fladd@grs
  3008  042B                     l1479:
  3009  042B  0855               	movf	___fladd@aexp,w
  3010  042C  00CC               	movwf	??___fladd
  3011  042D  01CD               	clrf	??___fladd+1
  3012  042E  084D               	movf	??___fladd+1,w
  3013  042F  00CF               	movwf	??___fladd+3
  3014  0430  0856               	movf	___fladd@bexp,w
  3015  0431  024C               	subwf	??___fladd,w
  3016  0432  00CE               	movwf	??___fladd+2
  3017  0433  1C03               	skipc
  3018  0434  03CF               	decf	??___fladd+3,f
  3019  0435  084F               	movf	??___fladd+3,w
  3020  0436  3A80               	xorlw	128
  3021  0437  00FF               	movwf	btemp+1
  3022  0438  3080               	movlw	128
  3023  0439  027F               	subwf	btemp+1,w
  3024  043A  1D03               	skipz
  3025  043B  2C3E               	goto	u1595
  3026  043C  301A               	movlw	26
  3027  043D  024E               	subwf	??___fladd+2,w
  3028  043E                     u1595:
  3029  043E  1C03               	skipc
  3030  043F  2C41               	goto	u1591
  3031  0440  2C42               	goto	u1590
  3032  0441                     u1591:
  3033  0441  2C7F               	goto	l1495
  3034  0442                     u1590:
  3035  0442                     l1481:
  3036  0442  1283               	bcf	3,5	;RP0=0, select bank0
  3037  0443  1303               	bcf	3,6	;RP1=0, select bank0
  3038  0444  0847               	movf	___fladd@b+3,w
  3039  0445  0446               	iorwf	___fladd@b+2,w
  3040  0446  0445               	iorwf	___fladd@b+1,w
  3041  0447  0444               	iorwf	___fladd@b,w
  3042  0448  1D03               	skipz
  3043  0449  2C4B               	goto	u1601
  3044  044A  2C4D               	goto	u1600
  3045  044B                     u1601:
  3046  044B  3001               	movlw	1
  3047  044C  2C4E               	goto	u1610
  3048  044D                     u1600:
  3049  044D  3000               	movlw	0
  3050  044E                     u1610:
  3051  044E  00CC               	movwf	??___fladd
  3052  044F  084C               	movf	??___fladd,w
  3053  0450  00D7               	movwf	___fladd@grs
  3054  0451  3000               	movlw	0
  3055  0452  00C7               	movwf	___fladd@b+3
  3056  0453  3000               	movlw	0
  3057  0454  00C6               	movwf	___fladd@b+2
  3058  0455  3000               	movlw	0
  3059  0456  00C5               	movwf	___fladd@b+1
  3060  0457  3000               	movlw	0
  3061  0458  00C4               	movwf	___fladd@b
  3062  0459  0855               	movf	___fladd@aexp,w
  3063  045A  00CC               	movwf	??___fladd
  3064  045B  084C               	movf	??___fladd,w
  3065  045C  00D6               	movwf	___fladd@bexp
  3066  045D  2C87               	goto	l476
  3067  045E                     l478:
  3068  045E  1C57               	btfss	___fladd@grs,0
  3069  045F  2C61               	goto	u1621
  3070  0460  2C62               	goto	u1620
  3071  0461                     u1621:
  3072  0461  2C6B               	goto	l1485
  3073  0462                     u1620:
  3074  0462                     l1483:
  3075  0462  0857               	movf	___fladd@grs,w
  3076  0463  00CC               	movwf	??___fladd
  3077  0464  1003               	clrc
  3078  0465  0C4C               	rrf	??___fladd,w
  3079  0466  3801               	iorlw	1
  3080  0467  00CD               	movwf	??___fladd+1
  3081  0468  084D               	movf	??___fladd+1,w
  3082  0469  00D7               	movwf	___fladd@grs
  3083  046A  2C6D               	goto	l1487
  3084  046B                     l1485:
  3085  046B  1003               	clrc
  3086  046C  0CD7               	rrf	___fladd@grs,f
  3087  046D                     l1487:
  3088  046D  1C44               	btfss	___fladd@b,0
  3089  046E  2C70               	goto	u1631
  3090  046F  2C71               	goto	u1630
  3091  0470                     u1631:
  3092  0470  2C72               	goto	l1491
  3093  0471                     u1630:
  3094  0471                     l1489:
  3095  0471  17D7               	bsf	___fladd@grs,7
  3096  0472                     l1491:
  3097  0472  3001               	movlw	1
  3098  0473  00CC               	movwf	??___fladd
  3099  0474                     u1645:
  3100  0474  0D47               	rlf	___fladd@b+3,w
  3101  0475  0CC7               	rrf	___fladd@b+3,f
  3102  0476  0CC6               	rrf	___fladd@b+2,f
  3103  0477  0CC5               	rrf	___fladd@b+1,f
  3104  0478  0CC4               	rrf	___fladd@b,f
  3105  0479  0BCC               	decfsz	??___fladd& (0+127),f
  3106  047A  2C74               	goto	u1645
  3107  047B                     l1493:
  3108  047B  3001               	movlw	1
  3109  047C  00CC               	movwf	??___fladd
  3110  047D  084C               	movf	??___fladd,w
  3111  047E  07D6               	addwf	___fladd@bexp,f
  3112  047F                     l1495:
  3113  047F  1283               	bcf	3,5	;RP0=0, select bank0
  3114  0480  1303               	bcf	3,6	;RP1=0, select bank0
  3115  0481  0855               	movf	___fladd@aexp,w
  3116  0482  0256               	subwf	___fladd@bexp,w
  3117  0483  1C03               	skipc
  3118  0484  2C86               	goto	u1651
  3119  0485  2C87               	goto	u1650
  3120  0486                     u1651:
  3121  0486  2C5E               	goto	l478
  3122  0487                     u1650:
  3123  0487                     l476:
  3124  0487  1B54               	btfsc	___fladd@signs,6
  3125  0488  2C8A               	goto	u1661
  3126  0489  2C8B               	goto	u1660
  3127  048A                     u1661:
  3128  048A  2CD6               	goto	l1521
  3129  048B                     u1660:
  3130  048B                     l1497:
  3131  048B  0856               	movf	___fladd@bexp,w
  3132  048C  1D03               	btfss	3,2
  3133  048D  2C8F               	goto	u1671
  3134  048E  2C90               	goto	u1670
  3135  048F                     u1671:
  3136  048F  2C99               	goto	l1503
  3137  0490                     u1670:
  3138  0490                     l1499:
  3139  0490  3000               	movlw	0
  3140  0491  00C7               	movwf	?___fladd+3
  3141  0492  3000               	movlw	0
  3142  0493  00C6               	movwf	?___fladd+2
  3143  0494  3000               	movlw	0
  3144  0495  00C5               	movwf	?___fladd+1
  3145  0496  3000               	movlw	0
  3146  0497  00C4               	movwf	?___fladd
  3147  0498  2E04               	goto	l485
  3148  0499                     l1503:
  3149  0499  0848               	movf	___fladd@a,w
  3150  049A  07C4               	addwf	___fladd@b,f
  3151  049B  0849               	movf	___fladd@a+1,w
  3152  049C  1103               	clrz
  3153  049D  1803               	skipnc
  3154  049E  3E01               	addlw	1
  3155  049F  1903               	skipnz
  3156  04A0  2CA2               	goto	u1681
  3157  04A1  07C5               	addwf	___fladd@b+1,f
  3158  04A2                     u1681:
  3159  04A2  084A               	movf	___fladd@a+2,w
  3160  04A3  1103               	clrz
  3161  04A4  1803               	skipnc
  3162  04A5  3E01               	addlw	1
  3163  04A6  1903               	skipnz
  3164  04A7  2CA9               	goto	u1682
  3165  04A8  07C6               	addwf	___fladd@b+2,f
  3166  04A9                     u1682:
  3167  04A9  084B               	movf	___fladd@a+3,w
  3168  04AA  1103               	clrz
  3169  04AB  1803               	skipnc
  3170  04AC  3E01               	addlw	1
  3171  04AD  1903               	skipnz
  3172  04AE  2CB0               	goto	u1683
  3173  04AF  07C7               	addwf	___fladd@b+3,f
  3174  04B0                     u1683:
  3175  04B0                     l1505:
  3176  04B0  1C47               	btfss	___fladd@b+3,0
  3177  04B1  2CB3               	goto	u1691
  3178  04B2  2CB4               	goto	u1690
  3179  04B3                     u1691:
  3180  04B3  2D8A               	goto	l1555
  3181  04B4                     u1690:
  3182  04B4                     l1507:
  3183  04B4  1C57               	btfss	___fladd@grs,0
  3184  04B5  2CB7               	goto	u1701
  3185  04B6  2CB8               	goto	u1700
  3186  04B7                     u1701:
  3187  04B7  2CC1               	goto	l1511
  3188  04B8                     u1700:
  3189  04B8                     l1509:
  3190  04B8  0857               	movf	___fladd@grs,w
  3191  04B9  00CC               	movwf	??___fladd
  3192  04BA  1003               	clrc
  3193  04BB  0C4C               	rrf	??___fladd,w
  3194  04BC  3801               	iorlw	1
  3195  04BD  00CD               	movwf	??___fladd+1
  3196  04BE  084D               	movf	??___fladd+1,w
  3197  04BF  00D7               	movwf	___fladd@grs
  3198  04C0  2CC3               	goto	l1513
  3199  04C1                     l1511:
  3200  04C1  1003               	clrc
  3201  04C2  0CD7               	rrf	___fladd@grs,f
  3202  04C3                     l1513:
  3203  04C3  1C44               	btfss	___fladd@b,0
  3204  04C4  2CC6               	goto	u1711
  3205  04C5  2CC7               	goto	u1710
  3206  04C6                     u1711:
  3207  04C6  2CC8               	goto	l1517
  3208  04C7                     u1710:
  3209  04C7                     l1515:
  3210  04C7  17D7               	bsf	___fladd@grs,7
  3211  04C8                     l1517:
  3212  04C8  3001               	movlw	1
  3213  04C9  00CC               	movwf	??___fladd
  3214  04CA                     u1725:
  3215  04CA  0D47               	rlf	___fladd@b+3,w
  3216  04CB  0CC7               	rrf	___fladd@b+3,f
  3217  04CC  0CC6               	rrf	___fladd@b+2,f
  3218  04CD  0CC5               	rrf	___fladd@b+1,f
  3219  04CE  0CC4               	rrf	___fladd@b,f
  3220  04CF  0BCC               	decfsz	??___fladd& (0+127),f
  3221  04D0  2CCA               	goto	u1725
  3222  04D1                     l1519:
  3223  04D1  3001               	movlw	1
  3224  04D2  00CC               	movwf	??___fladd
  3225  04D3  084C               	movf	??___fladd,w
  3226  04D4  07D6               	addwf	___fladd@bexp,f
  3227  04D5  2D8A               	goto	l1555
  3228  04D6                     l1521:
  3229  04D6  0847               	movf	___fladd@b+3,w
  3230  04D7  3A80               	xorlw	128
  3231  04D8  00FF               	movwf	btemp+1
  3232  04D9  084B               	movf	___fladd@a+3,w
  3233  04DA  3A80               	xorlw	128
  3234  04DB  027F               	subwf	btemp+1,w
  3235  04DC  1D03               	skipz
  3236  04DD  2CE8               	goto	u1733
  3237  04DE  084A               	movf	___fladd@a+2,w
  3238  04DF  0246               	subwf	___fladd@b+2,w
  3239  04E0  1D03               	skipz
  3240  04E1  2CE8               	goto	u1733
  3241  04E2  0849               	movf	___fladd@a+1,w
  3242  04E3  0245               	subwf	___fladd@b+1,w
  3243  04E4  1D03               	skipz
  3244  04E5  2CE8               	goto	u1733
  3245  04E6  0848               	movf	___fladd@a,w
  3246  04E7  0244               	subwf	___fladd@b,w
  3247  04E8                     u1733:
  3248  04E8  1803               	skipnc
  3249  04E9  2CEB               	goto	u1731
  3250  04EA  2CEC               	goto	u1730
  3251  04EB                     u1731:
  3252  04EB  2D44               	goto	l1531
  3253  04EC                     u1730:
  3254  04EC                     l1523:
  3255  04EC  30FF               	movlw	255
  3256  04ED  00CC               	movwf	??___fladd
  3257  04EE  30FF               	movlw	255
  3258  04EF  00CD               	movwf	??___fladd+1
  3259  04F0  30FF               	movlw	255
  3260  04F1  00CE               	movwf	??___fladd+2
  3261  04F2  30FF               	movlw	255
  3262  04F3  00CF               	movwf	??___fladd+3
  3263  04F4  0848               	movf	___fladd@a,w
  3264  04F5  00D0               	movwf	??___fladd+4
  3265  04F6  0849               	movf	___fladd@a+1,w
  3266  04F7  00D1               	movwf	??___fladd+5
  3267  04F8  084A               	movf	___fladd@a+2,w
  3268  04F9  00D2               	movwf	??___fladd+6
  3269  04FA  084B               	movf	___fladd@a+3,w
  3270  04FB  00D3               	movwf	??___fladd+7
  3271  04FC  0844               	movf	___fladd@b,w
  3272  04FD  02D0               	subwf	??___fladd+4,f
  3273  04FE  0845               	movf	___fladd@b+1,w
  3274  04FF  1C03               	skipc
  3275  0500  0F45               	incfsz	___fladd@b+1,w
  3276  0501  2D03               	goto	u1741
  3277  0502  2D04               	goto	u1742
  3278  0503                     u1741:
  3279  0503  02D1               	subwf	??___fladd+5,f
  3280  0504                     u1742:
  3281  0504  0846               	movf	___fladd@b+2,w
  3282  0505  1C03               	skipc
  3283  0506  0F46               	incfsz	___fladd@b+2,w
  3284  0507  2D09               	goto	u1743
  3285  0508  2D0A               	goto	u1744
  3286  0509                     u1743:
  3287  0509  02D2               	subwf	??___fladd+6,f
  3288  050A                     u1744:
  3289  050A  0847               	movf	___fladd@b+3,w
  3290  050B  1C03               	skipc
  3291  050C  0F47               	incfsz	___fladd@b+3,w
  3292  050D  2D0F               	goto	u1745
  3293  050E  2D10               	goto	u1746
  3294  050F                     u1745:
  3295  050F  02D3               	subwf	??___fladd+7,f
  3296  0510                     u1746:
  3297  0510  0850               	movf	??___fladd+4,w
  3298  0511  07CC               	addwf	??___fladd,f
  3299  0512  0851               	movf	??___fladd+5,w
  3300  0513  1803               	skipnc
  3301  0514  0F51               	incfsz	??___fladd+5,w
  3302  0515  2D17               	goto	u1750
  3303  0516  2D18               	goto	u1751
  3304  0517                     u1750:
  3305  0517  07CD               	addwf	??___fladd+1,f
  3306  0518                     u1751:
  3307  0518  0852               	movf	??___fladd+6,w
  3308  0519  1803               	skipnc
  3309  051A  0F52               	incfsz	??___fladd+6,w
  3310  051B  2D1D               	goto	u1752
  3311  051C  2D1E               	goto	u1753
  3312  051D                     u1752:
  3313  051D  07CE               	addwf	??___fladd+2,f
  3314  051E                     u1753:
  3315  051E  0853               	movf	??___fladd+7,w
  3316  051F  1803               	skipnc
  3317  0520  0A53               	incf	??___fladd+7,w
  3318  0521  07CF               	addwf	??___fladd+3,f
  3319  0522  084F               	movf	??___fladd+3,w
  3320  0523  00C7               	movwf	___fladd@b+3
  3321  0524  084E               	movf	??___fladd+2,w
  3322  0525  00C6               	movwf	___fladd@b+2
  3323  0526  084D               	movf	??___fladd+1,w
  3324  0527  00C5               	movwf	___fladd@b+1
  3325  0528  084C               	movf	??___fladd,w
  3326  0529  00C4               	movwf	___fladd@b
  3327  052A                     l1525:
  3328  052A  3080               	movlw	128
  3329  052B  00CC               	movwf	??___fladd
  3330  052C  084C               	movf	??___fladd,w
  3331  052D  06D4               	xorwf	___fladd@signs,f
  3332  052E  09D7               	comf	___fladd@grs,f
  3333  052F  0AD7               	incf	___fladd@grs,f
  3334  0530                     l1527:
  3335  0530  0857               	movf	___fladd@grs,w
  3336  0531  1D03               	btfss	3,2
  3337  0532  2D34               	goto	u1761
  3338  0533  2D35               	goto	u1760
  3339  0534                     u1761:
  3340  0534  2D52               	goto	l493
  3341  0535                     u1760:
  3342  0535                     l1529:
  3343  0535  3001               	movlw	1
  3344  0536  07C4               	addwf	___fladd@b,f
  3345  0537  3000               	movlw	0
  3346  0538  1803               	skipnc
  3347  0539  3001               	movlw	1
  3348  053A  07C5               	addwf	___fladd@b+1,f
  3349  053B  3000               	movlw	0
  3350  053C  1803               	skipnc
  3351  053D  3001               	movlw	1
  3352  053E  07C6               	addwf	___fladd@b+2,f
  3353  053F  3000               	movlw	0
  3354  0540  1803               	skipnc
  3355  0541  3001               	movlw	1
  3356  0542  07C7               	addwf	___fladd@b+3,f
  3357  0543  2D52               	goto	l493
  3358  0544                     l1531:
  3359  0544  0848               	movf	___fladd@a,w
  3360  0545  02C4               	subwf	___fladd@b,f
  3361  0546  0849               	movf	___fladd@a+1,w
  3362  0547  1C03               	skipc
  3363  0548  0F49               	incfsz	___fladd@a+1,w
  3364  0549  02C5               	subwf	___fladd@b+1,f
  3365  054A  084A               	movf	___fladd@a+2,w
  3366  054B  1C03               	skipc
  3367  054C  0F4A               	incfsz	___fladd@a+2,w
  3368  054D  02C6               	subwf	___fladd@b+2,f
  3369  054E  084B               	movf	___fladd@a+3,w
  3370  054F  1C03               	skipc
  3371  0550  0F4B               	incfsz	___fladd@a+3,w
  3372  0551  02C7               	subwf	___fladd@b+3,f
  3373  0552                     l493:
  3374  0552  0847               	movf	___fladd@b+3,w
  3375  0553  0446               	iorwf	___fladd@b+2,w
  3376  0554  0445               	iorwf	___fladd@b+1,w
  3377  0555  0444               	iorwf	___fladd@b,w
  3378  0556  1D03               	skipz
  3379  0557  2D59               	goto	u1771
  3380  0558  2D5A               	goto	u1770
  3381  0559                     u1771:
  3382  0559  2D86               	goto	l1553
  3383  055A                     u1770:
  3384  055A                     l1533:
  3385  055A  0857               	movf	___fladd@grs,w
  3386  055B  1D03               	btfss	3,2
  3387  055C  2D5E               	goto	u1781
  3388  055D  2D5F               	goto	u1780
  3389  055E                     u1781:
  3390  055E  2D86               	goto	l1553
  3391  055F                     u1780:
  3392  055F                     l1535:
  3393  055F  3000               	movlw	0
  3394  0560  00C7               	movwf	?___fladd+3
  3395  0561  3000               	movlw	0
  3396  0562  00C6               	movwf	?___fladd+2
  3397  0563  3000               	movlw	0
  3398  0564  00C5               	movwf	?___fladd+1
  3399  0565  3000               	movlw	0
  3400  0566  00C4               	movwf	?___fladd
  3401  0567  2E04               	goto	l485
  3402  0568                     l1539:
  3403  0568  3001               	movlw	1
  3404  0569  00CC               	movwf	??___fladd
  3405  056A                     u1795:
  3406  056A  1003               	clrc
  3407  056B  0DC4               	rlf	___fladd@b,f
  3408  056C  0DC5               	rlf	___fladd@b+1,f
  3409  056D  0DC6               	rlf	___fladd@b+2,f
  3410  056E  0DC7               	rlf	___fladd@b+3,f
  3411  056F  0BCC               	decfsz	??___fladd,f
  3412  0570  2D6A               	goto	u1795
  3413  0571                     l1541:
  3414  0571  1FD7               	btfss	___fladd@grs,7
  3415  0572  2D74               	goto	u1801
  3416  0573  2D75               	goto	u1800
  3417  0574                     u1801:
  3418  0574  2D76               	goto	l497
  3419  0575                     u1800:
  3420  0575                     l1543:
  3421  0575  1444               	bsf	___fladd@b,0
  3422  0576                     l497:
  3423  0576  1C57               	btfss	___fladd@grs,0
  3424  0577  2D79               	goto	u1811
  3425  0578  2D7A               	goto	u1810
  3426  0579                     u1811:
  3427  0579  2D7D               	goto	l1547
  3428  057A                     u1810:
  3429  057A                     l1545:
  3430  057A  1403               	setc
  3431  057B  0DD7               	rlf	___fladd@grs,f
  3432  057C  2D7F               	goto	l1549
  3433  057D                     l1547:
  3434  057D  1003               	clrc
  3435  057E  0DD7               	rlf	___fladd@grs,f
  3436  057F                     l1549:
  3437  057F  0856               	movf	___fladd@bexp,w
  3438  0580  1903               	btfsc	3,2
  3439  0581  2D83               	goto	u1821
  3440  0582  2D84               	goto	u1820
  3441  0583                     u1821:
  3442  0583  2D86               	goto	l1553
  3443  0584                     u1820:
  3444  0584                     l1551:
  3445  0584  3001               	movlw	1
  3446  0585  02D6               	subwf	___fladd@bexp,f
  3447  0586                     l1553:
  3448  0586  1FC6               	btfss	___fladd@b+2,7
  3449  0587  2D89               	goto	u1831
  3450  0588  2D8A               	goto	u1830
  3451  0589                     u1831:
  3452  0589  2D68               	goto	l1539
  3453  058A                     u1830:
  3454  058A                     l1555:
  3455  058A  01D5               	clrf	___fladd@aexp
  3456  058B                     l1557:
  3457  058B  1FD7               	btfss	___fladd@grs,7
  3458  058C  2D8E               	goto	u1841
  3459  058D  2D8F               	goto	u1840
  3460  058E                     u1841:
  3461  058E  2D9D               	goto	l1565
  3462  058F                     u1840:
  3463  058F                     l1559:
  3464  058F  0857               	movf	___fladd@grs,w
  3465  0590  397F               	andlw	127
  3466  0591  1903               	btfsc	3,2
  3467  0592  2D94               	goto	u1851
  3468  0593  2D95               	goto	u1850
  3469  0594                     u1851:
  3470  0594  2D98               	goto	l503
  3471  0595                     u1850:
  3472  0595                     l1561:
  3473  0595  01D5               	clrf	___fladd@aexp
  3474  0596  0AD5               	incf	___fladd@aexp,f
  3475  0597  2D9D               	goto	l1565
  3476  0598                     l503:
  3477  0598  1C44               	btfss	___fladd@b,0
  3478  0599  2D9B               	goto	u1861
  3479  059A  2D9C               	goto	u1860
  3480  059B                     u1861:
  3481  059B  2D9D               	goto	l1565
  3482  059C                     u1860:
  3483  059C  2D95               	goto	l1561
  3484  059D                     l1565:
  3485  059D  0855               	movf	___fladd@aexp,w
  3486  059E  1903               	btfsc	3,2
  3487  059F  2DA1               	goto	u1871
  3488  05A0  2DA2               	goto	u1870
  3489  05A1                     u1871:
  3490  05A1  2DD6               	goto	l506
  3491  05A2                     u1870:
  3492  05A2                     l1567:
  3493  05A2  3001               	movlw	1
  3494  05A3  07C4               	addwf	___fladd@b,f
  3495  05A4  3000               	movlw	0
  3496  05A5  1803               	skipnc
  3497  05A6  3001               	movlw	1
  3498  05A7  07C5               	addwf	___fladd@b+1,f
  3499  05A8  3000               	movlw	0
  3500  05A9  1803               	skipnc
  3501  05AA  3001               	movlw	1
  3502  05AB  07C6               	addwf	___fladd@b+2,f
  3503  05AC  3000               	movlw	0
  3504  05AD  1803               	skipnc
  3505  05AE  3001               	movlw	1
  3506  05AF  07C7               	addwf	___fladd@b+3,f
  3507  05B0                     l1569:
  3508  05B0  1C47               	btfss	___fladd@b+3,0
  3509  05B1  2DB3               	goto	u1881
  3510  05B2  2DB4               	goto	u1880
  3511  05B3                     u1881:
  3512  05B3  2DD6               	goto	l506
  3513  05B4                     u1880:
  3514  05B4                     l1571:
  3515  05B4  0844               	movf	___fladd@b,w
  3516  05B5  00CC               	movwf	??___fladd
  3517  05B6  0845               	movf	___fladd@b+1,w
  3518  05B7  00CD               	movwf	??___fladd+1
  3519  05B8  0846               	movf	___fladd@b+2,w
  3520  05B9  00CE               	movwf	??___fladd+2
  3521  05BA  0847               	movf	___fladd@b+3,w
  3522  05BB  00CF               	movwf	??___fladd+3
  3523  05BC  3001               	movlw	1
  3524  05BD  00D0               	movwf	??___fladd+4
  3525  05BE                     u1895:
  3526  05BE  0D4F               	rlf	??___fladd+3,w
  3527  05BF  0CCF               	rrf	??___fladd+3,f
  3528  05C0  0CCE               	rrf	??___fladd+2,f
  3529  05C1  0CCD               	rrf	??___fladd+1,f
  3530  05C2  0CCC               	rrf	??___fladd,f
  3531  05C3                     u1890:
  3532  05C3  0BD0               	decfsz	??___fladd+4,f
  3533  05C4  2DBE               	goto	u1895
  3534  05C5  084F               	movf	??___fladd+3,w
  3535  05C6  00C7               	movwf	___fladd@b+3
  3536  05C7  084E               	movf	??___fladd+2,w
  3537  05C8  00C6               	movwf	___fladd@b+2
  3538  05C9  084D               	movf	??___fladd+1,w
  3539  05CA  00C5               	movwf	___fladd@b+1
  3540  05CB  084C               	movf	??___fladd,w
  3541  05CC  00C4               	movwf	___fladd@b
  3542  05CD  0A56               	incf	___fladd@bexp,w
  3543  05CE  1903               	btfsc	3,2
  3544  05CF  2DD1               	goto	u1901
  3545  05D0  2DD2               	goto	u1900
  3546  05D1                     u1901:
  3547  05D1  2DD6               	goto	l506
  3548  05D2                     u1900:
  3549  05D2                     l1573:
  3550  05D2  3001               	movlw	1
  3551  05D3  00CC               	movwf	??___fladd
  3552  05D4  084C               	movf	??___fladd,w
  3553  05D5  07D6               	addwf	___fladd@bexp,f
  3554  05D6                     l506:
  3555  05D6  0A56               	incf	___fladd@bexp,w
  3556  05D7  1903               	btfsc	3,2
  3557  05D8  2DDA               	goto	u1911
  3558  05D9  2DDB               	goto	u1910
  3559  05DA                     u1911:
  3560  05DA  2DE0               	goto	l1577
  3561  05DB                     u1910:
  3562  05DB                     l1575:
  3563  05DB  0856               	movf	___fladd@bexp,w
  3564  05DC  1D03               	btfss	3,2
  3565  05DD  2DDF               	goto	u1921
  3566  05DE  2DE0               	goto	u1920
  3567  05DF                     u1921:
  3568  05DF  2DEE               	goto	l1583
  3569  05E0                     u1920:
  3570  05E0                     l1577:
  3571  05E0  3000               	movlw	0
  3572  05E1  00C7               	movwf	___fladd@b+3
  3573  05E2  3000               	movlw	0
  3574  05E3  00C6               	movwf	___fladd@b+2
  3575  05E4  3000               	movlw	0
  3576  05E5  00C5               	movwf	___fladd@b+1
  3577  05E6  3000               	movlw	0
  3578  05E7  00C4               	movwf	___fladd@b
  3579  05E8                     l1579:
  3580  05E8  0856               	movf	___fladd@bexp,w
  3581  05E9  1D03               	btfss	3,2
  3582  05EA  2DEC               	goto	u1931
  3583  05EB  2DED               	goto	u1930
  3584  05EC                     u1931:
  3585  05EC  2DEE               	goto	l1583
  3586  05ED                     u1930:
  3587  05ED                     l1581:
  3588  05ED  01D4               	clrf	___fladd@signs
  3589  05EE                     l1583:
  3590  05EE  1C56               	btfss	___fladd@bexp,0
  3591  05EF  2DF1               	goto	u1941
  3592  05F0  2DF2               	goto	u1940
  3593  05F1                     u1941:
  3594  05F1  2DF4               	goto	l1587
  3595  05F2                     u1940:
  3596  05F2                     l1585:
  3597  05F2  17C6               	bsf	___fladd@b+2,7
  3598  05F3  2DF8               	goto	l514
  3599  05F4                     l1587:
  3600  05F4  307F               	movlw	127
  3601  05F5  00CC               	movwf	??___fladd
  3602  05F6  084C               	movf	??___fladd,w
  3603  05F7  05C6               	andwf	___fladd@b+2,f
  3604  05F8                     l514:
  3605  05F8  0856               	movf	___fladd@bexp,w
  3606  05F9  00CC               	movwf	??___fladd
  3607  05FA  1003               	clrc
  3608  05FB  0C4C               	rrf	??___fladd,w
  3609  05FC  00CD               	movwf	??___fladd+1
  3610  05FD  084D               	movf	??___fladd+1,w
  3611  05FE  00C7               	movwf	___fladd@b+3
  3612  05FF                     l1589:
  3613  05FF  1FD4               	btfss	___fladd@signs,7
  3614  0600  2E02               	goto	u1951
  3615  0601  2E03               	goto	u1950
  3616  0602                     u1951:
  3617  0602  2E04               	goto	l515
  3618  0603                     u1950:
  3619  0603                     l1591:
  3620  0603  17C7               	bsf	___fladd@b+3,7
  3621  0604                     l515:
  3622  0604                     l485:
  3623  0604  0008               	return
  3624  0605                     __end_of___fladd:
  3625                           
  3626                           	psect	text8
  3627  0F1B                     __ptext8:	
  3628 ;; *************** function ___awdiv *****************
  3629 ;; Defined at:
  3630 ;;		line 5 in file "C:\Program Files\Microchip\xc8\v2.31\pic\sources\c90\common\awdiv.c"
  3631 ;; Parameters:    Size  Location     Type
  3632 ;;  divisor         2    3[COMMON] int 
  3633 ;;  dividend        2    5[COMMON] int 
  3634 ;; Auto vars:     Size  Location     Type
  3635 ;;  quotient        2    2[BANK0 ] int 
  3636 ;;  sign            1    1[BANK0 ] unsigned char 
  3637 ;;  counter         1    0[BANK0 ] unsigned char 
  3638 ;; Return value:  Size  Location     Type
  3639 ;;                  2    3[COMMON] int 
  3640 ;; Registers used:
  3641 ;;		wreg, status,2, status,0
  3642 ;; Tracked objects:
  3643 ;;		On entry : 0/0
  3644 ;;		On exit  : 0/0
  3645 ;;		Unchanged: 0/0
  3646 ;; Data sizes:     COMMON   BANK0   BANK1   BANK3   BANK2
  3647 ;;      Params:         4       0       0       0       0
  3648 ;;      Locals:         0       4       0       0       0
  3649 ;;      Temps:          1       0       0       0       0
  3650 ;;      Totals:         5       4       0       0       0
  3651 ;;Total ram usage:        9 bytes
  3652 ;; Hardware stack levels used:    1
  3653 ;; Hardware stack levels required when called:    1
  3654 ;; This function calls:
  3655 ;;		Nothing
  3656 ;; This function is called by:
  3657 ;;		_canales
  3658 ;; This function uses a non-reentrant model
  3659 ;;
  3660                           
  3661                           
  3662                           ;psect for function ___awdiv
  3663  0F1B                     ___awdiv:
  3664  0F1B                     l1319:	
  3665                           ;incstack = 0
  3666                           ; Regs used in ___awdiv: [wreg+status,2+status,0]
  3667                           
  3668  0F1B  1283               	bcf	3,5	;RP0=0, select bank0
  3669  0F1C  1303               	bcf	3,6	;RP1=0, select bank0
  3670  0F1D  01A1               	clrf	___awdiv@sign
  3671  0F1E                     l1321:
  3672  0F1E  1FF4               	btfss	___awdiv@divisor+1,7
  3673  0F1F  2F21               	goto	u1301
  3674  0F20  2F22               	goto	u1300
  3675  0F21                     u1301:
  3676  0F21  2F29               	goto	l1327
  3677  0F22                     u1300:
  3678  0F22                     l1323:
  3679  0F22  09F3               	comf	___awdiv@divisor,f
  3680  0F23  09F4               	comf	___awdiv@divisor+1,f
  3681  0F24  0AF3               	incf	___awdiv@divisor,f
  3682  0F25  1903               	skipnz
  3683  0F26  0AF4               	incf	___awdiv@divisor+1,f
  3684  0F27                     l1325:
  3685  0F27  01A1               	clrf	___awdiv@sign
  3686  0F28  0AA1               	incf	___awdiv@sign,f
  3687  0F29                     l1327:
  3688  0F29  1FF6               	btfss	___awdiv@dividend+1,7
  3689  0F2A  2F2C               	goto	u1311
  3690  0F2B  2F2D               	goto	u1310
  3691  0F2C                     u1311:
  3692  0F2C  2F36               	goto	l1333
  3693  0F2D                     u1310:
  3694  0F2D                     l1329:
  3695  0F2D  09F5               	comf	___awdiv@dividend,f
  3696  0F2E  09F6               	comf	___awdiv@dividend+1,f
  3697  0F2F  0AF5               	incf	___awdiv@dividend,f
  3698  0F30  1903               	skipnz
  3699  0F31  0AF6               	incf	___awdiv@dividend+1,f
  3700  0F32                     l1331:
  3701  0F32  3001               	movlw	1
  3702  0F33  00F7               	movwf	??___awdiv
  3703  0F34  0877               	movf	??___awdiv,w
  3704  0F35  06A1               	xorwf	___awdiv@sign,f
  3705  0F36                     l1333:
  3706  0F36  01A2               	clrf	___awdiv@quotient
  3707  0F37  01A3               	clrf	___awdiv@quotient+1
  3708  0F38                     l1335:
  3709  0F38  0873               	movf	___awdiv@divisor,w
  3710  0F39  0474               	iorwf	___awdiv@divisor+1,w
  3711  0F3A  1903               	btfsc	3,2
  3712  0F3B  2F3D               	goto	u1321
  3713  0F3C  2F3E               	goto	u1320
  3714  0F3D                     u1321:
  3715  0F3D  2F75               	goto	l1355
  3716  0F3E                     u1320:
  3717  0F3E                     l1337:
  3718  0F3E  01A0               	clrf	___awdiv@counter
  3719  0F3F  0AA0               	incf	___awdiv@counter,f
  3720  0F40  2F4C               	goto	l1343
  3721  0F41                     l1339:
  3722  0F41  3001               	movlw	1
  3723  0F42                     u1335:
  3724  0F42  1003               	clrc
  3725  0F43  0DF3               	rlf	___awdiv@divisor,f
  3726  0F44  0DF4               	rlf	___awdiv@divisor+1,f
  3727  0F45  3EFF               	addlw	-1
  3728  0F46  1D03               	skipz
  3729  0F47  2F42               	goto	u1335
  3730  0F48                     l1341:
  3731  0F48  3001               	movlw	1
  3732  0F49  00F7               	movwf	??___awdiv
  3733  0F4A  0877               	movf	??___awdiv,w
  3734  0F4B  07A0               	addwf	___awdiv@counter,f
  3735  0F4C                     l1343:
  3736  0F4C  1FF4               	btfss	___awdiv@divisor+1,7
  3737  0F4D  2F4F               	goto	u1341
  3738  0F4E  2F50               	goto	u1340
  3739  0F4F                     u1341:
  3740  0F4F  2F41               	goto	l1339
  3741  0F50                     u1340:
  3742  0F50                     l1345:
  3743  0F50  3001               	movlw	1
  3744  0F51                     u1355:
  3745  0F51  1003               	clrc
  3746  0F52  0DA2               	rlf	___awdiv@quotient,f
  3747  0F53  0DA3               	rlf	___awdiv@quotient+1,f
  3748  0F54  3EFF               	addlw	-1
  3749  0F55  1D03               	skipz
  3750  0F56  2F51               	goto	u1355
  3751  0F57  0874               	movf	___awdiv@divisor+1,w
  3752  0F58  0276               	subwf	___awdiv@dividend+1,w
  3753  0F59  1D03               	skipz
  3754  0F5A  2F5D               	goto	u1365
  3755  0F5B  0873               	movf	___awdiv@divisor,w
  3756  0F5C  0275               	subwf	___awdiv@dividend,w
  3757  0F5D                     u1365:
  3758  0F5D  1C03               	skipc
  3759  0F5E  2F60               	goto	u1361
  3760  0F5F  2F61               	goto	u1360
  3761  0F60                     u1361:
  3762  0F60  2F68               	goto	l1351
  3763  0F61                     u1360:
  3764  0F61                     l1347:
  3765  0F61  0873               	movf	___awdiv@divisor,w
  3766  0F62  02F5               	subwf	___awdiv@dividend,f
  3767  0F63  0874               	movf	___awdiv@divisor+1,w
  3768  0F64  1C03               	skipc
  3769  0F65  03F6               	decf	___awdiv@dividend+1,f
  3770  0F66  02F6               	subwf	___awdiv@dividend+1,f
  3771  0F67                     l1349:
  3772  0F67  1422               	bsf	___awdiv@quotient,0
  3773  0F68                     l1351:
  3774  0F68  3001               	movlw	1
  3775  0F69                     u1375:
  3776  0F69  1003               	clrc
  3777  0F6A  0CF4               	rrf	___awdiv@divisor+1,f
  3778  0F6B  0CF3               	rrf	___awdiv@divisor,f
  3779  0F6C  3EFF               	addlw	-1
  3780  0F6D  1D03               	skipz
  3781  0F6E  2F69               	goto	u1375
  3782  0F6F                     l1353:
  3783  0F6F  3001               	movlw	1
  3784  0F70  02A0               	subwf	___awdiv@counter,f
  3785  0F71  1D03               	btfss	3,2
  3786  0F72  2F74               	goto	u1381
  3787  0F73  2F75               	goto	u1380
  3788  0F74                     u1381:
  3789  0F74  2F50               	goto	l1345
  3790  0F75                     u1380:
  3791  0F75                     l1355:
  3792  0F75  0821               	movf	___awdiv@sign,w
  3793  0F76  1903               	btfsc	3,2
  3794  0F77  2F79               	goto	u1391
  3795  0F78  2F7A               	goto	u1390
  3796  0F79                     u1391:
  3797  0F79  2F7F               	goto	l1359
  3798  0F7A                     u1390:
  3799  0F7A                     l1357:
  3800  0F7A  09A2               	comf	___awdiv@quotient,f
  3801  0F7B  09A3               	comf	___awdiv@quotient+1,f
  3802  0F7C  0AA2               	incf	___awdiv@quotient,f
  3803  0F7D  1903               	skipnz
  3804  0F7E  0AA3               	incf	___awdiv@quotient+1,f
  3805  0F7F                     l1359:
  3806  0F7F  0823               	movf	___awdiv@quotient+1,w
  3807  0F80  00F4               	movwf	?___awdiv+1
  3808  0F81  0822               	movf	___awdiv@quotient,w
  3809  0F82  00F3               	movwf	?___awdiv
  3810  0F83                     l332:
  3811  0F83  0008               	return
  3812  0F84                     __end_of___awdiv:
  3813                           
  3814                           	psect	text9
  3815  0EA6                     __ptext9:	
  3816 ;; *************** function _isr *****************
  3817 ;; Defined at:
  3818 ;;		line 68 in file "MainFinal.c"
  3819 ;; Parameters:    Size  Location     Type
  3820 ;;		None
  3821 ;; Auto vars:     Size  Location     Type
  3822 ;;		None
  3823 ;; Return value:  Size  Location     Type
  3824 ;;                  1    wreg      void 
  3825 ;; Registers used:
  3826 ;;		wreg, status,2, status,0
  3827 ;; Tracked objects:
  3828 ;;		On entry : 0/0
  3829 ;;		On exit  : 0/0
  3830 ;;		Unchanged: 0/0
  3831 ;; Data sizes:     COMMON   BANK0   BANK1   BANK3   BANK2
  3832 ;;      Params:         0       0       0       0       0
  3833 ;;      Locals:         0       0       0       0       0
  3834 ;;      Temps:          3       0       0       0       0
  3835 ;;      Totals:         3       0       0       0       0
  3836 ;;Total ram usage:        3 bytes
  3837 ;; Hardware stack levels used:    1
  3838 ;; This function calls:
  3839 ;;		Nothing
  3840 ;; This function is called by:
  3841 ;;		Interrupt level 1
  3842 ;; This function uses a non-reentrant model
  3843 ;;
  3844                           
  3845                           
  3846                           ;psect for function _isr
  3847  0EA6                     _isr:
  3848  0EA6                     i1l1255:
  3849                           
  3850                           ;MainFinal.c: 69:     if(PIR1bits.ADIF == 1){
  3851  0EA6  1283               	bcf	3,5	;RP0=0, select bank0
  3852  0EA7  1303               	bcf	3,6	;RP1=0, select bank0
  3853  0EA8  1F0C               	btfss	12,6	;volatile
  3854  0EA9  2EAB               	goto	u123_21
  3855  0EAA  2EAC               	goto	u123_20
  3856  0EAB                     u123_21:
  3857  0EAB  2EB1               	goto	i1l1261
  3858  0EAC                     u123_20:
  3859  0EAC                     i1l1257:
  3860                           
  3861                           ;MainFinal.c: 70:         VAL = ADRESH;
  3862  0EAC  081E               	movf	30,w	;volatile
  3863  0EAD  00F0               	movwf	??_isr
  3864  0EAE  0870               	movf	??_isr,w
  3865  0EAF  00FA               	movwf	_VAL
  3866  0EB0                     i1l1259:
  3867                           
  3868                           ;MainFinal.c: 71:         PIR1bits.ADIF = 0;
  3869  0EB0  130C               	bcf	12,6	;volatile
  3870  0EB1                     i1l1261:
  3871                           
  3872                           ;MainFinal.c: 74:     if(INTCONbits.T0IF == 1){
  3873  0EB1  1D0B               	btfss	11,2	;volatile
  3874  0EB2  2EB4               	goto	u124_21
  3875  0EB3  2EB5               	goto	u124_20
  3876  0EB4                     u124_21:
  3877  0EB4  2ECA               	goto	i1l1277
  3878  0EB5                     u124_20:
  3879  0EB5                     i1l1263:
  3880                           
  3881                           ;MainFinal.c: 75:         PWM1++;
  3882  0EB5  3001               	movlw	1
  3883  0EB6  00F0               	movwf	??_isr
  3884  0EB7  0870               	movf	??_isr,w
  3885  0EB8  07F8               	addwf	_PWM1,f
  3886  0EB9                     i1l1265:
  3887                           
  3888                           ;MainFinal.c: 77:        if(PWM1 >= 200){
  3889  0EB9  30C8               	movlw	200
  3890  0EBA  0278               	subwf	_PWM1,w
  3891  0EBB  1C03               	skipc
  3892  0EBC  2EBE               	goto	u125_21
  3893  0EBD  2EBF               	goto	u125_20
  3894  0EBE                     u125_21:
  3895  0EBE  2EC1               	goto	i1l1271
  3896  0EBF                     u125_20:
  3897  0EBF                     i1l1267:
  3898                           
  3899                           ;MainFinal.c: 78:             PORTCbits.RC3 = 1;
  3900  0EBF  1587               	bsf	7,3	;volatile
  3901  0EC0                     i1l1269:
  3902                           
  3903                           ;MainFinal.c: 79:             PWM1 = 0;
  3904  0EC0  01F8               	clrf	_PWM1
  3905  0EC1                     i1l1271:
  3906                           
  3907                           ;MainFinal.c: 81:        if(PWM1 >= POT3){
  3908  0EC1  0879               	movf	_POT3,w
  3909  0EC2  0278               	subwf	_PWM1,w
  3910  0EC3  1C03               	skipc
  3911  0EC4  2EC6               	goto	u126_21
  3912  0EC5  2EC7               	goto	u126_20
  3913  0EC6                     u126_21:
  3914  0EC6  2EC8               	goto	i1l1275
  3915  0EC7                     u126_20:
  3916  0EC7                     i1l1273:
  3917                           
  3918                           ;MainFinal.c: 82:             PORTCbits.RC3 = 0;
  3919  0EC7  1187               	bcf	7,3	;volatile
  3920  0EC8                     i1l1275:
  3921                           
  3922                           ;MainFinal.c: 84:            TMR0 = 156;
  3923  0EC8  309C               	movlw	156
  3924  0EC9  0081               	movwf	1	;volatile
  3925  0ECA                     i1l1277:
  3926                           
  3927                           ;MainFinal.c: 86:     INTCONbits.T0IF = 0;
  3928  0ECA  110B               	bcf	11,2	;volatile
  3929  0ECB                     i1l1279:
  3930                           
  3931                           ;MainFinal.c: 87:     PIR1bits.TMR2IF = 0;
  3932  0ECB  108C               	bcf	12,1	;volatile
  3933  0ECC                     i1l71:
  3934  0ECC  0872               	movf	??_isr+2,w
  3935  0ECD  008A               	movwf	10
  3936  0ECE  0E71               	swapf	??_isr+1,w
  3937  0ECF  0083               	movwf	3
  3938  0ED0  0EFE               	swapf	btemp,f
  3939  0ED1  0E7E               	swapf	btemp,w
  3940  0ED2  0009               	retfie
  3941  0ED3                     __end_of_isr:
  3942  007E                     btemp	set	126	;btemp
  3943  007E                     wtemp0	set	126
  3944                           
  3945                           	psect	intentry
  3946  0004                     __pintentry:	
  3947                           ;incstack = 0
  3948                           ; Regs used in _isr: [wreg+status,2+status,0]
  3949                           
  3950  0004                     interrupt_function:
  3951  007E                     saved_w	set	btemp
  3952  0004  00FE               	movwf	btemp
  3953  0005  0E03               	swapf	3,w
  3954  0006  00F1               	movwf	??_isr+1
  3955  0007  080A               	movf	10,w
  3956  0008  00F2               	movwf	??_isr+2
  3957  0009  120A  158A  2EA6   	ljmp	_isr
  3958                           
  3959                           	psect	config
  3960                           
  3961                           ;Config register CONFIG1 @ 0x2007
  3962                           ;	Oscillator Selection bits
  3963                           ;	FOSC = INTRC_NOCLKOUT, INTOSCIO oscillator: I/O function on RA6/OSC2/CLKOUT pin, I/O f
      +                          unction on RA7/OSC1/CLKIN
  3964                           ;	Watchdog Timer Enable bit
  3965                           ;	WDTE = OFF, WDT disabled and can be enabled by SWDTEN bit of the WDTCON register
  3966                           ;	Power-up Timer Enable bit
  3967                           ;	PWRTE = OFF, PWRT disabled
  3968                           ;	RE3/MCLR pin function select bit
  3969                           ;	MCLRE = OFF, RE3/MCLR pin function is digital input, MCLR internally tied to VDD
  3970                           ;	Code Protection bit
  3971                           ;	CP = OFF, Program memory code protection is disabled
  3972                           ;	Data Code Protection bit
  3973                           ;	CPD = OFF, Data memory code protection is disabled
  3974                           ;	Brown Out Reset Selection bits
  3975                           ;	BOREN = OFF, BOR disabled
  3976                           ;	Internal External Switchover bit
  3977                           ;	IESO = OFF, Internal/External Switchover mode is disabled
  3978                           ;	Fail-Safe Clock Monitor Enabled bit
  3979                           ;	FCMEN = OFF, Fail-Safe Clock Monitor is disabled
  3980                           ;	Low Voltage Programming Enable bit
  3981                           ;	LVP = OFF, RB3 pin has digital I/O, HV on MCLR must be used for programming
  3982                           ;	In-Circuit Debugger Mode bit
  3983                           ;	DEBUG = 0x1, unprogrammed default
  3984  2007                     	org	8199
  3985  2007  20D4               	dw	8404
  3986                           
  3987                           ;Config register CONFIG2 @ 0x2008
  3988                           ;	Brown-out Reset Selection bit
  3989                           ;	BOR4V = BOR40V, Brown-out Reset set to 4.0V
  3990                           ;	Flash Program Memory Self Write Enable bits
  3991                           ;	WRT = OFF, Write protection off
  3992  2008                     	org	8200
  3993  2008  3FFF               	dw	16383

Data Sizes:
    Strings     0
    Constant    0
    Data        0
    BSS         7
    Persistent  0
    Stack       0

Auto Spaces:
    Space          Size  Autos    Used
    COMMON           14      8      11
    BANK0            80     72      76
    BANK1            80      0       0
    BANK3            96      0       0
    BANK2            96      0       0

Pointer List with Targets:

    None.

Critical Paths under _main in COMMON

    _canales->___awdiv
    ___fltol->___xxtofl
    ___flmul->__Umul8_16
    ___flmul->___xxtofl
    ___fladd->___xxtofl

Critical Paths under _isr in COMMON

    None.

Critical Paths under _main in BANK0

    _main->_canales
    _canales->___fltol
    ___fltol->___fladd
    ___flmul->___xxtofl
    ___fladd->___flmul

Critical Paths under _isr in BANK0

    None.

Critical Paths under _main in BANK1

    None.

Critical Paths under _isr in BANK1

    None.

Critical Paths under _main in BANK3

    None.

Critical Paths under _isr in BANK3

    None.

Critical Paths under _main in BANK2

    None.

Critical Paths under _isr in BANK2

    None.

Call Graph Tables:

 ---------------------------------------------------------------------------------
 (Depth) Function   	        Calls       Base Space   Used Autos Params    Refs
 ---------------------------------------------------------------------------------
 (0) _main                                                 0     0      0    6596
                            _canales
                              _setup
 ---------------------------------------------------------------------------------
 (1) _setup                                                1     1      0       0
                                              3 COMMON     1     1      0
 ---------------------------------------------------------------------------------
 (1) _canales                                              5     5      0    6596
                                             67 BANK0      5     5      0
                            ___awdiv
                            ___fladd
                            ___flmul
                            ___fltol
                           ___xxtofl
 ---------------------------------------------------------------------------------
 (2) ___xxtofl                                            14    10      4     656
                                              3 COMMON     4     0      4
                                              0 BANK0     10    10      0
 ---------------------------------------------------------------------------------
 (2) ___fltol                                             11     7      4     381
                                             56 BANK0     11     7      4
                            ___fladd (ARG)
                            ___flmul (ARG)
                           ___xxtofl (ARG)
 ---------------------------------------------------------------------------------
 (2) ___flmul                                             26    18      8    2569
                                             10 BANK0     26    18      8
                          __Umul8_16
                           ___xxtofl (ARG)
 ---------------------------------------------------------------------------------
 (3) __Umul8_16                                            9     7      2     799
                                              3 COMMON     4     2      2
                                              0 BANK0      5     5      0
 ---------------------------------------------------------------------------------
 (2) ___fladd                                             20    12      8    2414
                                             36 BANK0     20    12      8
                            ___flmul (ARG)
                           ___xxtofl (ARG)
 ---------------------------------------------------------------------------------
 (2) ___awdiv                                              9     5      4     452
                                              3 COMMON     5     1      4
                                              0 BANK0      4     4      0
 ---------------------------------------------------------------------------------
 Estimated maximum stack depth 3
 ---------------------------------------------------------------------------------
 (Depth) Function   	        Calls       Base Space   Used Autos Params    Refs
 ---------------------------------------------------------------------------------
 (4) _isr                                                  3     3      0       0
                                              0 COMMON     3     3      0
 ---------------------------------------------------------------------------------
 Estimated maximum stack depth 4
 ---------------------------------------------------------------------------------

 Call Graph Graphs:

 _main (ROOT)
   _canales
     ___awdiv
     ___fladd
       ___flmul (ARG)
         __Umul8_16
         ___xxtofl (ARG)
       ___xxtofl (ARG)
     ___flmul
       __Umul8_16
       ___xxtofl (ARG)
     ___fltol
       ___fladd (ARG)
         ___flmul (ARG)
           __Umul8_16
           ___xxtofl (ARG)
         ___xxtofl (ARG)
       ___flmul (ARG)
         __Umul8_16
         ___xxtofl (ARG)
       ___xxtofl (ARG)
     ___xxtofl
   _setup

 _isr (ROOT)

 Address spaces:
Name               Size   Autos  Total    Cost      Usage
BITCOMMON            E      0       0       0        0.0%
EEDATA             100      0       0       0        0.0%
NULL                 0      0       0       0        0.0%
CODE                 0      0       0       0        0.0%
COMMON               E      8       B       1       78.6%
BITSFR0              0      0       0       1        0.0%
SFR0                 0      0       0       1        0.0%
BITSFR1              0      0       0       2        0.0%
SFR1                 0      0       0       2        0.0%
STACK                0      0       0       2        0.0%
ABS                  0      0      57       3        0.0%
BITBANK0            50      0       0       4        0.0%
BITSFR3              0      0       0       4        0.0%
SFR3                 0      0       0       4        0.0%
BANK0               50     48      4C       5       95.0%
BITSFR2              0      0       0       5        0.0%
SFR2                 0      0       0       5        0.0%
BITBANK1            50      0       0       6        0.0%
BANK1               50      0       0       7        0.0%
BITBANK3            60      0       0       8        0.0%
BANK3               60      0       0       9        0.0%
BITBANK2            60      0       0      10        0.0%
BANK2               60      0       0      11        0.0%
DATA                 0      0      57      12        0.0%


Microchip Technology PIC Macro Assembler V2.31 build 20201012212115 
Symbol Table                                                                                   Sat May 29 17:36:54 2021

                     l90 069A                       l74 0F1A                       _S1 006A  
                     _S2 0068                       l93 0726                       l89 0690  
           ___awdiv@sign 0021      __Umul8_16@word_mpld 0022                      l332 0F83  
                    l503 0598                      l514 05F8                      l506 05D6  
                    l515 0604                      l372 0FEA                      l612 074B  
                    l365 0FFF                      l614 07E2                      l375 0FFF  
                    l472 03E0                      l625 07AC                      l626 07B8  
                    l618 0790                      l476 0487                      l580 0370  
                    l493 0552                      l485 0604                      l478 045E  
                    l574 02E8                      l568 037C                      l497 0576  
                    l587 0E93                      l589 0EA5                      _PR2 0092  
                    _VAL 007A                      _isr 0EA6             ___flmul@aexp 003C  
           ___flmul@bexp 003D             ___flmul@sign 0037             ___flmul@temp 0042  
           ___flmul@prod 003E             ___fltol@exp1 0062                     l1201 0F10  
                   l1203 0F11                     l1205 0F12                     l1311 0E8D  
                   l1207 0F14                     l1321 0F1E                     l1401 0384  
                   l1313 0E9C                     l1305 0E80                     l1209 0F18  
                   l1161 0ED8                     l1331 0F32                     l1323 0F22  
                   l1411 0399                     l1403 038A                     l1315 0EA1  
                   l1307 0E82                     l1171 0EEC                     l1163 0EE5  
                   l1341 0F48                     l1333 0F36                     l1325 0F27  
                   l1421 03B1                     l1413 03A1                     l1405 038E  
                   l1309 0E89                     l1181 0EF3                     l1173 0EED  
                   l1165 0EE9                     l1157 0ED3                     l1351 0F68  
                   l1343 0F4C                     l1335 0F38                     l1327 0F29  
                   l1319 0F1B                     l1511 04C1                     l1503 0499  
                   l1431 03C3                     l1423 03B7                     l1415 03A2  
                   l1407 038F                     l1191 0F02                     l1183 0EF6  
                   l1175 0EF0                     l1167 0EEA                     l1159 0ED7  
                   l1353 0F6F                     l1345 0F50                     l1337 0F3E  
                   l1329 0F2D                     l1513 04C3                     l1505 04B0  
                   l1521 04D6                     l1433 03C8                     l1441 03D8  
                   l1425 03B8                     l1409 0394                     l1417 03A4  
                   l1601 002E                     l1193 0F05                     l1185 0EF8  
                   l1177 0EF1                     l1169 0EEB                     l1347 0F61  
                   l1339 0F41                     l1355 0F75                     l1523 04EC  
                   l1531 0544                     l1515 04C7                     l1507 04B4  
                   l1451 03F6                     l1443 03E6                     l1435 03CD  
                   l1427 03BE                     l1419 03AC                     l1611 004A  
                   l1603 0033                     l1371 0FAF                     l1363 0F84  
                   l1195 0F08                     l1187 0EFA                     l1179 0EF2  
                   l1357 0F7A                     l1349 0F67                     l1541 0571  
                   l1533 055A                     l1525 052A                     l1517 04C8  
                   l1509 04B8                     l1461 040A                     l1453 03FA  
                   l1445 03EA                     l1437 03D5                     l1429 03C2  
                   l1701 02ED                     l1621 005F                     l1613 004F  
                   l1605 0038                     l1373 0FB0                     l1365 0F91  
                   l1197 0F09                     l1189 0EFE                     l1359 0F7F  
                   l1551 0584                     l1543 0575                     l1535 055F  
                   l1527 0530                     l1519 04D1                     l1471 041E  
                   l1463 040E                     l1455 03FE                     l1447 03EE  
                   l1439 03D6                     l1703 02F2                     l1711 0323  
                   l1631 007B                     l1623 0064                     l1615 0055  
                   l1607 0040                     l1375 0FB8                     l1199 0F0D  
                   l1561 0595                     l1545 057A                     l1553 0586  
                   l1529 0535                     l1481 0442                     l1473 0422  
                   l1465 0412                     l1457 0402                     l1449 03F2  
                   l1721 0356                     l1713 0330                     l1705 0300  
                   l1641 00A6                     l1633 0080                     l1625 006C  
                   l1617 0059                     l1609 0042                     l1393 0FDF  
                   l1385 0FC6                     l1377 0FBA                     l1369 0F9A  
                   l1571 05B4                     l1547 057D                     l1539 0568  
                   l1555 058A                     l1491 0472                     l1483 0462  
                   l1475 0426                     l1467 0416                     l1459 0406  
                   l1723 0364                     l1715 033B                     l1707 0304  
                   l1651 0143                     l1643 00C3                     l1627 006E  
                   l1619 005A                     l1395 0FEF                     l1379 0FBE  
                   l1387 0FD8                     l1581 05ED                     l1573 05D2  
                   l1565 059D                     l1557 058B                     l1549 057F  
                   l1493 047B                     l1485 046B                     l1469 041A  
                   l1477 042A                     l1725 0368                     l1717 034A  
                   l1709 031D                     l1661 01A6                     l1653 014C  
                   l1645 00DF                     l1637 0089                     l1629 0076  
                   l1397 0FF4                     l1901 0608                     l1591 0603  
                   l1583 05EE                     l1575 05DB                     l1567 05A2  
                   l1559 058F                     l1487 046D                     l1495 047F  
                   l1479 042B                     l1399 037D                     l1727 0369  
                   l1719 0354                     l1671 0246                     l1663 01BF  
                   l1655 015C                     l1647 010B                     l1639 0099  
                   l1911 066C                     l1903 0609                     l1585 05F2  
                   l1577 05E0                     l1569 05B0                     l1497 048B  
                   l1489 0471                     l1729 0374                     l1681 02B4  
                   l1673 026C                     l1665 01DC                     l1657 0179  
                   l1649 0127                     l1593 001C                     l1921 069C  
                   l1913 0670                     l1905 065F                     l1587 05F4  
                   l1579 05E8                     l1499 0490                     l1691 02CC  
                   l1683 02B8                     l1675 0294                     l1667 0209  
                   l1659 0189                     l1595 0023                     l1931 0703  
                   l1923 06A0                     l1915 0686                     l1907 0661  
                   l1589 05FF                     l1693 02CD                     l1685 02B9  
                   l1677 029D                     l1669 0219                     l1597 0029  
                   l1861 0733                     l1933 0705                     l1925 06A7  
                   l1917 068C                     l1909 0665                     l1695 02D1  
                   l1687 02C2                     l1679 02AB                     l1599 002D  
                   l1871 0761                     l1863 0743                     l1935 070C  
                   l1927 06AB                     l1919 0696                     l1697 02E5  
                   l1689 02C8                     l1881 0797                     l1873 076E  
                   l1865 0753                     l1857 072A                     l1929 0701  
                   l1891 07D0                     l1883 07A2                     l1875 0775  
                   l1859 072F                     l1939 0710                     l1947 07E3  
                   l1893 07D5                     l1885 07A6                     l1877 0779  
                   l1869 075C                     l1981 071B                     l1949 07E8  
                   l1895 07D9                     l1887 07B0                     l1879 0787  
                   l1897 07DA                     l1889 07BA                     ?_isr 0070  
                   u2000 005F                     u2001 005E                     u2010 0064  
                   u2011 0063                     u1300 0F22                     u2020 007B  
                   u1301 0F21                     u2101 0198                     u2021 007A  
                   u1310 0F2D                     u2102 019F                     u2030 0080  
                   u1311 0F2C                     u2103 01A6                     u2031 007F  
                   u1320 0F3E                     u1400 0F91                     u1321 0F3D  
                   u2121 01CE                     u2041 00D1                     u1401 0F90  
                   u2210 02B8                     u2122 01D5                     u2042 00D8  
                   u1410 0FA8                     u2211 02B7                     u2131 01FB  
                   u2123 01DC                     u2115 01A8                     u2051 00ED  
                   u2043 00DF                     u1340 0F50                     u1500 038E  
                   u2300 0330                     u2132 0202                     u2052 00F4  
                   u1420 0FBE                     u1341 0F4F                     u1501 038D  
                   u2301 032F                     u2205 02AD                     u2141 0228  
                   u2133 0209                     u2061 0119                     u2053 00FB  
                   u1421 0FBD                     u1510 0394                     u1270 0E8D  
                   u2310 034A                     u2230 02CC                     u2150 0252  
                   u2142 022F                     u2062 0120                     u1430 0FC5  
                   u1335 0F42                     u1511 0393                     u1271 0E8C  
                   u2311 0349                     u2231 02CB                     u2143 0236  
                   u2071 0135                     u2063 0127                     u1431 0FC4  
                   u1415 0FA3                     u1360 0F61                     u1600 044D  
                   u1520 0399                     u2320 0368                     u2240 02D1  
                   u2072 013C                     u1361 0F60                     u1601 044B  
                   u1521 0398                     u2321 0367                     u2305 032C  
                   u2241 02D0                     u2225 02BB                     u2161 025E  
                   u2073 0143                     u1610 044E                     u1530 03B7  
                   u1290 0EA1                     u2250 02E5                     u2170 027A  
                   u2162 0265                     u1450 0FD7                     u1355 0F51  
                   u1531 03B6                     u1291 0EA0                     u2315 0346  
                   u2251 02E4                     u2163 026C                     u2155 024D  
                   u2091 016B                     u1451 0FD6                     u1380 0F75  
                   u1700 04B8                     u1620 0462                     u1540 03C2  
                   u2260 02EC                     u2092 0172                     u1460 0FDE  
                   u2500 0733                     u1381 0F74                     u1365 0F5D  
                   u1701 04B7                     u1621 0461                     u1541 03C1  
                   u1285 0E94                     u2261 02EB                     u2181 0286  
                   u2093 0179                     u2085 0145                     u1461 0FDD  
                   u1445 0FC7                     u2501 0732                     u1390 0F7A  
                   u1710 04C7                     u1630 0471                     u1550 03C8  
                   u2270 02F2                     u2182 028D                     u2510 0753  
                   u1391 0F79                     u1375 0F69                     u1711 04C6  
                   u1631 0470                     u1551 03C7                     u2271 02F1  
                   u2183 0294                     u2175 0275                     u2511 0752  
                   u1800 0575                     u1560 03CD                     u2280 0304  
                   u1480 0FEF                     u2600 07C5                     u1801 0574  
                   u1561 03CC                     u2281 0303                     u1481 0FEE  
                   u1810 057A                     u1730 04EC                     u1650 0487  
                   u1570 03E6                     u2290 0313                     u1490 0FF4  
                   u2610 07D5                     u2530 0774                     u1811 0579  
                   u1731 04EB                     u1651 0486                     u1571 03E5  
                   u2195 0296                     u1491 0FF3                     u1475 0FE1  
                   u2611 07D4                     u2531 0773                     u1900 05D2  
                   u1820 0584                     u1660 048B                     u1580 03EA  
                   u2620 07D9                     u1901 05D1                     u1821 0583  
                   u1741 0503                     u1733 04E8                     u1725 04CA  
                   u1661 048A                     u1645 0474                     u1581 03E9  
                   u2621 07D8                     u2605 07C0                     u2525 0766  
                   u1910 05DB                     u1830 058A                     u1750 0517  
                   u1742 0504                     u1670 0490                     u1590 0442  
                   u2550 0796                     u2630 068C                     u1911 05DA  
                   u1831 0589                     u1751 0518                     u1743 0509  
                   u1671 048F                     u1591 0441                     u2295 030E  
                   u2551 0795                     u2631 068B                     u1920 05E0  
                   u1840 058F                     u1760 0535                     u1752 051D  
                   u1744 050A                     u2640 0696                     u1921 05DF  
                   u1841 058E                     u1761 0534                     u1753 051E  
                   u1745 050F                     u1681 04A2                     u2545 0788  
                   u2641 0695                     u1930 05ED                     u1850 0595  
                   u1770 055A                     u1746 0510                     u1690 04B4  
                   u1682 04A9                     u2570 07A6                     u2490 072F  
                   u1931 05EC                     u1851 0594                     u1771 0559  
                   u1691 04B3                     u1683 04B0                     u1595 043E  
                   u2571 07A5                     u2491 072E                     u1940 05F2  
                   u1860 059C                     u1780 055F                     u2580 07AC  
                   u1941 05F1                     u1861 059B                     u1781 055E  
                   u2581 07AB                     u2565 079B                     u1950 0603  
                   u1870 05A2                     u2590 07B0                     u1951 0602  
                   u1871 05A1                     u2591 07AF                     u1880 05B4  
                   u1960 002D                     u1881 05B3                     u1961 002C  
                   u2657 0F00                     u1890 05C3                     u1970 0033  
                   u1795 056A                     u1971 0032                     u2667 0669  
                   u1980 0038                     u1981 0037                     u2677 06A4  
                   u1990 0059                     u1895 05BE                     u1991 0058  
                   u2687 0709                     i1l71 0ECC                     _POT3 0079  
                   _PWM1 0078                     _TMR0 0001                     _main 07E3  
                   btemp 007E                     start 000C                    ??_isr 0070  
          ___fltol@sign1 0061          __end_of___fladd 0605                    ?_main 0070  
        __end_of___awdiv 0F84          __end_of___flmul 037D          __end_of___fltol 1000  
                  _ANSEL 0188          ___awdiv@divisor 0073                    _T2CON 0012  
        ___awdiv@counter 0020                    _PORTA 0005                    _PORTC 0007  
                  _PORTD 0008          __end_of_canales 0727                    _TRISA 0085  
                  _TRISC 0087                    _TRISD 0088                    _setup 0ED3  
                  pclath 000A                    status 0003                    wtemp0 007E  
        __initialization 000F             __end_of_main 07F2                   ??_main 0078  
                 _ADRESH 001E                   _CCPR1L 0015                   _CCPR2L 001B  
       ___awdiv@dividend 0075                   ?_setup 0070                   _ANSELH 0189  
                 i1l1261 0EB1                   i1l1271 0EC1                   i1l1263 0EB5  
                 i1l1255 0EA6                   i1l1273 0EC7                   i1l1265 0EB9  
                 i1l1257 0EAC                   i1l1275 0EC8                   i1l1267 0EBF  
                 i1l1259 0EB0                   i1l1269 0EC0                   i1l1277 0ECA  
                 i1l1279 0ECB                   u123_20 0EAC                   u123_21 0EAB  
                 u124_20 0EB5                   u124_21 0EB4                   u125_20 0EBF  
                 u125_21 0EBE                   u126_20 0EC7                   u126_21 0EC6  
       __end_of___xxtofl 07E3                ??___fladd 004C                ??___awdiv 0077  
              ??___flmul 0032                ??___fltol 005C                ??_canales 0063  
       ___awdiv@quotient 0022       __size_of__Umul8_16 0029                   saved_w 007E  
           ___xxtofl@arg 0026             ___xxtofl@exp 0025             ___xxtofl@val 0073  
__end_of__initialization 0018               ___fltol@f1 0058           __pcstackCOMMON 0070  
          __end_of_setup 0F1B                  ??_setup 0073               __pbssBANK0 0068  
      __end_of__Umul8_16 0EA6               __pmaintext 07E3               __pintentry 0004  
                _CCP1CON 0017                  _CCP2CON 001D                ?___xxtofl 0073  
             canales@VAL 0067                  ___fladd 037D                  ___awdiv 0F1B  
                ___flmul 001C                  ___fltol 0F84                  _canales 0605  
                __ptext1 0ED3                  __ptext2 0605                  __ptext3 0727  
                __ptext4 0F84                  __ptext5 001C                  __ptext6 0E7D  
                __ptext7 037D                  __ptext8 0F1B                  __ptext9 0EA6  
           __size_of_isr 002D               ??___xxtofl 0020     end_of_initialization 0018  
              _PORTCbits 0007              ___fladd@grs 0057            ___xxtofl@sign 0024  
            ___flmul@grs 0038      start_initialization 000F              __end_of_isr 0ED3  
              __Umul8_16 0E7D                ___fladd@a 0048                ___fladd@b 0044  
              ___flmul@a 002E                ___flmul@b 002A              __pbssCOMMON 0078  
              ___latbits 0002            __pcstackBANK0 0020        __size_of___xxtofl 00BC  
               ?___fladd 0044                 ?___awdiv 0073                 ?___flmul 002A  
               ?___fltol 0058               ?__Umul8_16 0073                 ?_canales 0070  
         __size_of_setup 0048        interrupt_function 0004                 _PIE1bits 008C  
               _PIR1bits 000C               _ADCON0bits 001F               _ADCON1bits 009F  
            ??__Umul8_16 0075         __size_of___fladd 0288         __size_of___awdiv 0069  
       __size_of___flmul 0361         __size_of___fltol 007C         __size_of_canales 0122  
               ___xxtofl 0727            __size_of_main 000F               _INTCONbits 000B  
               intlevel1 0000               _OSCCONbits 008F   __Umul8_16@multiplicand 0073  
             _OPTION_REG 0081            ___fladd@signs 0054             ___fladd@aexp 0055  
           ___fladd@bexp 0056     __Umul8_16@multiplier 0024        __Umul8_16@product 0020  
