

Microchip MPLAB XC8 Assembler V2.31 build 20201012212115 
                                                                                               Fri Jun 04 04:50:31 2021

Microchip MPLAB XC8 C Compiler v2.31 (Free license) build 20201012212115 Og1 
     1                           	processor	16F887
     2                           	pagewidth 120
     3                           	opt	flic
     4                           	psect	idataBANK2,global,class=CODE,delta=2,noexec
     5                           	psect	idataBANK3,global,class=CODE,delta=2,noexec
     6                           	psect	cinit,global,class=CODE,merge=1,delta=2
     7                           	psect	bssBANK0,global,class=BANK0,space=1,delta=1,noexec
     8                           	psect	bssBANK1,global,class=BANK1,space=1,delta=1,noexec
     9                           	psect	bssBANK3,global,class=BANK3,space=1,delta=1,noexec
    10                           	psect	dataBANK3,global,class=BANK3,space=1,delta=1,noexec
    11                           	psect	dataBANK2,global,class=BANK2,space=1,delta=1,noexec
    12                           	psect	inittext,global,class=CODE,delta=2
    13                           	psect	cstackBANK1,global,class=BANK1,space=1,delta=1,noexec
    14                           	psect	cstackCOMMON,global,class=COMMON,space=1,delta=1,noexec
    15                           	psect	cstackBANK0,global,class=BANK0,space=1,delta=1,noexec
    16                           	psect	maintext,global,class=CODE,split=1,delta=2
    17                           	psect	text1,local,class=CODE,merge=1,delta=2
    18                           	psect	text2,local,class=CODE,merge=1,delta=2
    19                           	psect	text3,local,class=CODE,merge=1,delta=2,group=1
    20                           	psect	text4,local,class=CODE,merge=1,delta=2,group=1
    21                           	psect	text5,local,class=CODE,merge=1,delta=2,group=1
    22                           	psect	text6,local,class=CODE,merge=1,delta=2,group=1
    23                           	psect	text7,local,class=CODE,merge=1,delta=2,group=1
    24                           	psect	text8,local,class=CODE,merge=1,delta=2
    25                           	psect	intentry,global,class=CODE,delta=2
    26                           	psect	text9,local,class=CODE,merge=1,delta=2
    27                           	psect	text10,local,class=CODE,merge=1,delta=2
    28                           	psect	text11,local,class=CODE,merge=1,delta=2
    29                           	psect	text12,local,class=CODE,merge=1,delta=2
    30                           	psect	text13,local,class=CODE,merge=1,delta=2
    31                           	psect	text14,local,class=CODE,merge=1,delta=2
    32                           	psect	text15,local,class=CODE,merge=1,delta=2
    33                           	psect	text16,local,class=CODE,merge=1,delta=2
    34                           	psect	text17,local,class=CODE,merge=1,delta=2
    35                           	psect	text18,local,class=CODE,merge=1,delta=2
    36                           	psect	text19,local,class=CODE,merge=1,delta=2
    37                           	psect	text20,local,class=CODE,merge=1,delta=2
    38                           	psect	text21,local,class=CODE,merge=1,delta=2
    39                           	psect	config,global,abs,ovrld,class=CONFIG,space=4,delta=2,noexec
    40                           	dabs	1,0x7E,2
    41  0000                     
    42                           ; Version 2.20
    43                           ; Generated 12/02/2020 GMT
    44                           ; 
    45                           ; Copyright © 2020, Microchip Technology Inc. and its subsidiaries ("Microchip")
    46                           ; All rights reserved.
    47                           ; 
    48                           ; This software is developed by Microchip Technology Inc. and its subsidiaries ("Microch
      +                          ip").
    49                           ; 
    50                           ; Redistribution and use in source and binary forms, with or without modification, are
    51                           ; permitted provided that the following conditions are met:
    52                           ; 
    53                           ;     1. Redistributions of source code must retain the above copyright notice, this lis
      +                          t of
    54                           ;        conditions and the following disclaimer.
    55                           ; 
    56                           ;     2. Redistributions in binary form must reproduce the above copyright notice, this 
      +                          list
    57                           ;        of conditions and the following disclaimer in the documentation and/or other
    58                           ;        materials provided with the distribution.
    59                           ; 
    60                           ;     3. Microchip's name may not be used to endorse or promote products derived from th
      +                          is
    61                           ;        software without specific prior written permission.
    62                           ; 
    63                           ; THIS SOFTWARE IS PROVIDED BY MICROCHIP "AS IS" AND ANY EXPRESS OR IMPLIED WARRANTIES,
    64                           ; INCLUDING, BUT NOT LIMITED TO, THE IMPLIED WARRANTIES OF MERCHANTABILITY AND FITNESS F
      +                          OR
    65                           ; PURPOSE ARE DISCLAIMED.  IN NO EVENT SHALL MICROCHIP BE LIABLE FOR ANY DIRECT, INDIREC
      +                          T,
    66                           ; INCIDENTAL, SPECIAL, EXEMPLARY, OR CONSEQUENTIAL DAMAGES (INCLUDING BUT NOT LIMITED TO
    67                           ; PROCUREMENT OF SUBSTITUTE GOODS OR SERVICES; LOSS OF USE, DATA OR PROFITS; OR BUSINESS
    68                           ; INTERRUPTION) HOWSOEVER CAUSED AND ON ANY THEORY OF LIABILITY, WHETHER IN CONTRACT, ST
      +                          RICT
    69                           ; LIABILITY, OR TORT (INCLUDING NEGLIGENCE OR OTHERWISE) ARISING IN ANY WAY OUT OF THE U
      +                          SE OF
    70                           ; THIS SOFTWARE, EVEN IF ADVISED OF THE POSSIBILITY OF SUCH DAMAGE.
    71                           ; 
    72                           ; 
    73                           ; Code-generator required, PIC16F887 Definitions
    74                           ; 
    75                           ; SFR Addresses
    76  0000                     	;# 
    77  0001                     	;# 
    78  0002                     	;# 
    79  0003                     	;# 
    80  0004                     	;# 
    81  0005                     	;# 
    82  0006                     	;# 
    83  0007                     	;# 
    84  0008                     	;# 
    85  0009                     	;# 
    86  000A                     	;# 
    87  000B                     	;# 
    88  000C                     	;# 
    89  000D                     	;# 
    90  000E                     	;# 
    91  000E                     	;# 
    92  000F                     	;# 
    93  0010                     	;# 
    94  0011                     	;# 
    95  0012                     	;# 
    96  0013                     	;# 
    97  0014                     	;# 
    98  0015                     	;# 
    99  0015                     	;# 
   100  0016                     	;# 
   101  0017                     	;# 
   102  0018                     	;# 
   103  0019                     	;# 
   104  001A                     	;# 
   105  001B                     	;# 
   106  001B                     	;# 
   107  001C                     	;# 
   108  001D                     	;# 
   109  001E                     	;# 
   110  001F                     	;# 
   111  0081                     	;# 
   112  0085                     	;# 
   113  0086                     	;# 
   114  0087                     	;# 
   115  0088                     	;# 
   116  0089                     	;# 
   117  008C                     	;# 
   118  008D                     	;# 
   119  008E                     	;# 
   120  008F                     	;# 
   121  0090                     	;# 
   122  0091                     	;# 
   123  0092                     	;# 
   124  0093                     	;# 
   125  0093                     	;# 
   126  0093                     	;# 
   127  0094                     	;# 
   128  0095                     	;# 
   129  0096                     	;# 
   130  0097                     	;# 
   131  0098                     	;# 
   132  0099                     	;# 
   133  009A                     	;# 
   134  009B                     	;# 
   135  009C                     	;# 
   136  009D                     	;# 
   137  009E                     	;# 
   138  009F                     	;# 
   139  0105                     	;# 
   140  0107                     	;# 
   141  0108                     	;# 
   142  0109                     	;# 
   143  010C                     	;# 
   144  010C                     	;# 
   145  010D                     	;# 
   146  010E                     	;# 
   147  010F                     	;# 
   148  0185                     	;# 
   149  0187                     	;# 
   150  0188                     	;# 
   151  0189                     	;# 
   152  018C                     	;# 
   153  018D                     	;# 
   154  0000                     	;# 
   155  0001                     	;# 
   156  0002                     	;# 
   157  0003                     	;# 
   158  0004                     	;# 
   159  0005                     	;# 
   160  0006                     	;# 
   161  0007                     	;# 
   162  0008                     	;# 
   163  0009                     	;# 
   164  000A                     	;# 
   165  000B                     	;# 
   166  000C                     	;# 
   167  000D                     	;# 
   168  000E                     	;# 
   169  000E                     	;# 
   170  000F                     	;# 
   171  0010                     	;# 
   172  0011                     	;# 
   173  0012                     	;# 
   174  0013                     	;# 
   175  0014                     	;# 
   176  0015                     	;# 
   177  0015                     	;# 
   178  0016                     	;# 
   179  0017                     	;# 
   180  0018                     	;# 
   181  0019                     	;# 
   182  001A                     	;# 
   183  001B                     	;# 
   184  001B                     	;# 
   185  001C                     	;# 
   186  001D                     	;# 
   187  001E                     	;# 
   188  001F                     	;# 
   189  0081                     	;# 
   190  0085                     	;# 
   191  0086                     	;# 
   192  0087                     	;# 
   193  0088                     	;# 
   194  0089                     	;# 
   195  008C                     	;# 
   196  008D                     	;# 
   197  008E                     	;# 
   198  008F                     	;# 
   199  0090                     	;# 
   200  0091                     	;# 
   201  0092                     	;# 
   202  0093                     	;# 
   203  0093                     	;# 
   204  0093                     	;# 
   205  0094                     	;# 
   206  0095                     	;# 
   207  0096                     	;# 
   208  0097                     	;# 
   209  0098                     	;# 
   210  0099                     	;# 
   211  009A                     	;# 
   212  009B                     	;# 
   213  009C                     	;# 
   214  009D                     	;# 
   215  009E                     	;# 
   216  009F                     	;# 
   217  0105                     	;# 
   218  0107                     	;# 
   219  0108                     	;# 
   220  0109                     	;# 
   221  010C                     	;# 
   222  010C                     	;# 
   223  010D                     	;# 
   224  010E                     	;# 
   225  010F                     	;# 
   226  0185                     	;# 
   227  0187                     	;# 
   228  0188                     	;# 
   229  0189                     	;# 
   230  018C                     	;# 
   231  018D                     	;# 
   232                           
   233                           	psect	idataBANK2
   234  0803                     __pidataBANK2:
   235                           
   236                           ;initializer for _R
   237  0803  3420               	retlw	32
   238  0804  340D               	retlw	13
   239  0805  3451               	retlw	81
   240  0806  3475               	retlw	117
   241  0807  3465               	retlw	101
   242  0808  3420               	retlw	32
   243  0809  3473               	retlw	115
   244  080A  3465               	retlw	101
   245  080B  3472               	retlw	114
   246  080C  3476               	retlw	118
   247  080D  346F               	retlw	111
   248  080E  346D               	retlw	109
   249  080F  346F               	retlw	111
   250  0810  3474               	retlw	116
   251  0811  346F               	retlw	111
   252  0812  3472               	retlw	114
   253  0813  3420               	retlw	32
   254  0814  3464               	retlw	100
   255  0815  3465               	retlw	101
   256  0816  3473               	retlw	115
   257  0817  3465               	retlw	101
   258  0818  3461               	retlw	97
   259  0819  3420               	retlw	32
   260  081A  346D               	retlw	109
   261  081B  346F               	retlw	111
   262  081C  3476               	retlw	118
   263  081D  3465               	retlw	101
   264  081E  3472               	retlw	114
   265  081F  343F               	retlw	63
   266  0820  340D               	retlw	13
   267  0821  3431               	retlw	49
   268  0822  3429               	retlw	41
   269  0823  3420               	retlw	32
   270  0824  3450               	retlw	80
   271  0825  3444               	retlw	68
   272  0826  3420               	retlw	32
   273  0827  340D               	retlw	13
   274  0828  3432               	retlw	50
   275  0829  3429               	retlw	41
   276  082A  3420               	retlw	32
   277  082B  3450               	retlw	80
   278  082C  3449               	retlw	73
   279  082D  3420               	retlw	32
   280  082E  340D               	retlw	13
   281  082F  3433               	retlw	51
   282  0830  3429               	retlw	41
   283  0831  3420               	retlw	32
   284  0832  3443               	retlw	67
   285  0833  3444               	retlw	68
   286  0834  3420               	retlw	32
   287  0835  340D               	retlw	13
   288  0836  3434               	retlw	52
   289  0837  3429               	retlw	41
   290  0838  3420               	retlw	32
   291  0839  3443               	retlw	67
   292  083A  3449               	retlw	73
   293  083B  340D               	retlw	13
   294  083C  3400               	retlw	0
   295  083D  3400               	retlw	0
   296  083E  3400               	retlw	0
   297                           
   298                           ;initializer for _M
   299  083F  3420               	retlw	32
   300  0840  340D               	retlw	13
   301  0841  3449               	retlw	73
   302  0842  346E               	retlw	110
   303  0843  3467               	retlw	103
   304  0844  3472               	retlw	114
   305  0845  3465               	retlw	101
   306  0846  3473               	retlw	115
   307  0847  3465               	retlw	101
   308  0848  3420               	retlw	32
   309  0849  3475               	retlw	117
   310  084A  346E               	retlw	110
   311  084B  3420               	retlw	32
   312  084C  346E               	retlw	110
   313  084D  3475               	retlw	117
   314  084E  346D               	retlw	109
   315  084F  3465               	retlw	101
   316  0850  3472               	retlw	114
   317  0851  346F               	retlw	111
   318  0852  3420               	retlw	32
   319  0853  3465               	retlw	101
   320  0854  346E               	retlw	110
   321  0855  3474               	retlw	116
   322  0856  3472               	retlw	114
   323  0857  3465               	retlw	101
   324  0858  3420               	retlw	32
   325  0859  3430               	retlw	48
   326  085A  3420               	retlw	32
   327  085B  3479               	retlw	121
   328  085C  3420               	retlw	32
   329  085D  3439               	retlw	57
   330  085E  340D               	retlw	13
   331  085F  3400               	retlw	0
   332  0860  3400               	retlw	0
   333  0861  3400               	retlw	0
   334  0862  3400               	retlw	0
   335                           
   336                           	psect	idataBANK3
   337  1259                     __pidataBANK3:
   338                           
   339                           ;initializer for _I
   340  1259  3420               	retlw	32
   341  125A  340D               	retlw	13
   342  125B  3443               	retlw	67
   343  125C  346F               	retlw	111
   344  125D  346D               	retlw	109
   345  125E  346F               	retlw	111
   346  125F  3420               	retlw	32
   347  1260  3464               	retlw	100
   348  1261  3465               	retlw	101
   349  1262  3473               	retlw	115
   350  1263  3465               	retlw	101
   351  1264  3461               	retlw	97
   352  1265  3420               	retlw	32
   353  1266  3463               	retlw	99
   354  1267  346F               	retlw	111
   355  1268  346E               	retlw	110
   356  1269  3474               	retlw	116
   357  126A  3472               	retlw	114
   358  126B  346F               	retlw	111
   359  126C  346C               	retlw	108
   360  126D  3461               	retlw	97
   361  126E  3472               	retlw	114
   362  126F  3420               	retlw	32
   363  1270  346C               	retlw	108
   364  1271  346F               	retlw	111
   365  1272  3473               	retlw	115
   366  1273  3420               	retlw	32
   367  1274  3473               	retlw	115
   368  1275  3465               	retlw	101
   369  1276  3472               	retlw	114
   370  1277  3476               	retlw	118
   371  1278  346F               	retlw	111
   372  1279  346D               	retlw	109
   373  127A  346F               	retlw	111
   374  127B  3474               	retlw	116
   375  127C  346F               	retlw	111
   376  127D  3472               	retlw	114
   377  127E  3465               	retlw	101
   378  127F  3473               	retlw	115
   379  1280  343F               	retlw	63
   380  1281  340D               	retlw	13
   381  1282  3431               	retlw	49
   382  1283  3429               	retlw	41
   383  1284  3420               	retlw	32
   384  1285  344D               	retlw	77
   385  1286  3461               	retlw	97
   386  1287  346E               	retlw	110
   387  1288  3475               	retlw	117
   388  1289  3461               	retlw	97
   389  128A  346C               	retlw	108
   390  128B  346D               	retlw	109
   391  128C  3465               	retlw	101
   392  128D  346E               	retlw	110
   393  128E  3474               	retlw	116
   394  128F  3465               	retlw	101
   395  1290  3420               	retlw	32
   396  1291  340D               	retlw	13
   397  1292  3432               	retlw	50
   398  1293  3429               	retlw	41
   399  1294  3420               	retlw	32
   400  1295  3443               	retlw	67
   401  1296  346F               	retlw	111
   402  1297  346E               	retlw	110
   403  1298  3420               	retlw	32
   404  1299  3463               	retlw	99
   405  129A  346F               	retlw	111
   406  129B  346D               	retlw	109
   407  129C  3475               	retlw	117
   408  129D  346E               	retlw	110
   409  129E  3469               	retlw	105
   410  129F  3463               	retlw	99
   411  12A0  3461               	retlw	97
   412  12A1  3463               	retlw	99
   413  12A2  3469               	retlw	105
   414  12A3  346F               	retlw	111
   415  12A4  346E               	retlw	110
   416  12A5  3420               	retlw	32
   417  12A6  3473               	retlw	115
   418  12A7  3465               	retlw	101
   419  12A8  3472               	retlw	114
   420  12A9  3469               	retlw	105
   421  12AA  3461               	retlw	97
   422  12AB  346C               	retlw	108
   423  12AC  340D               	retlw	13
   424  12AD  3400               	retlw	0
   425  0007                     _PORTCbits	set	7
   426  001A                     _RCREG	set	26
   427  000D                     _PIR2bits	set	13
   428  0019                     _TXREG	set	25
   429  0018                     _RCSTAbits	set	24
   430  001D                     _CCP2CON	set	29
   431  0017                     _CCP1CON	set	23
   432  0012                     _T2CON	set	18
   433  0008                     _PORTD	set	8
   434  0007                     _PORTC	set	7
   435  0006                     _PORTB	set	6
   436  0005                     _PORTA	set	5
   437  0001                     _TMR0	set	1
   438  001B                     _CCPR2L	set	27
   439  0015                     _CCPR1L	set	21
   440  0008                     _PORTDbits	set	8
   441  0006                     _PORTBbits	set	6
   442  000B                     _INTCONbits	set	11
   443  001F                     _ADCON0bits	set	31
   444  001E                     _ADRESH	set	30
   445  000C                     _PIR1bits	set	12
   446  0065                     _RCIF	set	101
   447  009A                     _SPBRGH	set	154
   448  0099                     _SPBRG	set	153
   449  0092                     _PR2	set	146
   450  009F                     _ADCON1bits	set	159
   451  008C                     _PIE1bits	set	140
   452  008F                     _OSCCONbits	set	143
   453  0081                     _OPTION_REG	set	129
   454  0095                     _WPUB	set	149
   455  0081                     _OPTION_REGbits	set	129
   456  0096                     _IOCB	set	150
   457  0088                     _TRISD	set	136
   458  0087                     _TRISC	set	135
   459  0086                     _TRISBbits	set	134
   460  0085                     _TRISA	set	133
   461  0098                     _TXSTAbits	set	152
   462  010C                     _EEDATA	set	268
   463  010C                     _EEDAT	set	268
   464  010D                     _EEADR	set	269
   465  018D                     _EECON2	set	397
   466  018C                     _EECON1bits	set	396
   467  0187                     _BAUDCTLbits	set	391
   468  0189                     _ANSELH	set	393
   469  0188                     _ANSEL	set	392
   470                           
   471                           	psect	cinit
   472  0015                     start_initialization:	
   473                           ; #config settings
   474                           
   475  0015                     __initialization:
   476                           
   477                           ; Initialize objects allocated to BANK3
   478  0015  1783               	bsf	3,7	;select IRP bank2
   479  0016  30E5               	movlw	low (__pdataBANK3+85)
   480  0017  00FD               	movwf	btemp+-1
   481  0018  3012               	movlw	high __pidataBANK3
   482  0019  00FE               	movwf	btemp
   483  001A  3059               	movlw	low __pidataBANK3
   484  001B  00FF               	movwf	btemp+1
   485  001C  3090               	movlw	low __pdataBANK3
   486  001D  0084               	movwf	4
   487  001E  160A  118A  217F  120A  118A  	fcall	init_ram0
   488                           
   489                           ; Initialize objects allocated to BANK2
   490  0023  3070               	movlw	low (__pdataBANK2+96)
   491  0024  00FD               	movwf	btemp+-1
   492  0025  3008               	movlw	high __pidataBANK2
   493  0026  00FE               	movwf	btemp
   494  0027  3003               	movlw	low __pidataBANK2
   495  0028  00FF               	movwf	btemp+1
   496  0029  3010               	movlw	low __pdataBANK2
   497  002A  0084               	movwf	4
   498  002B  160A  118A  217F  120A  118A  	fcall	init_ram0
   499                           
   500                           ; Clear objects allocated to BANK3
   501  0030  1683               	bsf	3,5	;RP0=1, select bank3
   502  0031  1703               	bsf	3,6	;RP1=1, select bank3
   503  0032  01E5               	clrf	__pbssBANK3& (0+127)
   504  0033  01E6               	clrf	(__pbssBANK3+1)& (0+127)
   505  0034  01E7               	clrf	(__pbssBANK3+2)& (0+127)
   506  0035  01E8               	clrf	(__pbssBANK3+3)& (0+127)
   507  0036  01E9               	clrf	(__pbssBANK3+4)& (0+127)
   508  0037  01EA               	clrf	(__pbssBANK3+5)& (0+127)
   509  0038  01EB               	clrf	(__pbssBANK3+6)& (0+127)
   510  0039  01EC               	clrf	(__pbssBANK3+7)& (0+127)
   511  003A  01ED               	clrf	(__pbssBANK3+8)& (0+127)
   512  003B  01EE               	clrf	(__pbssBANK3+9)& (0+127)
   513                           
   514                           ; Clear objects allocated to BANK1
   515  003C  1683               	bsf	3,5	;RP0=1, select bank1
   516  003D  1303               	bcf	3,6	;RP1=0, select bank1
   517  003E  01EC               	clrf	__pbssBANK1& (0+127)
   518  003F  01ED               	clrf	(__pbssBANK1+1)& (0+127)
   519  0040  01EE               	clrf	(__pbssBANK1+2)& (0+127)
   520  0041  01EF               	clrf	(__pbssBANK1+3)& (0+127)
   521                           
   522                           ; Clear objects allocated to BANK0
   523  0042  1283               	bcf	3,5	;RP0=0, select bank0
   524  0043  1303               	bcf	3,6	;RP1=0, select bank0
   525  0044  01ED               	clrf	__pbssBANK0& (0+127)
   526  0045  01EE               	clrf	(__pbssBANK0+1)& (0+127)
   527  0046  01EF               	clrf	(__pbssBANK0+2)& (0+127)
   528  0047                     end_of_initialization:	
   529                           ;End of C runtime variable initialization code
   530                           
   531  0047                     __end_of__initialization:
   532  0047  0183               	clrf	3
   533  0048  160A  118A  295C   	ljmp	_main	;jump to C main() function
   534                           
   535                           	psect	bssBANK0
   536  006D                     __pbssBANK0:
   537  006D                     _VALOR:
   538  006D                     	ds	1
   539  006E                     _POT3:
   540  006E                     	ds	1
   541  006F                     _PWM1:
   542  006F                     	ds	1
   543                           
   544                           	psect	bssBANK1
   545  00EC                     __pbssBANK1:
   546  00EC                     _VAL3:
   547  00EC                     	ds	1
   548  00ED                     _VAL2:
   549  00ED                     	ds	1
   550  00EE                     _VAL1:
   551  00EE                     	ds	1
   552  00EF                     _VAL:
   553  00EF                     	ds	1
   554                           
   555                           	psect	bssBANK3
   556  01E5                     __pbssBANK3:
   557  01E5                     _OP:
   558  01E5                     	ds	1
   559  01E6                     _FLAG:
   560  01E6                     	ds	1
   561  01E7                     _VALOR2:
   562  01E7                     	ds	1
   563  01E8                     _VALOR1:
   564  01E8                     	ds	1
   565  01E9                     _val4:
   566  01E9                     	ds	1
   567  01EA                     _val3:
   568  01EA                     	ds	1
   569  01EB                     _val2:
   570  01EB                     	ds	1
   571  01EC                     _val1:
   572  01EC                     	ds	1
   573  01ED                     _POT4:
   574  01ED                     	ds	1
   575  01EE                     _PWM2:
   576  01EE                     	ds	1
   577                           
   578                           	psect	dataBANK3
   579  0190                     __pdataBANK3:
   580  0190                     _I:
   581  0190                     	ds	85
   582                           
   583                           	psect	dataBANK2
   584  0110                     __pdataBANK2:
   585  0110                     _R:
   586  0110                     	ds	60
   587  014C                     _M:
   588  014C                     	ds	36
   589                           
   590                           	psect	inittext
   591  117B                     init_fetch0:	
   592                           ;	Called with low address in FSR and high address in W
   593                           
   594  117B  087E               	movf	btemp,w
   595  117C  008A               	movwf	10
   596  117D  087F               	movf	btemp+1,w
   597  117E  0082               	movwf	2
   598  117F                     init_ram0:	
   599                           ;Called with:
   600                           ;	high address of idata address in btemp 
   601                           ;	low address of idata address in btemp+1 
   602                           ;	low address of data in FSR
   603                           ;	high address + 1 of data in btemp-1
   604                           
   605  117F  160A  118A  217B  160A  118A  	fcall	init_fetch0
   606  1184  0080               	movwf	0
   607  1185  0A84               	incf	4,f
   608  1186  0804               	movf	4,w
   609  1187  067D               	xorwf	btemp+-1,w
   610  1188  1903               	btfsc	3,2
   611  1189  3400               	retlw	0
   612  118A  0AFF               	incf	btemp+1,f
   613  118B  1903               	btfsc	3,2
   614  118C  0AFE               	incf	btemp,f
   615  118D  297F               	goto	init_ram0
   616                           
   617                           	psect	cstackBANK1
   618  00A0                     __pcstackBANK1:
   619  00A0                     ??_setup:
   620  00A0                     ?__Umul8_16:	
   621                           ; 1 bytes @ 0x0
   622                           
   623  00A0                     ?___xxtofl:	
   624                           ; 2 bytes @ 0x0
   625                           
   626  00A0                     __Umul8_16@multiplicand:	
   627                           ; 4 bytes @ 0x0
   628                           
   629  00A0                     ___xxtofl@val:	
   630                           ; 1 bytes @ 0x0
   631                           
   632                           
   633                           ; 4 bytes @ 0x0
   634  00A0                     	ds	2
   635  00A2                     ??__Umul8_16:
   636                           
   637                           ; 1 bytes @ 0x2
   638  00A2                     	ds	2
   639  00A4                     ??___xxtofl:
   640  00A4                     __Umul8_16@product:	
   641                           ; 1 bytes @ 0x4
   642                           
   643                           
   644                           ; 2 bytes @ 0x4
   645  00A4                     	ds	2
   646  00A6                     __Umul8_16@word_mpld:
   647                           
   648                           ; 2 bytes @ 0x6
   649  00A6                     	ds	2
   650  00A8                     __Umul8_16@multiplier:
   651  00A8                     ___xxtofl@sign:	
   652                           ; 1 bytes @ 0x8
   653                           
   654                           
   655                           ; 1 bytes @ 0x8
   656  00A8                     	ds	1
   657  00A9                     ___xxtofl@exp:
   658                           
   659                           ; 1 bytes @ 0x9
   660  00A9                     	ds	1
   661  00AA                     ___xxtofl@arg:
   662                           
   663                           ; 4 bytes @ 0xA
   664  00AA                     	ds	4
   665  00AE                     ?___flmul:
   666  00AE                     ___flmul@b:	
   667                           ; 4 bytes @ 0xE
   668                           
   669                           
   670                           ; 4 bytes @ 0xE
   671  00AE                     	ds	4
   672  00B2                     ___flmul@a:
   673                           
   674                           ; 4 bytes @ 0x12
   675  00B2                     	ds	4
   676  00B6                     ??___flmul:
   677                           
   678                           ; 1 bytes @ 0x16
   679  00B6                     	ds	5
   680  00BB                     ___flmul@sign:
   681                           
   682                           ; 1 bytes @ 0x1B
   683  00BB                     	ds	1
   684  00BC                     ___flmul@grs:
   685                           
   686                           ; 4 bytes @ 0x1C
   687  00BC                     	ds	4
   688  00C0                     ___flmul@aexp:
   689                           
   690                           ; 1 bytes @ 0x20
   691  00C0                     	ds	1
   692  00C1                     ___flmul@bexp:
   693                           
   694                           ; 1 bytes @ 0x21
   695  00C1                     	ds	1
   696  00C2                     ___flmul@prod:
   697                           
   698                           ; 4 bytes @ 0x22
   699  00C2                     	ds	4
   700  00C6                     ___flmul@temp:
   701                           
   702                           ; 2 bytes @ 0x26
   703  00C6                     	ds	2
   704  00C8                     ?___fladd:
   705  00C8                     ___fladd@b:	
   706                           ; 4 bytes @ 0x28
   707                           
   708                           
   709                           ; 4 bytes @ 0x28
   710  00C8                     	ds	4
   711  00CC                     ___fladd@a:
   712                           
   713                           ; 4 bytes @ 0x2C
   714  00CC                     	ds	4
   715  00D0                     ??___fladd:
   716                           
   717                           ; 1 bytes @ 0x30
   718  00D0                     	ds	8
   719  00D8                     ___fladd@signs:
   720                           
   721                           ; 1 bytes @ 0x38
   722  00D8                     	ds	1
   723  00D9                     ___fladd@aexp:
   724                           
   725                           ; 1 bytes @ 0x39
   726  00D9                     	ds	1
   727  00DA                     ___fladd@bexp:
   728                           
   729                           ; 1 bytes @ 0x3A
   730  00DA                     	ds	1
   731  00DB                     ___fladd@grs:
   732                           
   733                           ; 1 bytes @ 0x3B
   734  00DB                     	ds	1
   735  00DC                     ?___fltol:
   736  00DC                     ___fltol@f1:	
   737                           ; 4 bytes @ 0x3C
   738                           
   739                           
   740                           ; 4 bytes @ 0x3C
   741  00DC                     	ds	4
   742  00E0                     ??___fltol:
   743                           
   744                           ; 1 bytes @ 0x40
   745  00E0                     	ds	5
   746  00E5                     ___fltol@sign1:
   747                           
   748                           ; 1 bytes @ 0x45
   749  00E5                     	ds	1
   750  00E6                     ___fltol@exp1:
   751                           
   752                           ; 1 bytes @ 0x46
   753  00E6                     	ds	1
   754  00E7                     ??_canales:
   755                           
   756                           ; 1 bytes @ 0x47
   757  00E7                     	ds	5
   758  00EC                     ??_main:
   759                           
   760                           	psect	cstackCOMMON
   761  0070                     __pcstackCOMMON:	
   762                           ; 1 bytes @ 0x4C
   763                           
   764  0070                     ?_UART:
   765  0070                     ?_escribir:	
   766                           ; 1 bytes @ 0x0
   767                           
   768  0070                     ?_leer:	
   769                           ; 1 bytes @ 0x0
   770                           
   771  0070                     ??_leer:	
   772                           ; 1 bytes @ 0x0
   773                           
   774  0070                     ?_MTMR0:	
   775                           ; 1 bytes @ 0x0
   776                           
   777  0070                     ??_MTMR0:	
   778                           ; 1 bytes @ 0x0
   779                           
   780  0070                     ?_canales:	
   781                           ; 1 bytes @ 0x0
   782                           
   783  0070                     ?_INS:	
   784                           ; 1 bytes @ 0x0
   785                           
   786  0070                     ?_OTRO:	
   787                           ; 1 bytes @ 0x0
   788                           
   789  0070                     ?_MENSAJE:	
   790                           ; 1 bytes @ 0x0
   791                           
   792  0070                     ??_MENSAJE:	
   793                           ; 1 bytes @ 0x0
   794                           
   795  0070                     ?_isr:	
   796                           ; 1 bytes @ 0x0
   797                           
   798  0070                     ?_setup:	
   799                           ; 1 bytes @ 0x0
   800                           
   801  0070                     ?_main:	
   802                           ; 1 bytes @ 0x0
   803                           
   804  0070                     ?i1_canales:	
   805                           ; 1 bytes @ 0x0
   806                           
   807  0070                     ?i1__Umul8_16:	
   808                           ; 1 bytes @ 0x0
   809                           
   810  0070                     ?i1___xxtofl:	
   811                           ; 2 bytes @ 0x0
   812                           
   813  0070                     escribir@address:	
   814                           ; 4 bytes @ 0x0
   815                           
   816  0070                     i1__Umul8_16@multiplicand:	
   817                           ; 1 bytes @ 0x0
   818                           
   819  0070                     i1___xxtofl@val:	
   820                           ; 1 bytes @ 0x0
   821                           
   822                           
   823                           ; 4 bytes @ 0x0
   824  0070                     	ds	1
   825  0071                     ??_escribir:
   826  0071                     escribir@data:	
   827                           ; 1 bytes @ 0x1
   828                           
   829  0071                     leer@address:	
   830                           ; 1 bytes @ 0x1
   831                           
   832                           
   833                           ; 1 bytes @ 0x1
   834  0071                     	ds	1
   835  0072                     ??i1__Umul8_16:
   836  0072                     leer@data:	
   837                           ; 1 bytes @ 0x2
   838                           
   839                           
   840                           ; 1 bytes @ 0x2
   841  0072                     	ds	2
   842  0074                     ??i1___xxtofl:
   843  0074                     i1__Umul8_16@product:	
   844                           ; 1 bytes @ 0x4
   845                           
   846                           
   847                           ; 2 bytes @ 0x4
   848  0074                     	ds	2
   849  0076                     i1__Umul8_16@word_mpld:
   850                           
   851                           ; 2 bytes @ 0x6
   852  0076                     	ds	2
   853  0078                     i1__Umul8_16@multiplier:
   854  0078                     i1___xxtofl@sign:	
   855                           ; 1 bytes @ 0x8
   856                           
   857                           
   858                           ; 1 bytes @ 0x8
   859  0078                     	ds	1
   860  0079                     i1___xxtofl@exp:
   861                           
   862                           ; 1 bytes @ 0x9
   863  0079                     	ds	1
   864  007A                     i1___xxtofl@arg:
   865                           
   866                           ; 4 bytes @ 0xA
   867  007A                     	ds	4
   868                           
   869                           	psect	cstackBANK0
   870  0020                     __pcstackBANK0:
   871  0020                     ?i1___flmul:
   872  0020                     i1___flmul@b:	
   873                           ; 4 bytes @ 0x0
   874                           
   875                           
   876                           ; 4 bytes @ 0x0
   877  0020                     	ds	4
   878  0024                     i1___flmul@a:
   879                           
   880                           ; 4 bytes @ 0x4
   881  0024                     	ds	4
   882  0028                     ??i1___flmul:
   883                           
   884                           ; 1 bytes @ 0x8
   885  0028                     	ds	5
   886  002D                     i1___flmul@sign:
   887                           
   888                           ; 1 bytes @ 0xD
   889  002D                     	ds	1
   890  002E                     i1___flmul@grs:
   891                           
   892                           ; 4 bytes @ 0xE
   893  002E                     	ds	4
   894  0032                     i1___flmul@aexp:
   895                           
   896                           ; 1 bytes @ 0x12
   897  0032                     	ds	1
   898  0033                     i1___flmul@bexp:
   899                           
   900                           ; 1 bytes @ 0x13
   901  0033                     	ds	1
   902  0034                     i1___flmul@prod:
   903                           
   904                           ; 4 bytes @ 0x14
   905  0034                     	ds	4
   906  0038                     i1___flmul@temp:
   907                           
   908                           ; 2 bytes @ 0x18
   909  0038                     	ds	2
   910  003A                     ?i1___fladd:
   911  003A                     i1___fladd@b:	
   912                           ; 4 bytes @ 0x1A
   913                           
   914                           
   915                           ; 4 bytes @ 0x1A
   916  003A                     	ds	4
   917  003E                     i1___fladd@a:
   918                           
   919                           ; 4 bytes @ 0x1E
   920  003E                     	ds	4
   921  0042                     ??i1___fladd:
   922                           
   923                           ; 1 bytes @ 0x22
   924  0042                     	ds	8
   925  004A                     i1___fladd@signs:
   926                           
   927                           ; 1 bytes @ 0x2A
   928  004A                     	ds	1
   929  004B                     i1___fladd@aexp:
   930                           
   931                           ; 1 bytes @ 0x2B
   932  004B                     	ds	1
   933  004C                     i1___fladd@bexp:
   934                           
   935                           ; 1 bytes @ 0x2C
   936  004C                     	ds	1
   937  004D                     i1___fladd@grs:
   938                           
   939                           ; 1 bytes @ 0x2D
   940  004D                     	ds	1
   941  004E                     ?i1___fltol:
   942  004E                     i1___fltol@f1:	
   943                           ; 4 bytes @ 0x2E
   944                           
   945                           
   946                           ; 4 bytes @ 0x2E
   947  004E                     	ds	4
   948  0052                     ??i1___fltol:
   949                           
   950                           ; 1 bytes @ 0x32
   951  0052                     	ds	5
   952  0057                     i1___fltol@sign1:
   953                           
   954                           ; 1 bytes @ 0x37
   955  0057                     	ds	1
   956  0058                     i1___fltol@exp1:
   957                           
   958                           ; 1 bytes @ 0x38
   959  0058                     	ds	1
   960  0059                     ??i1_canales:
   961                           
   962                           ; 1 bytes @ 0x39
   963  0059                     	ds	5
   964  005E                     ??_OTRO:
   965                           
   966                           ; 1 bytes @ 0x3E
   967  005E                     	ds	2
   968  0060                     ??_INS:
   969                           
   970                           ; 1 bytes @ 0x40
   971  0060                     	ds	3
   972  0063                     ??_UART:
   973                           
   974                           ; 1 bytes @ 0x43
   975  0063                     	ds	3
   976  0066                     ??_isr:
   977                           
   978                           ; 1 bytes @ 0x46
   979  0066                     	ds	7
   980                           
   981                           	psect	maintext
   982  115C                     __pmaintext:	
   983 ;;
   984 ;;Main: autosize = 0, tempsize = 0, incstack = 0, save=0
   985 ;;
   986 ;; *************** function _main *****************
   987 ;; Defined at:
   988 ;;		line 239 in file "Mainfinal2.c"
   989 ;; Parameters:    Size  Location     Type
   990 ;;		None
   991 ;; Auto vars:     Size  Location     Type
   992 ;;		None
   993 ;; Return value:  Size  Location     Type
   994 ;;                  1    wreg      void 
   995 ;; Registers used:
   996 ;;		wreg, fsr0l, fsr0h, status,2, status,0, btemp+1, pclath, cstack
   997 ;; Tracked objects:
   998 ;;		On entry : B00/0
   999 ;;		On exit  : 0/0
  1000 ;;		Unchanged: 0/0
  1001 ;; Data sizes:     COMMON   BANK0   BANK1   BANK3   BANK2
  1002 ;;      Params:         0       0       0       0       0
  1003 ;;      Locals:         0       0       0       0       0
  1004 ;;      Temps:          0       0       0       0       0
  1005 ;;      Totals:         0       0       0       0       0
  1006 ;;Total ram usage:        0 bytes
  1007 ;; Hardware stack levels required when called:   10
  1008 ;; This function calls:
  1009 ;;		_canales
  1010 ;;		_setup
  1011 ;; This function is called by:
  1012 ;;		Startup code after reset
  1013 ;; This function uses a non-reentrant model
  1014 ;;
  1015                           
  1016                           
  1017                           ;psect for function _main
  1018  115C                     _main:
  1019  115C                     l3452:	
  1020                           ;incstack = 0
  1021 ;; hardware stack exceeded
  1022                           ; Regs used in _main: [wreg-fsr0h+status,2+status,0+btemp+1+pclath+cstack]
  1023                           
  1024                           
  1025                           ;Mainfinal2.c: 240:     setup();
  1026  115C  160A  118A  230C  160A  118A  	fcall	_setup
  1027  1161                     l3454:
  1028                           
  1029                           ;Mainfinal2.c: 242:         canales();
  1030  1161  160A  118A  2631  160A  118A  	fcall	_canales
  1031  1166  2961               	goto	l3454
  1032  1167  120A  118A  2812   	ljmp	start
  1033  116A                     __end_of_main:
  1034                           
  1035                           	psect	text1
  1036  130C                     __ptext1:	
  1037 ;; *************** function _setup *****************
  1038 ;; Defined at:
  1039 ;;		line 159 in file "Mainfinal2.c"
  1040 ;; Parameters:    Size  Location     Type
  1041 ;;		None
  1042 ;; Auto vars:     Size  Location     Type
  1043 ;;		None
  1044 ;; Return value:  Size  Location     Type
  1045 ;;                  1    wreg      void 
  1046 ;; Registers used:
  1047 ;;		wreg, status,2, status,0
  1048 ;; Tracked objects:
  1049 ;;		On entry : 0/0
  1050 ;;		On exit  : 0/0
  1051 ;;		Unchanged: 0/0
  1052 ;; Data sizes:     COMMON   BANK0   BANK1   BANK3   BANK2
  1053 ;;      Params:         0       0       0       0       0
  1054 ;;      Locals:         0       0       0       0       0
  1055 ;;      Temps:          0       0       1       0       0
  1056 ;;      Totals:         0       0       1       0       0
  1057 ;;Total ram usage:        1 bytes
  1058 ;; Hardware stack levels used:    1
  1059 ;; Hardware stack levels required when called:    7
  1060 ;; This function calls:
  1061 ;;		Nothing
  1062 ;; This function is called by:
  1063 ;;		_main
  1064 ;; This function uses a non-reentrant model
  1065 ;;
  1066                           
  1067                           
  1068                           ;psect for function _setup
  1069  130C                     _setup:
  1070  130C                     l3240:	
  1071                           ;incstack = 0
  1072                           ; Regs used in _setup: [wreg+status,2+status,0]
  1073                           
  1074                           
  1075                           ;Mainfinal2.c: 161:     ANSEL = 0B00011111;
  1076  130C  301F               	movlw	31
  1077  130D  1683               	bsf	3,5	;RP0=1, select bank3
  1078  130E  1703               	bsf	3,6	;RP1=1, select bank3
  1079  130F  0088               	movwf	8	;volatile
  1080  1310                     l3242:
  1081                           
  1082                           ;Mainfinal2.c: 162:     ANSELH = 0X00;
  1083  1310  0189               	clrf	9	;volatile
  1084  1311                     l3244:
  1085                           
  1086                           ;Mainfinal2.c: 164:     TRISA = 0B00011111;
  1087  1311  301F               	movlw	31
  1088  1312  1683               	bsf	3,5	;RP0=1, select bank1
  1089  1313  1303               	bcf	3,6	;RP1=0, select bank1
  1090  1314  0085               	movwf	5	;volatile
  1091  1315                     l3246:
  1092                           
  1093                           ;Mainfinal2.c: 165:     TRISBbits.TRISB0 = 1;
  1094  1315  1406               	bsf	6,0	;volatile
  1095  1316                     l3248:
  1096                           
  1097                           ;Mainfinal2.c: 166:     TRISBbits.TRISB1 = 1;
  1098  1316  1486               	bsf	6,1	;volatile
  1099  1317                     l3250:
  1100                           
  1101                           ;Mainfinal2.c: 167:     TRISBbits.TRISB2 = 1;
  1102  1317  1506               	bsf	6,2	;volatile
  1103  1318                     l3252:
  1104                           
  1105                           ;Mainfinal2.c: 168:     TRISC = 0B10000000;
  1106  1318  3080               	movlw	128
  1107  1319  0087               	movwf	7	;volatile
  1108  131A                     l3254:
  1109                           
  1110                           ;Mainfinal2.c: 169:     TRISD = 0B00;
  1111  131A  0188               	clrf	8	;volatile
  1112  131B                     l3256:
  1113                           
  1114                           ;Mainfinal2.c: 171:     PORTA = 0X00;
  1115  131B  1283               	bcf	3,5	;RP0=0, select bank0
  1116  131C  1303               	bcf	3,6	;RP1=0, select bank0
  1117  131D  0185               	clrf	5	;volatile
  1118  131E                     l3258:
  1119                           
  1120                           ;Mainfinal2.c: 172:     PORTB = 0X00;
  1121  131E  0186               	clrf	6	;volatile
  1122  131F                     l3260:
  1123                           
  1124                           ;Mainfinal2.c: 173:     PORTC = 0X00;
  1125  131F  0187               	clrf	7	;volatile
  1126  1320                     l3262:
  1127                           
  1128                           ;Mainfinal2.c: 174:     PORTD = 0X00;
  1129  1320  0188               	clrf	8	;volatile
  1130                           
  1131                           ;Mainfinal2.c: 177:     IOCB = 0xFF;
  1132  1321  30FF               	movlw	255
  1133  1322  1683               	bsf	3,5	;RP0=1, select bank1
  1134  1323  1303               	bcf	3,6	;RP1=0, select bank1
  1135  1324  0096               	movwf	22	;volatile
  1136  1325                     l3264:
  1137                           
  1138                           ;Mainfinal2.c: 178:     OPTION_REGbits.nRBPU = 0;
  1139  1325  1381               	bcf	1,7	;volatile
  1140                           
  1141                           ;Mainfinal2.c: 179:     WPUB = 0B00000111;
  1142  1326  3007               	movlw	7
  1143  1327  0095               	movwf	21	;volatile
  1144                           
  1145                           ;Mainfinal2.c: 182:     OPTION_REG = 0B00001000;
  1146  1328  3008               	movlw	8
  1147  1329  0081               	movwf	1	;volatile
  1148                           
  1149                           ;Mainfinal2.c: 183:     TMR0 = 176;
  1150  132A  30B0               	movlw	176
  1151  132B  1283               	bcf	3,5	;RP0=0, select bank0
  1152  132C  1303               	bcf	3,6	;RP1=0, select bank0
  1153  132D  0081               	movwf	1	;volatile
  1154  132E                     l3266:
  1155                           
  1156                           ;Mainfinal2.c: 184:     INTCONbits.GIE = 1;
  1157  132E  178B               	bsf	11,7	;volatile
  1158  132F                     l3268:
  1159                           
  1160                           ;Mainfinal2.c: 185:     INTCONbits.PEIE = 1;
  1161  132F  170B               	bsf	11,6	;volatile
  1162  1330                     l3270:
  1163                           
  1164                           ;Mainfinal2.c: 186:     INTCONbits.T0IE = 1;
  1165  1330  168B               	bsf	11,5	;volatile
  1166  1331                     l3272:
  1167                           
  1168                           ;Mainfinal2.c: 187:     INTCONbits.T0IF = 0;
  1169  1331  110B               	bcf	11,2	;volatile
  1170  1332                     l3274:
  1171                           
  1172                           ;Mainfinal2.c: 188:     INTCONbits.RBIE = 1;
  1173  1332  158B               	bsf	11,3	;volatile
  1174  1333                     l3276:
  1175                           
  1176                           ;Mainfinal2.c: 189:     INTCONbits.RBIF = 0;
  1177  1333  100B               	bcf	11,0	;volatile
  1178  1334                     l3278:
  1179                           
  1180                           ;Mainfinal2.c: 192:     OSCCONbits.SCS = 1;
  1181  1334  1683               	bsf	3,5	;RP0=1, select bank1
  1182  1335  1303               	bcf	3,6	;RP1=0, select bank1
  1183  1336  140F               	bsf	15,0	;volatile
  1184  1337                     l3280:
  1185                           
  1186                           ;Mainfinal2.c: 193:     OSCCONbits.IRCF2 = 1;
  1187  1337  170F               	bsf	15,6	;volatile
  1188  1338                     l3282:
  1189                           
  1190                           ;Mainfinal2.c: 194:     OSCCONbits.IRCF1 = 1;
  1191  1338  168F               	bsf	15,5	;volatile
  1192  1339                     l3284:
  1193                           
  1194                           ;Mainfinal2.c: 195:     OSCCONbits.IRCF0 = 0;
  1195  1339  120F               	bcf	15,4	;volatile
  1196  133A                     l3286:
  1197                           
  1198                           ;Mainfinal2.c: 196:     PIR1bits.TMR2IF = 0;
  1199  133A  1283               	bcf	3,5	;RP0=0, select bank0
  1200  133B  1303               	bcf	3,6	;RP1=0, select bank0
  1201  133C  108C               	bcf	12,1	;volatile
  1202                           
  1203                           ;Mainfinal2.c: 197:     T2CON = 0X26;
  1204  133D  3026               	movlw	38
  1205  133E  0092               	movwf	18	;volatile
  1206  133F                     l3288:
  1207                           
  1208                           ;Mainfinal2.c: 200:     ADCON0bits.CHS = 0;
  1209  133F  30C3               	movlw	-61
  1210  1340  059F               	andwf	31,f	;volatile
  1211  1341                     l3290:
  1212                           
  1213                           ;Mainfinal2.c: 201:     ADCON0bits.CHS = 2;
  1214  1341  081F               	movf	31,w	;volatile
  1215  1342  39C3               	andlw	-61
  1216  1343  3808               	iorlw	8
  1217  1344  009F               	movwf	31	;volatile
  1218                           
  1219                           ;Mainfinal2.c: 202:     _delay((unsigned long)((100)*(4000000/4000000.0)));
  1220  1345  3020               	movlw	32
  1221  1346  1683               	bsf	3,5	;RP0=1, select bank1
  1222  1347  1303               	bcf	3,6	;RP1=0, select bank1
  1223  1348  00A0               	movwf	??_setup^(0+128)
  1224  1349                     u4957:
  1225  1349  0BA0               	decfsz	??_setup^(0+128),f
  1226  134A  2B49               	goto	u4957
  1227  134B  0000               	nop
  1228  134C                     l3292:
  1229                           
  1230                           ;Mainfinal2.c: 204:     PIE1bits.ADIE = 1;
  1231  134C  1683               	bsf	3,5	;RP0=1, select bank1
  1232  134D  1303               	bcf	3,6	;RP1=0, select bank1
  1233  134E  170C               	bsf	12,6	;volatile
  1234  134F                     l3294:
  1235                           
  1236                           ;Mainfinal2.c: 205:     PIR1bits.ADIF = 0;
  1237  134F  1283               	bcf	3,5	;RP0=0, select bank0
  1238  1350  1303               	bcf	3,6	;RP1=0, select bank0
  1239  1351  130C               	bcf	12,6	;volatile
  1240  1352                     l3296:
  1241                           
  1242                           ;Mainfinal2.c: 206:     ADCON0bits.ADON = 1;
  1243  1352  141F               	bsf	31,0	;volatile
  1244  1353                     l3298:
  1245                           
  1246                           ;Mainfinal2.c: 207:     ADCON0bits.ADCS = 1;
  1247  1353  081F               	movf	31,w	;volatile
  1248  1354  393F               	andlw	-193
  1249  1355  3840               	iorlw	64
  1250  1356  009F               	movwf	31	;volatile
  1251  1357                     l3300:
  1252                           
  1253                           ;Mainfinal2.c: 208:     ADCON1bits.ADFM = 0;
  1254  1357  1683               	bsf	3,5	;RP0=1, select bank1
  1255  1358  1303               	bcf	3,6	;RP1=0, select bank1
  1256  1359  139F               	bcf	31,7	;volatile
  1257  135A                     l3302:
  1258                           
  1259                           ;Mainfinal2.c: 209:     ADCON1bits.VCFG0 = 0;
  1260  135A  121F               	bcf	31,4	;volatile
  1261  135B                     l3304:
  1262                           
  1263                           ;Mainfinal2.c: 210:     ADCON1bits.VCFG1 = 0;
  1264  135B  129F               	bcf	31,5	;volatile
  1265  135C                     l3306:
  1266                           
  1267                           ;Mainfinal2.c: 213:     PR2 = 250;
  1268  135C  30FA               	movlw	250
  1269  135D  0092               	movwf	18	;volatile
  1270  135E                     l3308:
  1271                           
  1272                           ;Mainfinal2.c: 214:     CCP1CON = 0B00001100;
  1273  135E  300C               	movlw	12
  1274  135F  1283               	bcf	3,5	;RP0=0, select bank0
  1275  1360  1303               	bcf	3,6	;RP1=0, select bank0
  1276  1361  0097               	movwf	23	;volatile
  1277  1362                     l3310:
  1278                           
  1279                           ;Mainfinal2.c: 215:     CCP2CON = 0B00001111;
  1280  1362  300F               	movlw	15
  1281  1363  009D               	movwf	29	;volatile
  1282  1364                     l3312:
  1283                           
  1284                           ;Mainfinal2.c: 218:     PIR1bits.RCIF = 0;
  1285  1364  128C               	bcf	12,5	;volatile
  1286  1365                     l3314:
  1287                           
  1288                           ;Mainfinal2.c: 219:     PIE1bits.RCIE = 0;
  1289  1365  1683               	bsf	3,5	;RP0=1, select bank1
  1290  1366  1303               	bcf	3,6	;RP1=0, select bank1
  1291  1367  128C               	bcf	12,5	;volatile
  1292  1368                     l3316:
  1293                           
  1294                           ;Mainfinal2.c: 220:     PIE1bits.TXIE = 0;
  1295  1368  120C               	bcf	12,4	;volatile
  1296  1369                     l3318:
  1297                           
  1298                           ;Mainfinal2.c: 221:     TXSTAbits.TX9 = 0;
  1299  1369  1318               	bcf	24,6	;volatile
  1300  136A                     l3320:
  1301                           
  1302                           ;Mainfinal2.c: 222:     TXSTAbits.TXEN = 1;
  1303  136A  1698               	bsf	24,5	;volatile
  1304  136B                     l3322:
  1305                           
  1306                           ;Mainfinal2.c: 223:     TXSTAbits.SYNC = 0;
  1307  136B  1218               	bcf	24,4	;volatile
  1308  136C                     l3324:
  1309                           
  1310                           ;Mainfinal2.c: 224:     TXSTAbits.BRGH = 1;
  1311  136C  1518               	bsf	24,2	;volatile
  1312  136D                     l3326:
  1313                           
  1314                           ;Mainfinal2.c: 225:     RCSTAbits.RX9 = 0;
  1315  136D  1283               	bcf	3,5	;RP0=0, select bank0
  1316  136E  1303               	bcf	3,6	;RP1=0, select bank0
  1317  136F  1318               	bcf	24,6	;volatile
  1318  1370                     l3328:
  1319                           
  1320                           ;Mainfinal2.c: 226:     RCSTAbits.CREN = 1;
  1321  1370  1618               	bsf	24,4	;volatile
  1322  1371                     l3330:
  1323                           
  1324                           ;Mainfinal2.c: 227:     RCSTAbits.SPEN = 1;
  1325  1371  1798               	bsf	24,7	;volatile
  1326  1372                     l3332:
  1327                           
  1328                           ;Mainfinal2.c: 231:     BAUDCTLbits.BRG16 = 0;
  1329  1372  1683               	bsf	3,5	;RP0=1, select bank3
  1330  1373  1703               	bsf	3,6	;RP1=1, select bank3
  1331  1374  1187               	bcf	7,3	;volatile
  1332  1375                     l3334:
  1333                           
  1334                           ;Mainfinal2.c: 232:     SPBRG = 25;
  1335  1375  3019               	movlw	25
  1336  1376  1683               	bsf	3,5	;RP0=1, select bank1
  1337  1377  1303               	bcf	3,6	;RP1=0, select bank1
  1338  1378  0099               	movwf	25	;volatile
  1339  1379                     l3336:
  1340                           
  1341                           ;Mainfinal2.c: 233:     SPBRGH = 1;
  1342  1379  3001               	movlw	1
  1343  137A  009A               	movwf	26	;volatile
  1344  137B                     l171:
  1345  137B  0008               	return
  1346  137C                     __end_of_setup:
  1347                           
  1348                           	psect	text2
  1349  1631                     __ptext2:	
  1350 ;; *************** function _canales *****************
  1351 ;; Defined at:
  1352 ;;		line 262 in file "Mainfinal2.c"
  1353 ;; Parameters:    Size  Location     Type
  1354 ;;		None
  1355 ;; Auto vars:     Size  Location     Type
  1356 ;;		None
  1357 ;; Return value:  Size  Location     Type
  1358 ;;                  1    wreg      void 
  1359 ;; Registers used:
  1360 ;;		wreg, fsr0l, fsr0h, status,2, status,0, btemp+1, pclath, cstack
  1361 ;; Tracked objects:
  1362 ;;		On entry : 0/0
  1363 ;;		On exit  : 0/0
  1364 ;;		Unchanged: 0/0
  1365 ;; Data sizes:     COMMON   BANK0   BANK1   BANK3   BANK2
  1366 ;;      Params:         0       0       0       0       0
  1367 ;;      Locals:         0       0       0       0       0
  1368 ;;      Temps:          0       0       5       0       0
  1369 ;;      Totals:         0       0       5       0       0
  1370 ;;Total ram usage:        5 bytes
  1371 ;; Hardware stack levels used:    1
  1372 ;; Hardware stack levels required when called:    9
  1373 ;; This function calls:
  1374 ;;		___fladd
  1375 ;;		___flmul
  1376 ;;		___fltol
  1377 ;;		___xxtofl
  1378 ;; This function is called by:
  1379 ;;		_main
  1380 ;; This function uses a non-reentrant model
  1381 ;;
  1382                           
  1383                           
  1384                           ;psect for function _canales
  1385  1631                     _canales:
  1386  1631                     l3338:	
  1387                           ;incstack = 0
  1388 ;; hardware stack exceeded
  1389                           ; Regs used in _canales: [wreg-fsr0h+status,2+status,0+btemp+1+pclath+cstack]
  1390                           
  1391                           
  1392                           ;Mainfinal2.c: 263:     if(ADCON0bits.GO == 0){
  1393  1631  1283               	bcf	3,5	;RP0=0, select bank0
  1394  1632  1303               	bcf	3,6	;RP1=0, select bank0
  1395  1633  189F               	btfsc	31,1	;volatile
  1396  1634  2E36               	goto	u4871
  1397  1635  2E37               	goto	u4870
  1398  1636                     u4871:
  1399  1636  2FFF               	goto	l198
  1400  1637                     u4870:
  1401  1637  2FE4               	goto	l3380
  1402  1638                     l3342:
  1403                           
  1404                           ;Mainfinal2.c: 266:                 CCPR1L = ((0.247*VAL)+62);
  1405  1638  086F               	movf	_VAL^(0+128),w
  1406  1639  00E7               	movwf	??_canales^(0+128)
  1407  163A  01E8               	clrf	(??_canales^(0+128)+1)
  1408  163B  01E9               	clrf	(??_canales^(0+128)+2)
  1409  163C  01EA               	clrf	(??_canales^(0+128)+3)
  1410  163D  086A               	movf	(??_canales+3)^(0+128),w
  1411  163E  00A3               	movwf	(___xxtofl@val+3)^(0+128)
  1412  163F  0869               	movf	(??_canales+2)^(0+128),w
  1413  1640  00A2               	movwf	(___xxtofl@val+2)^(0+128)
  1414  1641  0868               	movf	(??_canales+1)^(0+128),w
  1415  1642  00A1               	movwf	(___xxtofl@val+1)^(0+128)
  1416  1643  0867               	movf	??_canales^(0+128),w
  1417  1644  00A0               	movwf	___xxtofl@val^(0+128)
  1418  1645  3001               	movlw	1
  1419  1646  120A  118A  270D  160A  118A  	fcall	___xxtofl
  1420  164B  1683               	bsf	3,5	;RP0=1, select bank1
  1421  164C  1303               	bcf	3,6	;RP1=0, select bank1
  1422  164D  0823               	movf	(?___xxtofl+3)^(0+128),w
  1423  164E  00B5               	movwf	(___flmul@a+3)^(0+128)
  1424  164F  0822               	movf	(?___xxtofl+2)^(0+128),w
  1425  1650  00B4               	movwf	(___flmul@a+2)^(0+128)
  1426  1651  0821               	movf	(?___xxtofl+1)^(0+128),w
  1427  1652  00B3               	movwf	(___flmul@a+1)^(0+128)
  1428  1653  0820               	movf	?___xxtofl^(0+128),w
  1429  1654  00B2               	movwf	___flmul@a^(0+128)
  1430  1655  303E               	movlw	62
  1431  1656  00B1               	movwf	(___flmul@b+3)^(0+128)
  1432  1657  307C               	movlw	124
  1433  1658  00B0               	movwf	(___flmul@b+2)^(0+128)
  1434  1659  30ED               	movlw	237
  1435  165A  00AF               	movwf	(___flmul@b+1)^(0+128)
  1436  165B  3091               	movlw	145
  1437  165C  00AE               	movwf	___flmul@b^(0+128)
  1438  165D  120A  118A  204B  160A  118A  	fcall	___flmul
  1439  1662  1683               	bsf	3,5	;RP0=1, select bank1
  1440  1663  1303               	bcf	3,6	;RP1=0, select bank1
  1441  1664  0831               	movf	(?___flmul+3)^(0+128),w
  1442  1665  00CF               	movwf	(___fladd@a+3)^(0+128)
  1443  1666  0830               	movf	(?___flmul+2)^(0+128),w
  1444  1667  00CE               	movwf	(___fladd@a+2)^(0+128)
  1445  1668  082F               	movf	(?___flmul+1)^(0+128),w
  1446  1669  00CD               	movwf	(___fladd@a+1)^(0+128)
  1447  166A  082E               	movf	?___flmul^(0+128),w
  1448  166B  00CC               	movwf	___fladd@a^(0+128)
  1449  166C  3042               	movlw	66
  1450  166D  00CB               	movwf	(___fladd@b+3)^(0+128)
  1451  166E  3078               	movlw	120
  1452  166F  00CA               	movwf	(___fladd@b+2)^(0+128)
  1453  1670  3000               	movlw	0
  1454  1671  00C9               	movwf	(___fladd@b+1)^(0+128)
  1455  1672  3000               	movlw	0
  1456  1673  00C8               	movwf	___fladd@b^(0+128)
  1457  1674  120A  158A  2578  160A  118A  	fcall	___fladd
  1458  1679  1683               	bsf	3,5	;RP0=1, select bank1
  1459  167A  1303               	bcf	3,6	;RP1=0, select bank1
  1460  167B  084B               	movf	(?___fladd+3)^(0+128),w
  1461  167C  00DF               	movwf	(___fltol@f1+3)^(0+128)
  1462  167D  084A               	movf	(?___fladd+2)^(0+128),w
  1463  167E  00DE               	movwf	(___fltol@f1+2)^(0+128)
  1464  167F  0849               	movf	(?___fladd+1)^(0+128),w
  1465  1680  00DD               	movwf	(___fltol@f1+1)^(0+128)
  1466  1681  0848               	movf	?___fladd^(0+128),w
  1467  1682  00DC               	movwf	___fltol@f1^(0+128)
  1468  1683  160A  118A  23F8  160A  118A  	fcall	___fltol
  1469  1688  1683               	bsf	3,5	;RP0=1, select bank1
  1470  1689  1303               	bcf	3,6	;RP1=0, select bank1
  1471  168A  085C               	movf	?___fltol^(0+128),w
  1472  168B  1283               	bcf	3,5	;RP0=0, select bank0
  1473  168C  1303               	bcf	3,6	;RP1=0, select bank0
  1474  168D  0095               	movwf	21	;volatile
  1475  168E                     l3344:
  1476                           
  1477                           ;Mainfinal2.c: 267:                 VALOR1 = CCPR1L;
  1478  168E  0815               	movf	21,w	;volatile
  1479  168F  1683               	bsf	3,5	;RP0=1, select bank1
  1480  1690  1303               	bcf	3,6	;RP1=0, select bank1
  1481  1691  00E7               	movwf	??_canales^(0+128)
  1482  1692  0867               	movf	??_canales^(0+128),w
  1483  1693  1683               	bsf	3,5	;RP0=1, select bank3
  1484  1694  1703               	bsf	3,6	;RP1=1, select bank3
  1485  1695  00E8               	movwf	_VALOR1^(0+384)
  1486  1696                     l3346:
  1487                           
  1488                           ;Mainfinal2.c: 268:                 ADCON0bits.CHS = 1;
  1489  1696  1283               	bcf	3,5	;RP0=0, select bank0
  1490  1697  1303               	bcf	3,6	;RP1=0, select bank0
  1491  1698  081F               	movf	31,w	;volatile
  1492  1699  39C3               	andlw	-61
  1493  169A  3804               	iorlw	4
  1494  169B  009F               	movwf	31	;volatile
  1495  169C                     l3348:
  1496                           
  1497                           ;Mainfinal2.c: 269:                 _delay((unsigned long)((100)*(4000000/4000000.0)));
  1498  169C  3020               	movlw	32
  1499  169D  1683               	bsf	3,5	;RP0=1, select bank1
  1500  169E  1303               	bcf	3,6	;RP1=0, select bank1
  1501  169F  00E7               	movwf	??_canales^(0+128)
  1502  16A0                     u4967:
  1503  16A0  0BE7               	decfsz	??_canales^(0+128),f
  1504  16A1  2EA0               	goto	u4967
  1505  16A2  0000               	nop
  1506  16A3                     l3350:
  1507                           
  1508                           ;Mainfinal2.c: 270:                 ADCON0bits.GO = 1;
  1509  16A3  1283               	bcf	3,5	;RP0=0, select bank0
  1510  16A4  1303               	bcf	3,6	;RP1=0, select bank0
  1511  16A5  149F               	bsf	31,1	;volatile
  1512                           
  1513                           ;Mainfinal2.c: 271:                 break;
  1514  16A6  2FFF               	goto	l198
  1515  16A7                     l3352:
  1516                           
  1517                           ;Mainfinal2.c: 274:                 POT4 = ((0.049*VAL1)+7);
  1518  16A7  086E               	movf	_VAL1^(0+128),w
  1519  16A8  00E7               	movwf	??_canales^(0+128)
  1520  16A9  01E8               	clrf	(??_canales^(0+128)+1)
  1521  16AA  01E9               	clrf	(??_canales^(0+128)+2)
  1522  16AB  01EA               	clrf	(??_canales^(0+128)+3)
  1523  16AC  086A               	movf	(??_canales+3)^(0+128),w
  1524  16AD  00A3               	movwf	(___xxtofl@val+3)^(0+128)
  1525  16AE  0869               	movf	(??_canales+2)^(0+128),w
  1526  16AF  00A2               	movwf	(___xxtofl@val+2)^(0+128)
  1527  16B0  0868               	movf	(??_canales+1)^(0+128),w
  1528  16B1  00A1               	movwf	(___xxtofl@val+1)^(0+128)
  1529  16B2  0867               	movf	??_canales^(0+128),w
  1530  16B3  00A0               	movwf	___xxtofl@val^(0+128)
  1531  16B4  3001               	movlw	1
  1532  16B5  120A  118A  270D  160A  118A  	fcall	___xxtofl
  1533  16BA  1683               	bsf	3,5	;RP0=1, select bank1
  1534  16BB  1303               	bcf	3,6	;RP1=0, select bank1
  1535  16BC  0823               	movf	(?___xxtofl+3)^(0+128),w
  1536  16BD  00B5               	movwf	(___flmul@a+3)^(0+128)
  1537  16BE  0822               	movf	(?___xxtofl+2)^(0+128),w
  1538  16BF  00B4               	movwf	(___flmul@a+2)^(0+128)
  1539  16C0  0821               	movf	(?___xxtofl+1)^(0+128),w
  1540  16C1  00B3               	movwf	(___flmul@a+1)^(0+128)
  1541  16C2  0820               	movf	?___xxtofl^(0+128),w
  1542  16C3  00B2               	movwf	___flmul@a^(0+128)
  1543  16C4  303D               	movlw	61
  1544  16C5  00B1               	movwf	(___flmul@b+3)^(0+128)
  1545  16C6  3048               	movlw	72
  1546  16C7  00B0               	movwf	(___flmul@b+2)^(0+128)
  1547  16C8  30B4               	movlw	180
  1548  16C9  00AF               	movwf	(___flmul@b+1)^(0+128)
  1549  16CA  3039               	movlw	57
  1550  16CB  00AE               	movwf	___flmul@b^(0+128)
  1551  16CC  120A  118A  204B  160A  118A  	fcall	___flmul
  1552  16D1  1683               	bsf	3,5	;RP0=1, select bank1
  1553  16D2  1303               	bcf	3,6	;RP1=0, select bank1
  1554  16D3  0831               	movf	(?___flmul+3)^(0+128),w
  1555  16D4  00CF               	movwf	(___fladd@a+3)^(0+128)
  1556  16D5  0830               	movf	(?___flmul+2)^(0+128),w
  1557  16D6  00CE               	movwf	(___fladd@a+2)^(0+128)
  1558  16D7  082F               	movf	(?___flmul+1)^(0+128),w
  1559  16D8  00CD               	movwf	(___fladd@a+1)^(0+128)
  1560  16D9  082E               	movf	?___flmul^(0+128),w
  1561  16DA  00CC               	movwf	___fladd@a^(0+128)
  1562  16DB  3040               	movlw	64
  1563  16DC  00CB               	movwf	(___fladd@b+3)^(0+128)
  1564  16DD  30E0               	movlw	224
  1565  16DE  00CA               	movwf	(___fladd@b+2)^(0+128)
  1566  16DF  3000               	movlw	0
  1567  16E0  00C9               	movwf	(___fladd@b+1)^(0+128)
  1568  16E1  3000               	movlw	0
  1569  16E2  00C8               	movwf	___fladd@b^(0+128)
  1570  16E3  120A  158A  2578  160A  118A  	fcall	___fladd
  1571  16E8  1683               	bsf	3,5	;RP0=1, select bank1
  1572  16E9  1303               	bcf	3,6	;RP1=0, select bank1
  1573  16EA  084B               	movf	(?___fladd+3)^(0+128),w
  1574  16EB  00DF               	movwf	(___fltol@f1+3)^(0+128)
  1575  16EC  084A               	movf	(?___fladd+2)^(0+128),w
  1576  16ED  00DE               	movwf	(___fltol@f1+2)^(0+128)
  1577  16EE  0849               	movf	(?___fladd+1)^(0+128),w
  1578  16EF  00DD               	movwf	(___fltol@f1+1)^(0+128)
  1579  16F0  0848               	movf	?___fladd^(0+128),w
  1580  16F1  00DC               	movwf	___fltol@f1^(0+128)
  1581  16F2  160A  118A  23F8  160A  118A  	fcall	___fltol
  1582  16F7  1683               	bsf	3,5	;RP0=1, select bank1
  1583  16F8  1303               	bcf	3,6	;RP1=0, select bank1
  1584  16F9  085C               	movf	?___fltol^(0+128),w
  1585  16FA  00EB               	movwf	(??_canales+4)^(0+128)
  1586  16FB  086B               	movf	(??_canales+4)^(0+128),w
  1587  16FC  1683               	bsf	3,5	;RP0=1, select bank3
  1588  16FD  1703               	bsf	3,6	;RP1=1, select bank3
  1589  16FE  00ED               	movwf	_POT4^(0+384)
  1590  16FF                     l3354:
  1591                           
  1592                           ;Mainfinal2.c: 275:                 ADCON0bits.CHS = 2;
  1593  16FF  1283               	bcf	3,5	;RP0=0, select bank0
  1594  1700  1303               	bcf	3,6	;RP1=0, select bank0
  1595  1701  081F               	movf	31,w	;volatile
  1596  1702  39C3               	andlw	-61
  1597  1703  3808               	iorlw	8
  1598  1704  009F               	movwf	31	;volatile
  1599  1705                     l3356:
  1600                           
  1601                           ;Mainfinal2.c: 276:                 _delay((unsigned long)((250)*(4000000/4000000.0)));
  1602  1705  3052               	movlw	82
  1603  1706  1683               	bsf	3,5	;RP0=1, select bank1
  1604  1707  1303               	bcf	3,6	;RP1=0, select bank1
  1605  1708  00E7               	movwf	??_canales^(0+128)
  1606  1709                     u4977:
  1607  1709  0BE7               	decfsz	??_canales^(0+128),f
  1608  170A  2F09               	goto	u4977
  1609  170B  0000               	nop
  1610  170C                     l3358:
  1611                           
  1612                           ;Mainfinal2.c: 277:                 ADCON0bits.GO = 1;
  1613  170C  1283               	bcf	3,5	;RP0=0, select bank0
  1614  170D  1303               	bcf	3,6	;RP1=0, select bank0
  1615  170E  149F               	bsf	31,1	;volatile
  1616                           
  1617                           ;Mainfinal2.c: 278:                 break;
  1618  170F  2FFF               	goto	l198
  1619  1710                     l3360:
  1620                           
  1621                           ;Mainfinal2.c: 281:                 CCPR2L = ((0.247*VAL2)+62);
  1622  1710  086D               	movf	_VAL2^(0+128),w
  1623  1711  00E7               	movwf	??_canales^(0+128)
  1624  1712  01E8               	clrf	(??_canales^(0+128)+1)
  1625  1713  01E9               	clrf	(??_canales^(0+128)+2)
  1626  1714  01EA               	clrf	(??_canales^(0+128)+3)
  1627  1715  086A               	movf	(??_canales+3)^(0+128),w
  1628  1716  00A3               	movwf	(___xxtofl@val+3)^(0+128)
  1629  1717  0869               	movf	(??_canales+2)^(0+128),w
  1630  1718  00A2               	movwf	(___xxtofl@val+2)^(0+128)
  1631  1719  0868               	movf	(??_canales+1)^(0+128),w
  1632  171A  00A1               	movwf	(___xxtofl@val+1)^(0+128)
  1633  171B  0867               	movf	??_canales^(0+128),w
  1634  171C  00A0               	movwf	___xxtofl@val^(0+128)
  1635  171D  3001               	movlw	1
  1636  171E  120A  118A  270D  160A  118A  	fcall	___xxtofl
  1637  1723  1683               	bsf	3,5	;RP0=1, select bank1
  1638  1724  1303               	bcf	3,6	;RP1=0, select bank1
  1639  1725  0823               	movf	(?___xxtofl+3)^(0+128),w
  1640  1726  00B5               	movwf	(___flmul@a+3)^(0+128)
  1641  1727  0822               	movf	(?___xxtofl+2)^(0+128),w
  1642  1728  00B4               	movwf	(___flmul@a+2)^(0+128)
  1643  1729  0821               	movf	(?___xxtofl+1)^(0+128),w
  1644  172A  00B3               	movwf	(___flmul@a+1)^(0+128)
  1645  172B  0820               	movf	?___xxtofl^(0+128),w
  1646  172C  00B2               	movwf	___flmul@a^(0+128)
  1647  172D  303E               	movlw	62
  1648  172E  00B1               	movwf	(___flmul@b+3)^(0+128)
  1649  172F  307C               	movlw	124
  1650  1730  00B0               	movwf	(___flmul@b+2)^(0+128)
  1651  1731  30ED               	movlw	237
  1652  1732  00AF               	movwf	(___flmul@b+1)^(0+128)
  1653  1733  3091               	movlw	145
  1654  1734  00AE               	movwf	___flmul@b^(0+128)
  1655  1735  120A  118A  204B  160A  118A  	fcall	___flmul
  1656  173A  1683               	bsf	3,5	;RP0=1, select bank1
  1657  173B  1303               	bcf	3,6	;RP1=0, select bank1
  1658  173C  0831               	movf	(?___flmul+3)^(0+128),w
  1659  173D  00CF               	movwf	(___fladd@a+3)^(0+128)
  1660  173E  0830               	movf	(?___flmul+2)^(0+128),w
  1661  173F  00CE               	movwf	(___fladd@a+2)^(0+128)
  1662  1740  082F               	movf	(?___flmul+1)^(0+128),w
  1663  1741  00CD               	movwf	(___fladd@a+1)^(0+128)
  1664  1742  082E               	movf	?___flmul^(0+128),w
  1665  1743  00CC               	movwf	___fladd@a^(0+128)
  1666  1744  3042               	movlw	66
  1667  1745  00CB               	movwf	(___fladd@b+3)^(0+128)
  1668  1746  3078               	movlw	120
  1669  1747  00CA               	movwf	(___fladd@b+2)^(0+128)
  1670  1748  3000               	movlw	0
  1671  1749  00C9               	movwf	(___fladd@b+1)^(0+128)
  1672  174A  3000               	movlw	0
  1673  174B  00C8               	movwf	___fladd@b^(0+128)
  1674  174C  120A  158A  2578  160A  118A  	fcall	___fladd
  1675  1751  1683               	bsf	3,5	;RP0=1, select bank1
  1676  1752  1303               	bcf	3,6	;RP1=0, select bank1
  1677  1753  084B               	movf	(?___fladd+3)^(0+128),w
  1678  1754  00DF               	movwf	(___fltol@f1+3)^(0+128)
  1679  1755  084A               	movf	(?___fladd+2)^(0+128),w
  1680  1756  00DE               	movwf	(___fltol@f1+2)^(0+128)
  1681  1757  0849               	movf	(?___fladd+1)^(0+128),w
  1682  1758  00DD               	movwf	(___fltol@f1+1)^(0+128)
  1683  1759  0848               	movf	?___fladd^(0+128),w
  1684  175A  00DC               	movwf	___fltol@f1^(0+128)
  1685  175B  160A  118A  23F8  160A  118A  	fcall	___fltol
  1686  1760  1683               	bsf	3,5	;RP0=1, select bank1
  1687  1761  1303               	bcf	3,6	;RP1=0, select bank1
  1688  1762  085C               	movf	?___fltol^(0+128),w
  1689  1763  1283               	bcf	3,5	;RP0=0, select bank0
  1690  1764  1303               	bcf	3,6	;RP1=0, select bank0
  1691  1765  009B               	movwf	27	;volatile
  1692  1766                     l3362:
  1693                           
  1694                           ;Mainfinal2.c: 282:                 VALOR2 = CCPR2L;
  1695  1766  081B               	movf	27,w	;volatile
  1696  1767  1683               	bsf	3,5	;RP0=1, select bank1
  1697  1768  1303               	bcf	3,6	;RP1=0, select bank1
  1698  1769  00E7               	movwf	??_canales^(0+128)
  1699  176A  0867               	movf	??_canales^(0+128),w
  1700  176B  1683               	bsf	3,5	;RP0=1, select bank3
  1701  176C  1703               	bsf	3,6	;RP1=1, select bank3
  1702  176D  00E7               	movwf	_VALOR2^(0+384)
  1703  176E                     l3364:
  1704                           
  1705                           ;Mainfinal2.c: 283:                 ADCON0bits.CHS = 3;
  1706  176E  1283               	bcf	3,5	;RP0=0, select bank0
  1707  176F  1303               	bcf	3,6	;RP1=0, select bank0
  1708  1770  081F               	movf	31,w	;volatile
  1709  1771  39C3               	andlw	-61
  1710  1772  380C               	iorlw	12
  1711  1773  009F               	movwf	31	;volatile
  1712  1774                     l3366:
  1713                           
  1714                           ;Mainfinal2.c: 284:                 _delay((unsigned long)((100)*(4000000/4000000.0)));
  1715  1774  3020               	movlw	32
  1716  1775  1683               	bsf	3,5	;RP0=1, select bank1
  1717  1776  1303               	bcf	3,6	;RP1=0, select bank1
  1718  1777  00E7               	movwf	??_canales^(0+128)
  1719  1778                     u4987:
  1720  1778  0BE7               	decfsz	??_canales^(0+128),f
  1721  1779  2F78               	goto	u4987
  1722  177A  0000               	nop
  1723  177B                     l3368:
  1724                           
  1725                           ;Mainfinal2.c: 285:                 ADCON0bits.GO = 1;
  1726  177B  1283               	bcf	3,5	;RP0=0, select bank0
  1727  177C  1303               	bcf	3,6	;RP1=0, select bank0
  1728  177D  149F               	bsf	31,1	;volatile
  1729                           
  1730                           ;Mainfinal2.c: 286:                 break;
  1731  177E  2FFF               	goto	l198
  1732  177F                     l3370:
  1733                           
  1734                           ;Mainfinal2.c: 289:                 POT3 = ((0.049*VAL3)+7);
  1735  177F  086C               	movf	_VAL3^(0+128),w
  1736  1780  00E7               	movwf	??_canales^(0+128)
  1737  1781  01E8               	clrf	(??_canales^(0+128)+1)
  1738  1782  01E9               	clrf	(??_canales^(0+128)+2)
  1739  1783  01EA               	clrf	(??_canales^(0+128)+3)
  1740  1784  086A               	movf	(??_canales+3)^(0+128),w
  1741  1785  00A3               	movwf	(___xxtofl@val+3)^(0+128)
  1742  1786  0869               	movf	(??_canales+2)^(0+128),w
  1743  1787  00A2               	movwf	(___xxtofl@val+2)^(0+128)
  1744  1788  0868               	movf	(??_canales+1)^(0+128),w
  1745  1789  00A1               	movwf	(___xxtofl@val+1)^(0+128)
  1746  178A  0867               	movf	??_canales^(0+128),w
  1747  178B  00A0               	movwf	___xxtofl@val^(0+128)
  1748  178C  3001               	movlw	1
  1749  178D  120A  118A  270D  160A  118A  	fcall	___xxtofl
  1750  1792  1683               	bsf	3,5	;RP0=1, select bank1
  1751  1793  1303               	bcf	3,6	;RP1=0, select bank1
  1752  1794  0823               	movf	(?___xxtofl+3)^(0+128),w
  1753  1795  00B5               	movwf	(___flmul@a+3)^(0+128)
  1754  1796  0822               	movf	(?___xxtofl+2)^(0+128),w
  1755  1797  00B4               	movwf	(___flmul@a+2)^(0+128)
  1756  1798  0821               	movf	(?___xxtofl+1)^(0+128),w
  1757  1799  00B3               	movwf	(___flmul@a+1)^(0+128)
  1758  179A  0820               	movf	?___xxtofl^(0+128),w
  1759  179B  00B2               	movwf	___flmul@a^(0+128)
  1760  179C  303D               	movlw	61
  1761  179D  00B1               	movwf	(___flmul@b+3)^(0+128)
  1762  179E  3048               	movlw	72
  1763  179F  00B0               	movwf	(___flmul@b+2)^(0+128)
  1764  17A0  30B4               	movlw	180
  1765  17A1  00AF               	movwf	(___flmul@b+1)^(0+128)
  1766  17A2  3039               	movlw	57
  1767  17A3  00AE               	movwf	___flmul@b^(0+128)
  1768  17A4  120A  118A  204B  160A  118A  	fcall	___flmul
  1769  17A9  1683               	bsf	3,5	;RP0=1, select bank1
  1770  17AA  1303               	bcf	3,6	;RP1=0, select bank1
  1771  17AB  0831               	movf	(?___flmul+3)^(0+128),w
  1772  17AC  00CF               	movwf	(___fladd@a+3)^(0+128)
  1773  17AD  0830               	movf	(?___flmul+2)^(0+128),w
  1774  17AE  00CE               	movwf	(___fladd@a+2)^(0+128)
  1775  17AF  082F               	movf	(?___flmul+1)^(0+128),w
  1776  17B0  00CD               	movwf	(___fladd@a+1)^(0+128)
  1777  17B1  082E               	movf	?___flmul^(0+128),w
  1778  17B2  00CC               	movwf	___fladd@a^(0+128)
  1779  17B3  3040               	movlw	64
  1780  17B4  00CB               	movwf	(___fladd@b+3)^(0+128)
  1781  17B5  30E0               	movlw	224
  1782  17B6  00CA               	movwf	(___fladd@b+2)^(0+128)
  1783  17B7  3000               	movlw	0
  1784  17B8  00C9               	movwf	(___fladd@b+1)^(0+128)
  1785  17B9  3000               	movlw	0
  1786  17BA  00C8               	movwf	___fladd@b^(0+128)
  1787  17BB  120A  158A  2578  160A  118A  	fcall	___fladd
  1788  17C0  1683               	bsf	3,5	;RP0=1, select bank1
  1789  17C1  1303               	bcf	3,6	;RP1=0, select bank1
  1790  17C2  084B               	movf	(?___fladd+3)^(0+128),w
  1791  17C3  00DF               	movwf	(___fltol@f1+3)^(0+128)
  1792  17C4  084A               	movf	(?___fladd+2)^(0+128),w
  1793  17C5  00DE               	movwf	(___fltol@f1+2)^(0+128)
  1794  17C6  0849               	movf	(?___fladd+1)^(0+128),w
  1795  17C7  00DD               	movwf	(___fltol@f1+1)^(0+128)
  1796  17C8  0848               	movf	?___fladd^(0+128),w
  1797  17C9  00DC               	movwf	___fltol@f1^(0+128)
  1798  17CA  160A  118A  23F8  160A  118A  	fcall	___fltol
  1799  17CF  1683               	bsf	3,5	;RP0=1, select bank1
  1800  17D0  1303               	bcf	3,6	;RP1=0, select bank1
  1801  17D1  085C               	movf	?___fltol^(0+128),w
  1802  17D2  00EB               	movwf	(??_canales+4)^(0+128)
  1803  17D3  086B               	movf	(??_canales+4)^(0+128),w
  1804  17D4  1283               	bcf	3,5	;RP0=0, select bank0
  1805  17D5  1303               	bcf	3,6	;RP1=0, select bank0
  1806  17D6  00EE               	movwf	_POT3
  1807  17D7                     l3372:
  1808                           
  1809                           ;Mainfinal2.c: 290:                 ADCON0bits.CHS = 0;
  1810  17D7  30C3               	movlw	-61
  1811  17D8  059F               	andwf	31,f	;volatile
  1812  17D9                     l3374:
  1813                           
  1814                           ;Mainfinal2.c: 291:                 _delay((unsigned long)((250)*(4000000/4000000.0)));
  1815  17D9  3052               	movlw	82
  1816  17DA  1683               	bsf	3,5	;RP0=1, select bank1
  1817  17DB  1303               	bcf	3,6	;RP1=0, select bank1
  1818  17DC  00E7               	movwf	??_canales^(0+128)
  1819  17DD                     u4997:
  1820  17DD  0BE7               	decfsz	??_canales^(0+128),f
  1821  17DE  2FDD               	goto	u4997
  1822  17DF  0000               	nop
  1823  17E0                     l3376:
  1824                           
  1825                           ;Mainfinal2.c: 292:                 ADCON0bits.GO = 1;
  1826  17E0  1283               	bcf	3,5	;RP0=0, select bank0
  1827  17E1  1303               	bcf	3,6	;RP1=0, select bank0
  1828  17E2  149F               	bsf	31,1	;volatile
  1829                           
  1830                           ;Mainfinal2.c: 293:                 break;
  1831  17E3  2FFF               	goto	l198
  1832  17E4                     l3380:
  1833  17E4  0C1F               	rrf	31,w	;volatile
  1834  17E5  1683               	bsf	3,5	;RP0=1, select bank1
  1835  17E6  1303               	bcf	3,6	;RP1=0, select bank1
  1836  17E7  00E7               	movwf	??_canales^(0+128)
  1837  17E8  0C67               	rrf	??_canales^(0+128),w
  1838  17E9  390F               	andlw	15
  1839  17EA  00E8               	movwf	(??_canales+1)^(0+128)
  1840  17EB  01E9               	clrf	((??_canales+1)^(0+128)+1)
  1841                           
  1842                           ; Switch on 2 bytes has been partitioned into a top level switch of size 1, and 1 sub-sw
      +                          itches
  1843                           ; Switch size 1, requested type "simple"
  1844                           ; Number of cases is 1, Range of values is 0 to 0
  1845                           ; switch strategies available:
  1846                           ; Name         Instructions Cycles
  1847                           ; simple_byte            4     3 (average)
  1848                           ; direct_byte           11     8 (fixed)
  1849                           ; jumptable            260     6 (fixed)
  1850                           ;	Chosen strategy is simple_byte
  1851  17EC  0869               	movf	(??_canales+2)^(0+128),w
  1852  17ED  3A00               	xorlw	0	; case 0
  1853  17EE  1903               	skipnz
  1854  17EF  2FF1               	goto	l3556
  1855  17F0  2FFF               	goto	l198
  1856  17F1                     l3556:
  1857                           
  1858                           ; Switch size 1, requested type "simple"
  1859                           ; Number of cases is 4, Range of values is 0 to 3
  1860                           ; switch strategies available:
  1861                           ; Name         Instructions Cycles
  1862                           ; simple_byte           13     7 (average)
  1863                           ; direct_byte           20     8 (fixed)
  1864                           ; jumptable            260     6 (fixed)
  1865                           ;	Chosen strategy is simple_byte
  1866  17F1  0868               	movf	(??_canales+1)^(0+128),w
  1867  17F2  3A00               	xorlw	0	; case 0
  1868  17F3  1903               	skipnz
  1869  17F4  2E38               	goto	l3342
  1870  17F5  3A01               	xorlw	1	; case 1
  1871  17F6  1903               	skipnz
  1872  17F7  2EA7               	goto	l3352
  1873  17F8  3A03               	xorlw	3	; case 2
  1874  17F9  1903               	skipnz
  1875  17FA  2F10               	goto	l3360
  1876  17FB  3A01               	xorlw	1	; case 3
  1877  17FC  1903               	skipnz
  1878  17FD  2F7F               	goto	l3370
  1879  17FE  2FFF               	goto	l198
  1880  17FF                     l198:
  1881  17FF  0008               	return
  1882  1800                     __end_of_canales:
  1883                           
  1884                           	psect	text3
  1885  070D                     __ptext3:	
  1886 ;; *************** function ___xxtofl *****************
  1887 ;; Defined at:
  1888 ;;		line 10 in file "C:\Program Files\Microchip\xc8\v2.31\pic\sources\c90\common\xxtofl.c"
  1889 ;; Parameters:    Size  Location     Type
  1890 ;;  sign            1    wreg     unsigned char 
  1891 ;;  val             4    0[BANK1 ] long 
  1892 ;; Auto vars:     Size  Location     Type
  1893 ;;  sign            1    8[BANK1 ] unsigned char 
  1894 ;;  arg             4   10[BANK1 ] unsigned long 
  1895 ;;  exp             1    9[BANK1 ] unsigned char 
  1896 ;; Return value:  Size  Location     Type
  1897 ;;                  4    0[BANK1 ] unsigned char 
  1898 ;; Registers used:
  1899 ;;		wreg, status,2, status,0
  1900 ;; Tracked objects:
  1901 ;;		On entry : 0/0
  1902 ;;		On exit  : 0/0
  1903 ;;		Unchanged: 0/0
  1904 ;; Data sizes:     COMMON   BANK0   BANK1   BANK3   BANK2
  1905 ;;      Params:         0       0       4       0       0
  1906 ;;      Locals:         0       0       6       0       0
  1907 ;;      Temps:          0       0       4       0       0
  1908 ;;      Totals:         0       0      14       0       0
  1909 ;;Total ram usage:       14 bytes
  1910 ;; Hardware stack levels used:    1
  1911 ;; Hardware stack levels required when called:    7
  1912 ;; This function calls:
  1913 ;;		Nothing
  1914 ;; This function is called by:
  1915 ;;		_canales
  1916 ;; This function uses a non-reentrant model
  1917 ;;
  1918                           
  1919                           
  1920                           ;psect for function ___xxtofl
  1921  070D                     ___xxtofl:
  1922                           
  1923                           ;incstack = 0
  1924 ;; hardware stack exceeded
  1925                           ; Regs used in ___xxtofl: [wreg+status,2+status,0]
  1926                           ;___xxtofl@sign stored from wreg
  1927  070D  1683               	bsf	3,5	;RP0=1, select bank1
  1928  070E  1303               	bcf	3,6	;RP1=0, select bank1
  1929  070F  00A8               	movwf	___xxtofl@sign^(0+128)
  1930  0710                     l3150:
  1931  0710  0828               	movf	___xxtofl@sign^(0+128),w
  1932  0711  1903               	btfsc	3,2
  1933  0712  2F14               	goto	u4671
  1934  0713  2F15               	goto	u4670
  1935  0714                     u4671:
  1936  0714  2F29               	goto	l3156
  1937  0715                     u4670:
  1938  0715                     l3152:
  1939  0715  1FA3               	btfss	(___xxtofl@val+3)^(0+128),7
  1940  0716  2F18               	goto	u4681
  1941  0717  2F19               	goto	u4680
  1942  0718                     u4681:
  1943  0718  2F29               	goto	l3156
  1944  0719                     u4680:
  1945  0719                     l3154:
  1946  0719  0920               	comf	___xxtofl@val^(0+128),w
  1947  071A  00AA               	movwf	___xxtofl@arg^(0+128)
  1948  071B  0921               	comf	(___xxtofl@val^(0+128)+1),w
  1949  071C  00AB               	movwf	(___xxtofl@arg+1)^(0+128)
  1950  071D  0922               	comf	(___xxtofl@val^(0+128)+2),w
  1951  071E  00AC               	movwf	(___xxtofl@arg+2)^(0+128)
  1952  071F  0923               	comf	(___xxtofl@val^(0+128)+3),w
  1953  0720  00AD               	movwf	(___xxtofl@arg+3)^(0+128)
  1954  0721  0AAA               	incf	___xxtofl@arg^(0+128),f
  1955  0722  1903               	skipnz
  1956  0723  0AAB               	incf	(___xxtofl@arg+1)^(0+128),f
  1957  0724  1903               	skipnz
  1958  0725  0AAC               	incf	(___xxtofl@arg+2)^(0+128),f
  1959  0726  1903               	skipnz
  1960  0727  0AAD               	incf	(___xxtofl@arg+3)^(0+128),f
  1961  0728  2F31               	goto	l767
  1962  0729                     l3156:
  1963  0729  0823               	movf	(___xxtofl@val+3)^(0+128),w
  1964  072A  00AD               	movwf	(___xxtofl@arg+3)^(0+128)
  1965  072B  0822               	movf	(___xxtofl@val+2)^(0+128),w
  1966  072C  00AC               	movwf	(___xxtofl@arg+2)^(0+128)
  1967  072D  0821               	movf	(___xxtofl@val+1)^(0+128),w
  1968  072E  00AB               	movwf	(___xxtofl@arg+1)^(0+128)
  1969  072F  0820               	movf	___xxtofl@val^(0+128),w
  1970  0730  00AA               	movwf	___xxtofl@arg^(0+128)
  1971  0731                     l767:
  1972  0731  0823               	movf	(___xxtofl@val+3)^(0+128),w
  1973  0732  0422               	iorwf	(___xxtofl@val+2)^(0+128),w
  1974  0733  0421               	iorwf	(___xxtofl@val+1)^(0+128),w
  1975  0734  0420               	iorwf	___xxtofl@val^(0+128),w
  1976  0735  1D03               	skipz
  1977  0736  2F38               	goto	u4691
  1978  0737  2F39               	goto	u4690
  1979  0738                     u4691:
  1980  0738  2F42               	goto	l3162
  1981  0739                     u4690:
  1982  0739                     l3158:
  1983  0739  3000               	movlw	0
  1984  073A  00A3               	movwf	(?___xxtofl+3)^(0+128)
  1985  073B  3000               	movlw	0
  1986  073C  00A2               	movwf	(?___xxtofl+2)^(0+128)
  1987  073D  3000               	movlw	0
  1988  073E  00A1               	movwf	(?___xxtofl+1)^(0+128)
  1989  073F  3000               	movlw	0
  1990  0740  00A0               	movwf	?___xxtofl^(0+128)
  1991  0741  2FC8               	goto	l769
  1992  0742                     l3162:
  1993  0742  3096               	movlw	150
  1994  0743  00A4               	movwf	??___xxtofl^(0+128)
  1995  0744  0824               	movf	??___xxtofl^(0+128),w
  1996  0745  00A9               	movwf	___xxtofl@exp^(0+128)
  1997  0746  2F54               	goto	l3166
  1998  0747                     l3164:
  1999  0747  3001               	movlw	1
  2000  0748  00A4               	movwf	??___xxtofl^(0+128)
  2001  0749  0824               	movf	??___xxtofl^(0+128),w
  2002  074A  07A9               	addwf	___xxtofl@exp^(0+128),f
  2003  074B  3001               	movlw	1
  2004  074C                     u4705:
  2005  074C  1003               	clrc
  2006  074D  0CAD               	rrf	(___xxtofl@arg+3)^(0+128),f
  2007  074E  0CAC               	rrf	(___xxtofl@arg+2)^(0+128),f
  2008  074F  0CAB               	rrf	(___xxtofl@arg+1)^(0+128),f
  2009  0750  0CAA               	rrf	___xxtofl@arg^(0+128),f
  2010  0751  3EFF               	addlw	-1
  2011  0752  1D03               	skipz
  2012  0753  2F4C               	goto	u4705
  2013  0754                     l3166:
  2014  0754  30FE               	movlw	254
  2015  0755  052D               	andwf	(___xxtofl@arg+3)^(0+128),w
  2016  0756  1D03               	btfss	3,2
  2017  0757  2F59               	goto	u4711
  2018  0758  2F5A               	goto	u4710
  2019  0759                     u4711:
  2020  0759  2F47               	goto	l3164
  2021  075A                     u4710:
  2022  075A  2F76               	goto	l773
  2023  075B                     l3168:
  2024  075B  3001               	movlw	1
  2025  075C  00A4               	movwf	??___xxtofl^(0+128)
  2026  075D  0824               	movf	??___xxtofl^(0+128),w
  2027  075E  07A9               	addwf	___xxtofl@exp^(0+128),f
  2028  075F                     l3170:
  2029  075F  3001               	movlw	1
  2030  0760  07AA               	addwf	___xxtofl@arg^(0+128),f
  2031  0761  3000               	movlw	0
  2032  0762  1803               	skipnc
  2033  0763  3001               	movlw	1
  2034  0764  07AB               	addwf	(___xxtofl@arg+1)^(0+128),f
  2035  0765  3000               	movlw	0
  2036  0766  1803               	skipnc
  2037  0767  3001               	movlw	1
  2038  0768  07AC               	addwf	(___xxtofl@arg+2)^(0+128),f
  2039  0769  3000               	movlw	0
  2040  076A  1803               	skipnc
  2041  076B  3001               	movlw	1
  2042  076C  07AD               	addwf	(___xxtofl@arg+3)^(0+128),f
  2043  076D                     l3172:
  2044  076D  3001               	movlw	1
  2045  076E                     u4725:
  2046  076E  1003               	clrc
  2047  076F  0CAD               	rrf	(___xxtofl@arg+3)^(0+128),f
  2048  0770  0CAC               	rrf	(___xxtofl@arg+2)^(0+128),f
  2049  0771  0CAB               	rrf	(___xxtofl@arg+1)^(0+128),f
  2050  0772  0CAA               	rrf	___xxtofl@arg^(0+128),f
  2051  0773  3EFF               	addlw	-1
  2052  0774  1D03               	skipz
  2053  0775  2F6E               	goto	u4725
  2054  0776                     l773:
  2055  0776  30FF               	movlw	255
  2056  0777  052D               	andwf	(___xxtofl@arg+3)^(0+128),w
  2057  0778  1D03               	btfss	3,2
  2058  0779  2F7B               	goto	u4731
  2059  077A  2F7C               	goto	u4730
  2060  077B                     u4731:
  2061  077B  2F5B               	goto	l3168
  2062  077C                     u4730:
  2063  077C  2F88               	goto	l3176
  2064  077D                     l3174:
  2065  077D  3001               	movlw	1
  2066  077E  02A9               	subwf	___xxtofl@exp^(0+128),f
  2067  077F  3001               	movlw	1
  2068  0780  00A4               	movwf	??___xxtofl^(0+128)
  2069  0781                     u4745:
  2070  0781  1003               	clrc
  2071  0782  0DAA               	rlf	___xxtofl@arg^(0+128),f
  2072  0783  0DAB               	rlf	(___xxtofl@arg+1)^(0+128),f
  2073  0784  0DAC               	rlf	(___xxtofl@arg+2)^(0+128),f
  2074  0785  0DAD               	rlf	(___xxtofl@arg+3)^(0+128),f
  2075  0786  0BA4               	decfsz	??___xxtofl^(0+128),f
  2076  0787  2F81               	goto	u4745
  2077  0788                     l3176:
  2078  0788  1BAC               	btfsc	(___xxtofl@arg+2)^(0+128),7
  2079  0789  2F8B               	goto	u4751
  2080  078A  2F8C               	goto	u4750
  2081  078B                     u4751:
  2082  078B  2F92               	goto	l780
  2083  078C                     u4750:
  2084  078C                     l3178:
  2085  078C  3002               	movlw	2
  2086  078D  0229               	subwf	___xxtofl@exp^(0+128),w
  2087  078E  1803               	skipnc
  2088  078F  2F91               	goto	u4761
  2089  0790  2F92               	goto	u4760
  2090  0791                     u4761:
  2091  0791  2F7D               	goto	l3174
  2092  0792                     u4760:
  2093  0792                     l780:
  2094  0792  1829               	btfsc	___xxtofl@exp^(0+128),0
  2095  0793  2F95               	goto	u4771
  2096  0794  2F96               	goto	u4770
  2097  0795                     u4771:
  2098  0795  2F9E               	goto	l781
  2099  0796                     u4770:
  2100  0796                     l3180:
  2101  0796  30FF               	movlw	255
  2102  0797  05AA               	andwf	___xxtofl@arg^(0+128),f
  2103  0798  30FF               	movlw	255
  2104  0799  05AB               	andwf	(___xxtofl@arg+1)^(0+128),f
  2105  079A  307F               	movlw	127
  2106  079B  05AC               	andwf	(___xxtofl@arg+2)^(0+128),f
  2107  079C  30FF               	movlw	255
  2108  079D  05AD               	andwf	(___xxtofl@arg+3)^(0+128),f
  2109  079E                     l781:
  2110  079E  1003               	clrc
  2111  079F  0CA9               	rrf	___xxtofl@exp^(0+128),f
  2112  07A0                     l3182:
  2113  07A0  0829               	movf	___xxtofl@exp^(0+128),w
  2114  07A1  00A4               	movwf	??___xxtofl^(0+128)
  2115  07A2  01A5               	clrf	(??___xxtofl^(0+128)+1)
  2116  07A3  01A6               	clrf	(??___xxtofl^(0+128)+2)
  2117  07A4  01A7               	clrf	(??___xxtofl^(0+128)+3)
  2118  07A5  3018               	movlw	24
  2119  07A6                     u4785:
  2120  07A6  1003               	clrc
  2121  07A7  0DA4               	rlf	??___xxtofl^(0+128),f
  2122  07A8  0DA5               	rlf	(??___xxtofl^(0+128)+1),f
  2123  07A9  0DA6               	rlf	(??___xxtofl^(0+128)+2),f
  2124  07AA  0DA7               	rlf	(??___xxtofl^(0+128)+3),f
  2125  07AB                     u4780:
  2126  07AB  3EFF               	addlw	-1
  2127  07AC  1D03               	skipz
  2128  07AD  2FA6               	goto	u4785
  2129  07AE  0824               	movf	??___xxtofl^(0+128),w
  2130  07AF  04AA               	iorwf	___xxtofl@arg^(0+128),f
  2131  07B0  0825               	movf	(??___xxtofl+1)^(0+128),w
  2132  07B1  04AB               	iorwf	(___xxtofl@arg+1)^(0+128),f
  2133  07B2  0826               	movf	(??___xxtofl+2)^(0+128),w
  2134  07B3  04AC               	iorwf	(___xxtofl@arg+2)^(0+128),f
  2135  07B4  0827               	movf	(??___xxtofl+3)^(0+128),w
  2136  07B5  04AD               	iorwf	(___xxtofl@arg+3)^(0+128),f
  2137  07B6                     l3184:
  2138  07B6  0828               	movf	___xxtofl@sign^(0+128),w
  2139  07B7  1903               	btfsc	3,2
  2140  07B8  2FBA               	goto	u4791
  2141  07B9  2FBB               	goto	u4790
  2142  07BA                     u4791:
  2143  07BA  2FC0               	goto	l3190
  2144  07BB                     u4790:
  2145  07BB                     l3186:
  2146  07BB  1FA3               	btfss	(___xxtofl@val+3)^(0+128),7
  2147  07BC  2FBE               	goto	u4801
  2148  07BD  2FBF               	goto	u4800
  2149  07BE                     u4801:
  2150  07BE  2FC0               	goto	l3190
  2151  07BF                     u4800:
  2152  07BF                     l3188:
  2153  07BF  17AD               	bsf	(___xxtofl@arg^(0+128)+3),7
  2154  07C0                     l3190:
  2155  07C0  082D               	movf	(___xxtofl@arg+3)^(0+128),w
  2156  07C1  00A3               	movwf	(?___xxtofl+3)^(0+128)
  2157  07C2  082C               	movf	(___xxtofl@arg+2)^(0+128),w
  2158  07C3  00A2               	movwf	(?___xxtofl+2)^(0+128)
  2159  07C4  082B               	movf	(___xxtofl@arg+1)^(0+128),w
  2160  07C5  00A1               	movwf	(?___xxtofl+1)^(0+128)
  2161  07C6  082A               	movf	___xxtofl@arg^(0+128),w
  2162  07C7  00A0               	movwf	?___xxtofl^(0+128)
  2163  07C8                     l769:
  2164  07C8  0008               	return
  2165  07C9                     __end_of___xxtofl:
  2166                           
  2167                           	psect	text4
  2168  13F8                     __ptext4:	
  2169 ;; *************** function ___fltol *****************
  2170 ;; Defined at:
  2171 ;;		line 43 in file "C:\Program Files\Microchip\xc8\v2.31\pic\sources\c90\common\fltol.c"
  2172 ;; Parameters:    Size  Location     Type
  2173 ;;  f1              4   60[BANK1 ] unsigned char 
  2174 ;; Auto vars:     Size  Location     Type
  2175 ;;  exp1            1   70[BANK1 ] unsigned char 
  2176 ;;  sign1           1   69[BANK1 ] unsigned char 
  2177 ;; Return value:  Size  Location     Type
  2178 ;;                  4   60[BANK1 ] long 
  2179 ;; Registers used:
  2180 ;;		wreg, status,2, status,0
  2181 ;; Tracked objects:
  2182 ;;		On entry : 0/0
  2183 ;;		On exit  : 0/0
  2184 ;;		Unchanged: 0/0
  2185 ;; Data sizes:     COMMON   BANK0   BANK1   BANK3   BANK2
  2186 ;;      Params:         0       0       4       0       0
  2187 ;;      Locals:         0       0       2       0       0
  2188 ;;      Temps:          0       0       5       0       0
  2189 ;;      Totals:         0       0      11       0       0
  2190 ;;Total ram usage:       11 bytes
  2191 ;; Hardware stack levels used:    1
  2192 ;; Hardware stack levels required when called:    7
  2193 ;; This function calls:
  2194 ;;		Nothing
  2195 ;; This function is called by:
  2196 ;;		_canales
  2197 ;; This function uses a non-reentrant model
  2198 ;;
  2199                           
  2200                           
  2201                           ;psect for function ___fltol
  2202  13F8                     ___fltol:
  2203  13F8                     l2780:	
  2204                           ;incstack = 0
  2205 ;; hardware stack exceeded
  2206                           ; Regs used in ___fltol: [wreg+status,2+status,0]
  2207                           
  2208  13F8  1003               	clrc
  2209  13F9  1683               	bsf	3,5	;RP0=1, select bank1
  2210  13FA  1303               	bcf	3,6	;RP1=0, select bank1
  2211  13FB  0D5E               	rlf	(___fltol@f1+2)^(0+128),w
  2212  13FC  0D5F               	rlf	(___fltol@f1+3)^(0+128),w
  2213  13FD  00E0               	movwf	??___fltol^(0+128)
  2214  13FE  0860               	movf	??___fltol^(0+128),w
  2215  13FF  00E6               	movwf	___fltol@exp1^(0+128)
  2216  1400  0866               	movf	___fltol@exp1^(0+128),w
  2217  1401  1D03               	btfss	3,2
  2218  1402  2C04               	goto	u3741
  2219  1403  2C05               	goto	u3740
  2220  1404                     u3741:
  2221  1404  2C0E               	goto	l2786
  2222  1405                     u3740:
  2223  1405                     l2782:
  2224  1405  3000               	movlw	0
  2225  1406  00DF               	movwf	(?___fltol+3)^(0+128)
  2226  1407  3000               	movlw	0
  2227  1408  00DE               	movwf	(?___fltol+2)^(0+128)
  2228  1409  3000               	movlw	0
  2229  140A  00DD               	movwf	(?___fltol+1)^(0+128)
  2230  140B  3000               	movlw	0
  2231  140C  00DC               	movwf	?___fltol^(0+128)
  2232  140D  2C73               	goto	l520
  2233  140E                     l2786:
  2234  140E  085C               	movf	___fltol@f1^(0+128),w
  2235  140F  00E0               	movwf	??___fltol^(0+128)
  2236  1410  085D               	movf	(___fltol@f1+1)^(0+128),w
  2237  1411  00E1               	movwf	(??___fltol^(0+128)+1)
  2238  1412  085E               	movf	(___fltol@f1+2)^(0+128),w
  2239  1413  00E2               	movwf	(??___fltol^(0+128)+2)
  2240  1414  085F               	movf	(___fltol@f1+3)^(0+128),w
  2241  1415  00E3               	movwf	(??___fltol^(0+128)+3)
  2242  1416  301F               	movlw	31
  2243  1417                     u3755:
  2244  1417  1003               	clrc
  2245  1418  0CE3               	rrf	(??___fltol^(0+128)+3),f
  2246  1419  0CE2               	rrf	(??___fltol^(0+128)+2),f
  2247  141A  0CE1               	rrf	(??___fltol^(0+128)+1),f
  2248  141B  0CE0               	rrf	??___fltol^(0+128),f
  2249  141C                     u3750:
  2250  141C  3EFF               	addlw	-1
  2251  141D  1D03               	skipz
  2252  141E  2C17               	goto	u3755
  2253  141F  0860               	movf	??___fltol^(0+128),w
  2254  1420  00E4               	movwf	(??___fltol+4)^(0+128)
  2255  1421  0864               	movf	(??___fltol+4)^(0+128),w
  2256  1422  00E5               	movwf	___fltol@sign1^(0+128)
  2257  1423                     l2788:
  2258  1423  17DE               	bsf	(___fltol@f1^(0+128)+2),7
  2259  1424                     l2790:
  2260  1424  30FF               	movlw	255
  2261  1425  05DC               	andwf	___fltol@f1^(0+128),f
  2262  1426  30FF               	movlw	255
  2263  1427  05DD               	andwf	(___fltol@f1+1)^(0+128),f
  2264  1428  30FF               	movlw	255
  2265  1429  05DE               	andwf	(___fltol@f1+2)^(0+128),f
  2266  142A  3000               	movlw	0
  2267  142B  05DF               	andwf	(___fltol@f1+3)^(0+128),f
  2268  142C                     l2792:
  2269  142C  3096               	movlw	150
  2270  142D  02E6               	subwf	___fltol@exp1^(0+128),f
  2271  142E                     l2794:
  2272  142E  1FE6               	btfss	___fltol@exp1^(0+128),7
  2273  142F  2C31               	goto	u3761
  2274  1430  2C32               	goto	u3760
  2275  1431                     u3761:
  2276  1431  2C4C               	goto	l2804
  2277  1432                     u3760:
  2278  1432                     l2796:
  2279  1432  0866               	movf	___fltol@exp1^(0+128),w
  2280  1433  3A80               	xorlw	128
  2281  1434  3E97               	addlw	151
  2282  1435  1803               	skipnc
  2283  1436  2C38               	goto	u3771
  2284  1437  2C39               	goto	u3770
  2285  1438                     u3771:
  2286  1438  2C3A               	goto	l2802
  2287  1439                     u3770:
  2288  1439  2C05               	goto	l2782
  2289  143A                     l2802:
  2290  143A  3001               	movlw	1
  2291  143B                     u3785:
  2292  143B  1003               	clrc
  2293  143C  0CDF               	rrf	(___fltol@f1+3)^(0+128),f
  2294  143D  0CDE               	rrf	(___fltol@f1+2)^(0+128),f
  2295  143E  0CDD               	rrf	(___fltol@f1+1)^(0+128),f
  2296  143F  0CDC               	rrf	___fltol@f1^(0+128),f
  2297  1440  3EFF               	addlw	-1
  2298  1441  1D03               	skipz
  2299  1442  2C3B               	goto	u3785
  2300  1443  3001               	movlw	1
  2301  1444  00E0               	movwf	??___fltol^(0+128)
  2302  1445  0860               	movf	??___fltol^(0+128),w
  2303  1446  07E6               	addwf	___fltol@exp1^(0+128),f
  2304  1447  1D03               	btfss	3,2
  2305  1448  2C4A               	goto	u3791
  2306  1449  2C4B               	goto	u3790
  2307  144A                     u3791:
  2308  144A  2C3A               	goto	l2802
  2309  144B                     u3790:
  2310  144B  2C63               	goto	l2812
  2311  144C                     l2804:
  2312  144C  3020               	movlw	32
  2313  144D  0266               	subwf	___fltol@exp1^(0+128),w
  2314  144E  1C03               	skipc
  2315  144F  2C51               	goto	u3801
  2316  1450  2C52               	goto	u3800
  2317  1451                     u3801:
  2318  1451  2C5E               	goto	l527
  2319  1452                     u3800:
  2320  1452  2C05               	goto	l2782
  2321  1453                     l2810:
  2322  1453  3001               	movlw	1
  2323  1454  00E0               	movwf	??___fltol^(0+128)
  2324  1455                     u3815:
  2325  1455  1003               	clrc
  2326  1456  0DDC               	rlf	___fltol@f1^(0+128),f
  2327  1457  0DDD               	rlf	(___fltol@f1+1)^(0+128),f
  2328  1458  0DDE               	rlf	(___fltol@f1+2)^(0+128),f
  2329  1459  0DDF               	rlf	(___fltol@f1+3)^(0+128),f
  2330  145A  0BE0               	decfsz	??___fltol^(0+128),f
  2331  145B  2C55               	goto	u3815
  2332  145C  3001               	movlw	1
  2333  145D  02E6               	subwf	___fltol@exp1^(0+128),f
  2334  145E                     l527:
  2335  145E  0866               	movf	___fltol@exp1^(0+128),w
  2336  145F  1D03               	btfss	3,2
  2337  1460  2C62               	goto	u3821
  2338  1461  2C63               	goto	u3820
  2339  1462                     u3821:
  2340  1462  2C53               	goto	l2810
  2341  1463                     u3820:
  2342  1463                     l2812:
  2343  1463  0865               	movf	___fltol@sign1^(0+128),w
  2344  1464  1903               	btfsc	3,2
  2345  1465  2C67               	goto	u3831
  2346  1466  2C68               	goto	u3830
  2347  1467                     u3831:
  2348  1467  2C73               	goto	l530
  2349  1468                     u3830:
  2350  1468                     l2814:
  2351  1468  09DC               	comf	___fltol@f1^(0+128),f
  2352  1469  09DD               	comf	(___fltol@f1+1)^(0+128),f
  2353  146A  09DE               	comf	(___fltol@f1+2)^(0+128),f
  2354  146B  09DF               	comf	(___fltol@f1+3)^(0+128),f
  2355  146C  0ADC               	incf	___fltol@f1^(0+128),f
  2356  146D  1903               	skipnz
  2357  146E  0ADD               	incf	(___fltol@f1+1)^(0+128),f
  2358  146F  1903               	skipnz
  2359  1470  0ADE               	incf	(___fltol@f1+2)^(0+128),f
  2360  1471  1903               	skipnz
  2361  1472  0ADF               	incf	(___fltol@f1+3)^(0+128),f
  2362  1473                     l530:
  2363  1473                     l520:
  2364  1473  0008               	return
  2365  1474                     __end_of___fltol:
  2366                           
  2367                           	psect	text5
  2368  004B                     __ptext5:	
  2369 ;; *************** function ___flmul *****************
  2370 ;; Defined at:
  2371 ;;		line 8 in file "C:\Program Files\Microchip\xc8\v2.31\pic\sources\c90\common\sprcmul.c"
  2372 ;; Parameters:    Size  Location     Type
  2373 ;;  b               4   14[BANK1 ] long 
  2374 ;;  a               4   18[BANK1 ] long 
  2375 ;; Auto vars:     Size  Location     Type
  2376 ;;  prod            4   34[BANK1 ] struct .
  2377 ;;  grs             4   28[BANK1 ] unsigned long 
  2378 ;;  temp            2   38[BANK1 ] struct .
  2379 ;;  bexp            1   33[BANK1 ] unsigned char 
  2380 ;;  aexp            1   32[BANK1 ] unsigned char 
  2381 ;;  sign            1   27[BANK1 ] unsigned char 
  2382 ;; Return value:  Size  Location     Type
  2383 ;;                  4   14[BANK1 ] unsigned char 
  2384 ;; Registers used:
  2385 ;;		wreg, status,2, status,0, btemp+1, pclath, cstack
  2386 ;; Tracked objects:
  2387 ;;		On entry : 0/0
  2388 ;;		On exit  : 0/0
  2389 ;;		Unchanged: 0/0
  2390 ;; Data sizes:     COMMON   BANK0   BANK1   BANK3   BANK2
  2391 ;;      Params:         0       0       8       0       0
  2392 ;;      Locals:         0       0      13       0       0
  2393 ;;      Temps:          0       0       5       0       0
  2394 ;;      Totals:         0       0      26       0       0
  2395 ;;Total ram usage:       26 bytes
  2396 ;; Hardware stack levels used:    1
  2397 ;; Hardware stack levels required when called:    8
  2398 ;; This function calls:
  2399 ;;		__Umul8_16
  2400 ;; This function is called by:
  2401 ;;		_canales
  2402 ;; This function uses a non-reentrant model
  2403 ;;
  2404                           
  2405                           
  2406                           ;psect for function ___flmul
  2407  004B                     ___flmul:
  2408  004B                     l3010:	
  2409                           ;incstack = 0
  2410 ;; hardware stack exceeded
  2411                           ; Regs used in ___flmul: [wreg+status,2+status,0+btemp+1+pclath+cstack]
  2412                           
  2413  004B  1683               	bsf	3,5	;RP0=1, select bank1
  2414  004C  1303               	bcf	3,6	;RP1=0, select bank1
  2415  004D  0831               	movf	(___flmul@b^(0+128)+3),w
  2416  004E  3980               	andlw	128
  2417  004F  00B6               	movwf	??___flmul^(0+128)
  2418  0050  0836               	movf	??___flmul^(0+128),w
  2419  0051  00BB               	movwf	___flmul@sign^(0+128)
  2420  0052                     l3012:
  2421  0052  0831               	movf	(___flmul@b^(0+128)+3),w
  2422  0053  00B6               	movwf	??___flmul^(0+128)
  2423  0054  0736               	addwf	??___flmul^(0+128),w
  2424  0055  00B7               	movwf	(??___flmul+1)^(0+128)
  2425  0056  0837               	movf	(??___flmul+1)^(0+128),w
  2426  0057  00C1               	movwf	___flmul@bexp^(0+128)
  2427  0058                     l3014:
  2428  0058  1FB0               	btfss	(___flmul@b^(0+128)+2),7
  2429  0059  285B               	goto	u4301
  2430  005A  285C               	goto	u4300
  2431  005B                     u4301:
  2432  005B  285D               	goto	l3018
  2433  005C                     u4300:
  2434  005C                     l3016:
  2435  005C  1441               	bsf	___flmul@bexp^(0+128),0
  2436  005D                     l3018:
  2437  005D  0841               	movf	___flmul@bexp^(0+128),w
  2438  005E  1903               	btfsc	3,2
  2439  005F  2861               	goto	u4311
  2440  0060  2862               	goto	u4310
  2441  0061                     u4311:
  2442  0061  2871               	goto	l3026
  2443  0062                     u4310:
  2444  0062                     l3020:
  2445  0062  0A41               	incf	___flmul@bexp^(0+128),w
  2446  0063  1D03               	btfss	3,2
  2447  0064  2866               	goto	u4321
  2448  0065  2867               	goto	u4320
  2449  0066                     u4321:
  2450  0066  286F               	goto	l3024
  2451  0067                     u4320:
  2452  0067                     l3022:
  2453  0067  3000               	movlw	0
  2454  0068  00B1               	movwf	(___flmul@b+3)^(0+128)
  2455  0069  3000               	movlw	0
  2456  006A  00B0               	movwf	(___flmul@b+2)^(0+128)
  2457  006B  3000               	movlw	0
  2458  006C  00AF               	movwf	(___flmul@b+1)^(0+128)
  2459  006D  3000               	movlw	0
  2460  006E  00AE               	movwf	___flmul@b^(0+128)
  2461  006F                     l3024:
  2462  006F  17B0               	bsf	(___flmul@b^(0+128)+2),7
  2463  0070  2879               	goto	l3028
  2464  0071                     l3026:
  2465  0071  3000               	movlw	0
  2466  0072  00B1               	movwf	(___flmul@b+3)^(0+128)
  2467  0073  3000               	movlw	0
  2468  0074  00B0               	movwf	(___flmul@b+2)^(0+128)
  2469  0075  3000               	movlw	0
  2470  0076  00AF               	movwf	(___flmul@b+1)^(0+128)
  2471  0077  3000               	movlw	0
  2472  0078  00AE               	movwf	___flmul@b^(0+128)
  2473  0079                     l3028:
  2474  0079  0835               	movf	(___flmul@a^(0+128)+3),w
  2475  007A  3980               	andlw	128
  2476  007B  00B6               	movwf	??___flmul^(0+128)
  2477  007C  0836               	movf	??___flmul^(0+128),w
  2478  007D  06BB               	xorwf	___flmul@sign^(0+128),f
  2479  007E                     l3030:
  2480  007E  0835               	movf	(___flmul@a^(0+128)+3),w
  2481  007F  00B6               	movwf	??___flmul^(0+128)
  2482  0080  0736               	addwf	??___flmul^(0+128),w
  2483  0081  00B7               	movwf	(??___flmul+1)^(0+128)
  2484  0082  0837               	movf	(??___flmul+1)^(0+128),w
  2485  0083  00C0               	movwf	___flmul@aexp^(0+128)
  2486  0084                     l3032:
  2487  0084  1FB4               	btfss	(___flmul@a^(0+128)+2),7
  2488  0085  2887               	goto	u4331
  2489  0086  2888               	goto	u4330
  2490  0087                     u4331:
  2491  0087  2889               	goto	l3036
  2492  0088                     u4330:
  2493  0088                     l3034:
  2494  0088  1440               	bsf	___flmul@aexp^(0+128),0
  2495  0089                     l3036:
  2496  0089  0840               	movf	___flmul@aexp^(0+128),w
  2497  008A  1903               	btfsc	3,2
  2498  008B  288D               	goto	u4341
  2499  008C  288E               	goto	u4340
  2500  008D                     u4341:
  2501  008D  289D               	goto	l3044
  2502  008E                     u4340:
  2503  008E                     l3038:
  2504  008E  0A40               	incf	___flmul@aexp^(0+128),w
  2505  008F  1D03               	btfss	3,2
  2506  0090  2892               	goto	u4351
  2507  0091  2893               	goto	u4350
  2508  0092                     u4351:
  2509  0092  289B               	goto	l3042
  2510  0093                     u4350:
  2511  0093                     l3040:
  2512  0093  3000               	movlw	0
  2513  0094  00B5               	movwf	(___flmul@a+3)^(0+128)
  2514  0095  3000               	movlw	0
  2515  0096  00B4               	movwf	(___flmul@a+2)^(0+128)
  2516  0097  3000               	movlw	0
  2517  0098  00B3               	movwf	(___flmul@a+1)^(0+128)
  2518  0099  3000               	movlw	0
  2519  009A  00B2               	movwf	___flmul@a^(0+128)
  2520  009B                     l3042:
  2521  009B  17B4               	bsf	(___flmul@a^(0+128)+2),7
  2522  009C  28A5               	goto	l3046
  2523  009D                     l3044:
  2524  009D  3000               	movlw	0
  2525  009E  00B5               	movwf	(___flmul@a+3)^(0+128)
  2526  009F  3000               	movlw	0
  2527  00A0  00B4               	movwf	(___flmul@a+2)^(0+128)
  2528  00A1  3000               	movlw	0
  2529  00A2  00B3               	movwf	(___flmul@a+1)^(0+128)
  2530  00A3  3000               	movlw	0
  2531  00A4  00B2               	movwf	___flmul@a^(0+128)
  2532  00A5                     l3046:
  2533  00A5  0840               	movf	___flmul@aexp^(0+128),w
  2534  00A6  1903               	btfsc	3,2
  2535  00A7  28A9               	goto	u4361
  2536  00A8  28AA               	goto	u4360
  2537  00A9                     u4361:
  2538  00A9  28AF               	goto	l3050
  2539  00AA                     u4360:
  2540  00AA                     l3048:
  2541  00AA  0841               	movf	___flmul@bexp^(0+128),w
  2542  00AB  1D03               	btfss	3,2
  2543  00AC  28AE               	goto	u4371
  2544  00AD  28AF               	goto	u4370
  2545  00AE                     u4371:
  2546  00AE  28B8               	goto	l3054
  2547  00AF                     u4370:
  2548  00AF                     l3050:
  2549  00AF  3000               	movlw	0
  2550  00B0  00B1               	movwf	(?___flmul+3)^(0+128)
  2551  00B1  3000               	movlw	0
  2552  00B2  00B0               	movwf	(?___flmul+2)^(0+128)
  2553  00B3  3000               	movlw	0
  2554  00B4  00AF               	movwf	(?___flmul+1)^(0+128)
  2555  00B5  3000               	movlw	0
  2556  00B6  00AE               	movwf	?___flmul^(0+128)
  2557  00B7  2BAB               	goto	l723
  2558  00B8                     l3054:
  2559  00B8  082E               	movf	___flmul@b^(0+128),w
  2560  00B9  00B6               	movwf	??___flmul^(0+128)
  2561  00BA  0836               	movf	??___flmul^(0+128),w
  2562  00BB  00A0               	movwf	__Umul8_16@multiplicand^(0+128)
  2563  00BC  0834               	movf	(___flmul@a^(0+128)+2),w
  2564  00BD  160A  118A  21F8  120A  118A  	fcall	__Umul8_16
  2565  00C2  1683               	bsf	3,5	;RP0=1, select bank1
  2566  00C3  1303               	bcf	3,6	;RP1=0, select bank1
  2567  00C4  0821               	movf	(?__Umul8_16+1)^(0+128),w
  2568  00C5  00C7               	movwf	(___flmul@temp+1)^(0+128)
  2569  00C6  0820               	movf	?__Umul8_16^(0+128),w
  2570  00C7  00C6               	movwf	___flmul@temp^(0+128)
  2571  00C8                     l3056:
  2572  00C8  0846               	movf	___flmul@temp^(0+128),w
  2573  00C9  00B6               	movwf	??___flmul^(0+128)
  2574  00CA  01B7               	clrf	(??___flmul^(0+128)+1)
  2575  00CB  01B8               	clrf	(??___flmul^(0+128)+2)
  2576  00CC  01B9               	clrf	(??___flmul^(0+128)+3)
  2577  00CD  0839               	movf	(??___flmul+3)^(0+128),w
  2578  00CE  00BF               	movwf	(___flmul@grs+3)^(0+128)
  2579  00CF  0838               	movf	(??___flmul+2)^(0+128),w
  2580  00D0  00BE               	movwf	(___flmul@grs+2)^(0+128)
  2581  00D1  0837               	movf	(??___flmul+1)^(0+128),w
  2582  00D2  00BD               	movwf	(___flmul@grs+1)^(0+128)
  2583  00D3  0836               	movf	??___flmul^(0+128),w
  2584  00D4  00BC               	movwf	___flmul@grs^(0+128)
  2585  00D5                     l3058:
  2586  00D5  0847               	movf	(___flmul@temp^(0+128)+1),w
  2587  00D6  00B6               	movwf	??___flmul^(0+128)
  2588  00D7  01B7               	clrf	(??___flmul^(0+128)+1)
  2589  00D8  01B8               	clrf	(??___flmul^(0+128)+2)
  2590  00D9  01B9               	clrf	(??___flmul^(0+128)+3)
  2591  00DA  0839               	movf	(??___flmul+3)^(0+128),w
  2592  00DB  00C5               	movwf	(___flmul@prod+3)^(0+128)
  2593  00DC  0838               	movf	(??___flmul+2)^(0+128),w
  2594  00DD  00C4               	movwf	(___flmul@prod+2)^(0+128)
  2595  00DE  0837               	movf	(??___flmul+1)^(0+128),w
  2596  00DF  00C3               	movwf	(___flmul@prod+1)^(0+128)
  2597  00E0  0836               	movf	??___flmul^(0+128),w
  2598  00E1  00C2               	movwf	___flmul@prod^(0+128)
  2599  00E2  082F               	movf	(___flmul@b^(0+128)+1),w
  2600  00E3  00B6               	movwf	??___flmul^(0+128)
  2601  00E4  0836               	movf	??___flmul^(0+128),w
  2602  00E5  00A0               	movwf	__Umul8_16@multiplicand^(0+128)
  2603  00E6  0833               	movf	(___flmul@a^(0+128)+1),w
  2604  00E7  160A  118A  21F8  120A  118A  	fcall	__Umul8_16
  2605  00EC  1683               	bsf	3,5	;RP0=1, select bank1
  2606  00ED  1303               	bcf	3,6	;RP1=0, select bank1
  2607  00EE  0821               	movf	(?__Umul8_16+1)^(0+128),w
  2608  00EF  00C7               	movwf	(___flmul@temp+1)^(0+128)
  2609  00F0  0820               	movf	?__Umul8_16^(0+128),w
  2610  00F1  00C6               	movwf	___flmul@temp^(0+128)
  2611  00F2                     l3060:
  2612  00F2  0846               	movf	___flmul@temp^(0+128),w
  2613  00F3  00B6               	movwf	??___flmul^(0+128)
  2614  00F4  01B7               	clrf	(??___flmul^(0+128)+1)
  2615  00F5  01B8               	clrf	(??___flmul^(0+128)+2)
  2616  00F6  01B9               	clrf	(??___flmul^(0+128)+3)
  2617  00F7  0836               	movf	??___flmul^(0+128),w
  2618  00F8  07BC               	addwf	___flmul@grs^(0+128),f
  2619  00F9  0837               	movf	(??___flmul+1)^(0+128),w
  2620  00FA  1103               	clrz
  2621  00FB  1803               	skipnc
  2622  00FC  3E01               	addlw	1
  2623  00FD  1903               	skipnz
  2624  00FE  2900               	goto	u4381
  2625  00FF  07BD               	addwf	(___flmul@grs+1)^(0+128),f
  2626  0100                     u4381:
  2627  0100  0838               	movf	(??___flmul+2)^(0+128),w
  2628  0101  1103               	clrz
  2629  0102  1803               	skipnc
  2630  0103  3E01               	addlw	1
  2631  0104  1903               	skipnz
  2632  0105  2907               	goto	u4382
  2633  0106  07BE               	addwf	(___flmul@grs+2)^(0+128),f
  2634  0107                     u4382:
  2635  0107  0839               	movf	(??___flmul+3)^(0+128),w
  2636  0108  1103               	clrz
  2637  0109  1803               	skipnc
  2638  010A  3E01               	addlw	1
  2639  010B  1903               	skipnz
  2640  010C  290E               	goto	u4383
  2641  010D  07BF               	addwf	(___flmul@grs+3)^(0+128),f
  2642  010E                     u4383:
  2643  010E                     l3062:
  2644  010E  0847               	movf	(___flmul@temp^(0+128)+1),w
  2645  010F  00B6               	movwf	??___flmul^(0+128)
  2646  0110  01B7               	clrf	(??___flmul^(0+128)+1)
  2647  0111  01B8               	clrf	(??___flmul^(0+128)+2)
  2648  0112  01B9               	clrf	(??___flmul^(0+128)+3)
  2649  0113  0836               	movf	??___flmul^(0+128),w
  2650  0114  07C2               	addwf	___flmul@prod^(0+128),f
  2651  0115  0837               	movf	(??___flmul+1)^(0+128),w
  2652  0116  1103               	clrz
  2653  0117  1803               	skipnc
  2654  0118  3E01               	addlw	1
  2655  0119  1903               	skipnz
  2656  011A  291C               	goto	u4391
  2657  011B  07C3               	addwf	(___flmul@prod+1)^(0+128),f
  2658  011C                     u4391:
  2659  011C  0838               	movf	(??___flmul+2)^(0+128),w
  2660  011D  1103               	clrz
  2661  011E  1803               	skipnc
  2662  011F  3E01               	addlw	1
  2663  0120  1903               	skipnz
  2664  0121  2923               	goto	u4392
  2665  0122  07C4               	addwf	(___flmul@prod+2)^(0+128),f
  2666  0123                     u4392:
  2667  0123  0839               	movf	(??___flmul+3)^(0+128),w
  2668  0124  1103               	clrz
  2669  0125  1803               	skipnc
  2670  0126  3E01               	addlw	1
  2671  0127  1903               	skipnz
  2672  0128  292A               	goto	u4393
  2673  0129  07C5               	addwf	(___flmul@prod+3)^(0+128),f
  2674  012A                     u4393:
  2675  012A  0830               	movf	(___flmul@b^(0+128)+2),w
  2676  012B  00B6               	movwf	??___flmul^(0+128)
  2677  012C  0836               	movf	??___flmul^(0+128),w
  2678  012D  00A0               	movwf	__Umul8_16@multiplicand^(0+128)
  2679  012E  0832               	movf	___flmul@a^(0+128),w
  2680  012F  160A  118A  21F8  120A  118A  	fcall	__Umul8_16
  2681  0134  1683               	bsf	3,5	;RP0=1, select bank1
  2682  0135  1303               	bcf	3,6	;RP1=0, select bank1
  2683  0136  0821               	movf	(?__Umul8_16+1)^(0+128),w
  2684  0137  00C7               	movwf	(___flmul@temp+1)^(0+128)
  2685  0138  0820               	movf	?__Umul8_16^(0+128),w
  2686  0139  00C6               	movwf	___flmul@temp^(0+128)
  2687  013A                     l3064:
  2688  013A  0846               	movf	___flmul@temp^(0+128),w
  2689  013B  00B6               	movwf	??___flmul^(0+128)
  2690  013C  01B7               	clrf	(??___flmul^(0+128)+1)
  2691  013D  01B8               	clrf	(??___flmul^(0+128)+2)
  2692  013E  01B9               	clrf	(??___flmul^(0+128)+3)
  2693  013F  0836               	movf	??___flmul^(0+128),w
  2694  0140  07BC               	addwf	___flmul@grs^(0+128),f
  2695  0141  0837               	movf	(??___flmul+1)^(0+128),w
  2696  0142  1103               	clrz
  2697  0143  1803               	skipnc
  2698  0144  3E01               	addlw	1
  2699  0145  1903               	skipnz
  2700  0146  2948               	goto	u4401
  2701  0147  07BD               	addwf	(___flmul@grs+1)^(0+128),f
  2702  0148                     u4401:
  2703  0148  0838               	movf	(??___flmul+2)^(0+128),w
  2704  0149  1103               	clrz
  2705  014A  1803               	skipnc
  2706  014B  3E01               	addlw	1
  2707  014C  1903               	skipnz
  2708  014D  294F               	goto	u4402
  2709  014E  07BE               	addwf	(___flmul@grs+2)^(0+128),f
  2710  014F                     u4402:
  2711  014F  0839               	movf	(??___flmul+3)^(0+128),w
  2712  0150  1103               	clrz
  2713  0151  1803               	skipnc
  2714  0152  3E01               	addlw	1
  2715  0153  1903               	skipnz
  2716  0154  2956               	goto	u4403
  2717  0155  07BF               	addwf	(___flmul@grs+3)^(0+128),f
  2718  0156                     u4403:
  2719  0156                     l3066:
  2720  0156  0847               	movf	(___flmul@temp^(0+128)+1),w
  2721  0157  00B6               	movwf	??___flmul^(0+128)
  2722  0158  01B7               	clrf	(??___flmul^(0+128)+1)
  2723  0159  01B8               	clrf	(??___flmul^(0+128)+2)
  2724  015A  01B9               	clrf	(??___flmul^(0+128)+3)
  2725  015B  0836               	movf	??___flmul^(0+128),w
  2726  015C  07C2               	addwf	___flmul@prod^(0+128),f
  2727  015D  0837               	movf	(??___flmul+1)^(0+128),w
  2728  015E  1103               	clrz
  2729  015F  1803               	skipnc
  2730  0160  3E01               	addlw	1
  2731  0161  1903               	skipnz
  2732  0162  2964               	goto	u4411
  2733  0163  07C3               	addwf	(___flmul@prod+1)^(0+128),f
  2734  0164                     u4411:
  2735  0164  0838               	movf	(??___flmul+2)^(0+128),w
  2736  0165  1103               	clrz
  2737  0166  1803               	skipnc
  2738  0167  3E01               	addlw	1
  2739  0168  1903               	skipnz
  2740  0169  296B               	goto	u4412
  2741  016A  07C4               	addwf	(___flmul@prod+2)^(0+128),f
  2742  016B                     u4412:
  2743  016B  0839               	movf	(??___flmul+3)^(0+128),w
  2744  016C  1103               	clrz
  2745  016D  1803               	skipnc
  2746  016E  3E01               	addlw	1
  2747  016F  1903               	skipnz
  2748  0170  2972               	goto	u4413
  2749  0171  07C5               	addwf	(___flmul@prod+3)^(0+128),f
  2750  0172                     u4413:
  2751  0172                     l3068:
  2752  0172  3008               	movlw	8
  2753  0173  00B6               	movwf	??___flmul^(0+128)
  2754  0174                     u4425:
  2755  0174  1003               	clrc
  2756  0175  0DBC               	rlf	___flmul@grs^(0+128),f
  2757  0176  0DBD               	rlf	(___flmul@grs+1)^(0+128),f
  2758  0177  0DBE               	rlf	(___flmul@grs+2)^(0+128),f
  2759  0178  0DBF               	rlf	(___flmul@grs+3)^(0+128),f
  2760  0179  0BB6               	decfsz	??___flmul^(0+128),f
  2761  017A  2974               	goto	u4425
  2762  017B                     l3070:
  2763  017B  082F               	movf	(___flmul@b^(0+128)+1),w
  2764  017C  00B6               	movwf	??___flmul^(0+128)
  2765  017D  0836               	movf	??___flmul^(0+128),w
  2766  017E  00A0               	movwf	__Umul8_16@multiplicand^(0+128)
  2767  017F  0832               	movf	___flmul@a^(0+128),w
  2768  0180  160A  118A  21F8  120A  118A  	fcall	__Umul8_16
  2769  0185  1683               	bsf	3,5	;RP0=1, select bank1
  2770  0186  1303               	bcf	3,6	;RP1=0, select bank1
  2771  0187  0821               	movf	(?__Umul8_16+1)^(0+128),w
  2772  0188  00C7               	movwf	(___flmul@temp+1)^(0+128)
  2773  0189  0820               	movf	?__Umul8_16^(0+128),w
  2774  018A  00C6               	movwf	___flmul@temp^(0+128)
  2775  018B                     l3072:
  2776  018B  0846               	movf	___flmul@temp^(0+128),w
  2777  018C  00B6               	movwf	??___flmul^(0+128)
  2778  018D  0847               	movf	(___flmul@temp+1)^(0+128),w
  2779  018E  00B7               	movwf	(??___flmul^(0+128)+1)
  2780  018F  01B8               	clrf	(??___flmul^(0+128)+2)
  2781  0190  01B9               	clrf	(??___flmul^(0+128)+3)
  2782  0191  0836               	movf	??___flmul^(0+128),w
  2783  0192  07BC               	addwf	___flmul@grs^(0+128),f
  2784  0193  0837               	movf	(??___flmul+1)^(0+128),w
  2785  0194  1103               	clrz
  2786  0195  1803               	skipnc
  2787  0196  3E01               	addlw	1
  2788  0197  1903               	skipnz
  2789  0198  299A               	goto	u4431
  2790  0199  07BD               	addwf	(___flmul@grs+1)^(0+128),f
  2791  019A                     u4431:
  2792  019A  0838               	movf	(??___flmul+2)^(0+128),w
  2793  019B  1103               	clrz
  2794  019C  1803               	skipnc
  2795  019D  3E01               	addlw	1
  2796  019E  1903               	skipnz
  2797  019F  29A1               	goto	u4432
  2798  01A0  07BE               	addwf	(___flmul@grs+2)^(0+128),f
  2799  01A1                     u4432:
  2800  01A1  0839               	movf	(??___flmul+3)^(0+128),w
  2801  01A2  1103               	clrz
  2802  01A3  1803               	skipnc
  2803  01A4  3E01               	addlw	1
  2804  01A5  1903               	skipnz
  2805  01A6  29A8               	goto	u4433
  2806  01A7  07BF               	addwf	(___flmul@grs+3)^(0+128),f
  2807  01A8                     u4433:
  2808  01A8                     l3074:
  2809  01A8  082E               	movf	___flmul@b^(0+128),w
  2810  01A9  00B6               	movwf	??___flmul^(0+128)
  2811  01AA  0836               	movf	??___flmul^(0+128),w
  2812  01AB  00A0               	movwf	__Umul8_16@multiplicand^(0+128)
  2813  01AC  0833               	movf	(___flmul@a^(0+128)+1),w
  2814  01AD  160A  118A  21F8  120A  118A  	fcall	__Umul8_16
  2815  01B2  1683               	bsf	3,5	;RP0=1, select bank1
  2816  01B3  1303               	bcf	3,6	;RP1=0, select bank1
  2817  01B4  0821               	movf	(?__Umul8_16+1)^(0+128),w
  2818  01B5  00C7               	movwf	(___flmul@temp+1)^(0+128)
  2819  01B6  0820               	movf	?__Umul8_16^(0+128),w
  2820  01B7  00C6               	movwf	___flmul@temp^(0+128)
  2821  01B8                     l3076:
  2822  01B8  0846               	movf	___flmul@temp^(0+128),w
  2823  01B9  00B6               	movwf	??___flmul^(0+128)
  2824  01BA  0847               	movf	(___flmul@temp+1)^(0+128),w
  2825  01BB  00B7               	movwf	(??___flmul^(0+128)+1)
  2826  01BC  01B8               	clrf	(??___flmul^(0+128)+2)
  2827  01BD  01B9               	clrf	(??___flmul^(0+128)+3)
  2828  01BE  0836               	movf	??___flmul^(0+128),w
  2829  01BF  07BC               	addwf	___flmul@grs^(0+128),f
  2830  01C0  0837               	movf	(??___flmul+1)^(0+128),w
  2831  01C1  1103               	clrz
  2832  01C2  1803               	skipnc
  2833  01C3  3E01               	addlw	1
  2834  01C4  1903               	skipnz
  2835  01C5  29C7               	goto	u4441
  2836  01C6  07BD               	addwf	(___flmul@grs+1)^(0+128),f
  2837  01C7                     u4441:
  2838  01C7  0838               	movf	(??___flmul+2)^(0+128),w
  2839  01C8  1103               	clrz
  2840  01C9  1803               	skipnc
  2841  01CA  3E01               	addlw	1
  2842  01CB  1903               	skipnz
  2843  01CC  29CE               	goto	u4442
  2844  01CD  07BE               	addwf	(___flmul@grs+2)^(0+128),f
  2845  01CE                     u4442:
  2846  01CE  0839               	movf	(??___flmul+3)^(0+128),w
  2847  01CF  1103               	clrz
  2848  01D0  1803               	skipnc
  2849  01D1  3E01               	addlw	1
  2850  01D2  1903               	skipnz
  2851  01D3  29D5               	goto	u4443
  2852  01D4  07BF               	addwf	(___flmul@grs+3)^(0+128),f
  2853  01D5                     u4443:
  2854  01D5                     l3078:
  2855  01D5  3008               	movlw	8
  2856  01D6  00B6               	movwf	??___flmul^(0+128)
  2857  01D7                     u4455:
  2858  01D7  1003               	clrc
  2859  01D8  0DBC               	rlf	___flmul@grs^(0+128),f
  2860  01D9  0DBD               	rlf	(___flmul@grs+1)^(0+128),f
  2861  01DA  0DBE               	rlf	(___flmul@grs+2)^(0+128),f
  2862  01DB  0DBF               	rlf	(___flmul@grs+3)^(0+128),f
  2863  01DC  0BB6               	decfsz	??___flmul^(0+128),f
  2864  01DD  29D7               	goto	u4455
  2865  01DE  082E               	movf	___flmul@b^(0+128),w
  2866  01DF  00B6               	movwf	??___flmul^(0+128)
  2867  01E0  0836               	movf	??___flmul^(0+128),w
  2868  01E1  00A0               	movwf	__Umul8_16@multiplicand^(0+128)
  2869  01E2  0832               	movf	___flmul@a^(0+128),w
  2870  01E3  160A  118A  21F8  120A  118A  	fcall	__Umul8_16
  2871  01E8  1683               	bsf	3,5	;RP0=1, select bank1
  2872  01E9  1303               	bcf	3,6	;RP1=0, select bank1
  2873  01EA  0821               	movf	(?__Umul8_16+1)^(0+128),w
  2874  01EB  00C7               	movwf	(___flmul@temp+1)^(0+128)
  2875  01EC  0820               	movf	?__Umul8_16^(0+128),w
  2876  01ED  00C6               	movwf	___flmul@temp^(0+128)
  2877  01EE                     l3080:
  2878  01EE  0846               	movf	___flmul@temp^(0+128),w
  2879  01EF  00B6               	movwf	??___flmul^(0+128)
  2880  01F0  0847               	movf	(___flmul@temp+1)^(0+128),w
  2881  01F1  00B7               	movwf	(??___flmul^(0+128)+1)
  2882  01F2  01B8               	clrf	(??___flmul^(0+128)+2)
  2883  01F3  01B9               	clrf	(??___flmul^(0+128)+3)
  2884  01F4  0836               	movf	??___flmul^(0+128),w
  2885  01F5  07BC               	addwf	___flmul@grs^(0+128),f
  2886  01F6  0837               	movf	(??___flmul+1)^(0+128),w
  2887  01F7  1103               	clrz
  2888  01F8  1803               	skipnc
  2889  01F9  3E01               	addlw	1
  2890  01FA  1903               	skipnz
  2891  01FB  29FD               	goto	u4461
  2892  01FC  07BD               	addwf	(___flmul@grs+1)^(0+128),f
  2893  01FD                     u4461:
  2894  01FD  0838               	movf	(??___flmul+2)^(0+128),w
  2895  01FE  1103               	clrz
  2896  01FF  1803               	skipnc
  2897  0200  3E01               	addlw	1
  2898  0201  1903               	skipnz
  2899  0202  2A04               	goto	u4462
  2900  0203  07BE               	addwf	(___flmul@grs+2)^(0+128),f
  2901  0204                     u4462:
  2902  0204  0839               	movf	(??___flmul+3)^(0+128),w
  2903  0205  1103               	clrz
  2904  0206  1803               	skipnc
  2905  0207  3E01               	addlw	1
  2906  0208  1903               	skipnz
  2907  0209  2A0B               	goto	u4463
  2908  020A  07BF               	addwf	(___flmul@grs+3)^(0+128),f
  2909  020B                     u4463:
  2910  020B                     l3082:
  2911  020B  082F               	movf	(___flmul@b^(0+128)+1),w
  2912  020C  00B6               	movwf	??___flmul^(0+128)
  2913  020D  0836               	movf	??___flmul^(0+128),w
  2914  020E  00A0               	movwf	__Umul8_16@multiplicand^(0+128)
  2915  020F  0834               	movf	(___flmul@a^(0+128)+2),w
  2916  0210  160A  118A  21F8  120A  118A  	fcall	__Umul8_16
  2917  0215  1683               	bsf	3,5	;RP0=1, select bank1
  2918  0216  1303               	bcf	3,6	;RP1=0, select bank1
  2919  0217  0821               	movf	(?__Umul8_16+1)^(0+128),w
  2920  0218  00C7               	movwf	(___flmul@temp+1)^(0+128)
  2921  0219  0820               	movf	?__Umul8_16^(0+128),w
  2922  021A  00C6               	movwf	___flmul@temp^(0+128)
  2923  021B  0846               	movf	___flmul@temp^(0+128),w
  2924  021C  00B6               	movwf	??___flmul^(0+128)
  2925  021D  0847               	movf	(___flmul@temp+1)^(0+128),w
  2926  021E  00B7               	movwf	(??___flmul^(0+128)+1)
  2927  021F  01B8               	clrf	(??___flmul^(0+128)+2)
  2928  0220  01B9               	clrf	(??___flmul^(0+128)+3)
  2929  0221  0836               	movf	??___flmul^(0+128),w
  2930  0222  07C2               	addwf	___flmul@prod^(0+128),f
  2931  0223  0837               	movf	(??___flmul+1)^(0+128),w
  2932  0224  1103               	clrz
  2933  0225  1803               	skipnc
  2934  0226  3E01               	addlw	1
  2935  0227  1903               	skipnz
  2936  0228  2A2A               	goto	u4471
  2937  0229  07C3               	addwf	(___flmul@prod+1)^(0+128),f
  2938  022A                     u4471:
  2939  022A  0838               	movf	(??___flmul+2)^(0+128),w
  2940  022B  1103               	clrz
  2941  022C  1803               	skipnc
  2942  022D  3E01               	addlw	1
  2943  022E  1903               	skipnz
  2944  022F  2A31               	goto	u4472
  2945  0230  07C4               	addwf	(___flmul@prod+2)^(0+128),f
  2946  0231                     u4472:
  2947  0231  0839               	movf	(??___flmul+3)^(0+128),w
  2948  0232  1103               	clrz
  2949  0233  1803               	skipnc
  2950  0234  3E01               	addlw	1
  2951  0235  1903               	skipnz
  2952  0236  2A38               	goto	u4473
  2953  0237  07C5               	addwf	(___flmul@prod+3)^(0+128),f
  2954  0238                     u4473:
  2955  0238                     l3084:
  2956  0238  0830               	movf	(___flmul@b^(0+128)+2),w
  2957  0239  00B6               	movwf	??___flmul^(0+128)
  2958  023A  0836               	movf	??___flmul^(0+128),w
  2959  023B  00A0               	movwf	__Umul8_16@multiplicand^(0+128)
  2960  023C  0833               	movf	(___flmul@a^(0+128)+1),w
  2961  023D  160A  118A  21F8  120A  118A  	fcall	__Umul8_16
  2962  0242  1683               	bsf	3,5	;RP0=1, select bank1
  2963  0243  1303               	bcf	3,6	;RP1=0, select bank1
  2964  0244  0821               	movf	(?__Umul8_16+1)^(0+128),w
  2965  0245  00C7               	movwf	(___flmul@temp+1)^(0+128)
  2966  0246  0820               	movf	?__Umul8_16^(0+128),w
  2967  0247  00C6               	movwf	___flmul@temp^(0+128)
  2968  0248                     l3086:
  2969  0248  0846               	movf	___flmul@temp^(0+128),w
  2970  0249  00B6               	movwf	??___flmul^(0+128)
  2971  024A  0847               	movf	(___flmul@temp+1)^(0+128),w
  2972  024B  00B7               	movwf	(??___flmul^(0+128)+1)
  2973  024C  01B8               	clrf	(??___flmul^(0+128)+2)
  2974  024D  01B9               	clrf	(??___flmul^(0+128)+3)
  2975  024E  0836               	movf	??___flmul^(0+128),w
  2976  024F  07C2               	addwf	___flmul@prod^(0+128),f
  2977  0250  0837               	movf	(??___flmul+1)^(0+128),w
  2978  0251  1103               	clrz
  2979  0252  1803               	skipnc
  2980  0253  3E01               	addlw	1
  2981  0254  1903               	skipnz
  2982  0255  2A57               	goto	u4481
  2983  0256  07C3               	addwf	(___flmul@prod+1)^(0+128),f
  2984  0257                     u4481:
  2985  0257  0838               	movf	(??___flmul+2)^(0+128),w
  2986  0258  1103               	clrz
  2987  0259  1803               	skipnc
  2988  025A  3E01               	addlw	1
  2989  025B  1903               	skipnz
  2990  025C  2A5E               	goto	u4482
  2991  025D  07C4               	addwf	(___flmul@prod+2)^(0+128),f
  2992  025E                     u4482:
  2993  025E  0839               	movf	(??___flmul+3)^(0+128),w
  2994  025F  1103               	clrz
  2995  0260  1803               	skipnc
  2996  0261  3E01               	addlw	1
  2997  0262  1903               	skipnz
  2998  0263  2A65               	goto	u4483
  2999  0264  07C5               	addwf	(___flmul@prod+3)^(0+128),f
  3000  0265                     u4483:
  3001  0265  0830               	movf	(___flmul@b^(0+128)+2),w
  3002  0266  00B6               	movwf	??___flmul^(0+128)
  3003  0267  0836               	movf	??___flmul^(0+128),w
  3004  0268  00A0               	movwf	__Umul8_16@multiplicand^(0+128)
  3005  0269  0834               	movf	(___flmul@a^(0+128)+2),w
  3006  026A  160A  118A  21F8  120A  118A  	fcall	__Umul8_16
  3007  026F  1683               	bsf	3,5	;RP0=1, select bank1
  3008  0270  1303               	bcf	3,6	;RP1=0, select bank1
  3009  0271  0821               	movf	(?__Umul8_16+1)^(0+128),w
  3010  0272  00C7               	movwf	(___flmul@temp+1)^(0+128)
  3011  0273  0820               	movf	?__Umul8_16^(0+128),w
  3012  0274  00C6               	movwf	___flmul@temp^(0+128)
  3013  0275                     l3088:
  3014  0275  0846               	movf	___flmul@temp^(0+128),w
  3015  0276  00B6               	movwf	??___flmul^(0+128)
  3016  0277  0847               	movf	(___flmul@temp+1)^(0+128),w
  3017  0278  00B7               	movwf	(??___flmul^(0+128)+1)
  3018  0279  01B8               	clrf	(??___flmul^(0+128)+2)
  3019  027A  01B9               	clrf	(??___flmul^(0+128)+3)
  3020  027B  3008               	movlw	8
  3021  027C                     u4495:
  3022  027C  1003               	clrc
  3023  027D  0DB6               	rlf	??___flmul^(0+128),f
  3024  027E  0DB7               	rlf	(??___flmul^(0+128)+1),f
  3025  027F  0DB8               	rlf	(??___flmul^(0+128)+2),f
  3026  0280  0DB9               	rlf	(??___flmul^(0+128)+3),f
  3027  0281                     u4490:
  3028  0281  3EFF               	addlw	-1
  3029  0282  1D03               	skipz
  3030  0283  2A7C               	goto	u4495
  3031  0284  0836               	movf	??___flmul^(0+128),w
  3032  0285  07C2               	addwf	___flmul@prod^(0+128),f
  3033  0286  0837               	movf	(??___flmul+1)^(0+128),w
  3034  0287  1103               	clrz
  3035  0288  1803               	skipnc
  3036  0289  3E01               	addlw	1
  3037  028A  1903               	skipnz
  3038  028B  2A8D               	goto	u4501
  3039  028C  07C3               	addwf	(___flmul@prod+1)^(0+128),f
  3040  028D                     u4501:
  3041  028D  0838               	movf	(??___flmul+2)^(0+128),w
  3042  028E  1103               	clrz
  3043  028F  1803               	skipnc
  3044  0290  3E01               	addlw	1
  3045  0291  1903               	skipnz
  3046  0292  2A94               	goto	u4502
  3047  0293  07C4               	addwf	(___flmul@prod+2)^(0+128),f
  3048  0294                     u4502:
  3049  0294  0839               	movf	(??___flmul+3)^(0+128),w
  3050  0295  1103               	clrz
  3051  0296  1803               	skipnc
  3052  0297  3E01               	addlw	1
  3053  0298  1903               	skipnz
  3054  0299  2A9B               	goto	u4503
  3055  029A  07C5               	addwf	(___flmul@prod+3)^(0+128),f
  3056  029B                     u4503:
  3057  029B                     l3090:
  3058  029B  083C               	movf	___flmul@grs^(0+128),w
  3059  029C  00B6               	movwf	??___flmul^(0+128)
  3060  029D  083D               	movf	(___flmul@grs+1)^(0+128),w
  3061  029E  00B7               	movwf	(??___flmul^(0+128)+1)
  3062  029F  083E               	movf	(___flmul@grs+2)^(0+128),w
  3063  02A0  00B8               	movwf	(??___flmul^(0+128)+2)
  3064  02A1  083F               	movf	(___flmul@grs+3)^(0+128),w
  3065  02A2  00B9               	movwf	(??___flmul^(0+128)+3)
  3066  02A3  3018               	movlw	24
  3067  02A4                     u4515:
  3068  02A4  1003               	clrc
  3069  02A5  0CB9               	rrf	(??___flmul^(0+128)+3),f
  3070  02A6  0CB8               	rrf	(??___flmul^(0+128)+2),f
  3071  02A7  0CB7               	rrf	(??___flmul^(0+128)+1),f
  3072  02A8  0CB6               	rrf	??___flmul^(0+128),f
  3073  02A9                     u4510:
  3074  02A9  3EFF               	addlw	-1
  3075  02AA  1D03               	skipz
  3076  02AB  2AA4               	goto	u4515
  3077  02AC  0836               	movf	??___flmul^(0+128),w
  3078  02AD  07C2               	addwf	___flmul@prod^(0+128),f
  3079  02AE  0837               	movf	(??___flmul+1)^(0+128),w
  3080  02AF  1103               	clrz
  3081  02B0  1803               	skipnc
  3082  02B1  3E01               	addlw	1
  3083  02B2  1903               	skipnz
  3084  02B3  2AB5               	goto	u4521
  3085  02B4  07C3               	addwf	(___flmul@prod+1)^(0+128),f
  3086  02B5                     u4521:
  3087  02B5  0838               	movf	(??___flmul+2)^(0+128),w
  3088  02B6  1103               	clrz
  3089  02B7  1803               	skipnc
  3090  02B8  3E01               	addlw	1
  3091  02B9  1903               	skipnz
  3092  02BA  2ABC               	goto	u4522
  3093  02BB  07C4               	addwf	(___flmul@prod+2)^(0+128),f
  3094  02BC                     u4522:
  3095  02BC  0839               	movf	(??___flmul+3)^(0+128),w
  3096  02BD  1103               	clrz
  3097  02BE  1803               	skipnc
  3098  02BF  3E01               	addlw	1
  3099  02C0  1903               	skipnz
  3100  02C1  2AC3               	goto	u4523
  3101  02C2  07C5               	addwf	(___flmul@prod+3)^(0+128),f
  3102  02C3                     u4523:
  3103  02C3                     l3092:
  3104  02C3  3008               	movlw	8
  3105  02C4  00B6               	movwf	??___flmul^(0+128)
  3106  02C5                     u4535:
  3107  02C5  1003               	clrc
  3108  02C6  0DBC               	rlf	___flmul@grs^(0+128),f
  3109  02C7  0DBD               	rlf	(___flmul@grs+1)^(0+128),f
  3110  02C8  0DBE               	rlf	(___flmul@grs+2)^(0+128),f
  3111  02C9  0DBF               	rlf	(___flmul@grs+3)^(0+128),f
  3112  02CA  0BB6               	decfsz	??___flmul^(0+128),f
  3113  02CB  2AC5               	goto	u4535
  3114  02CC                     l3094:
  3115  02CC  0841               	movf	___flmul@bexp^(0+128),w
  3116  02CD  0740               	addwf	___flmul@aexp^(0+128),w
  3117  02CE  00B6               	movwf	??___flmul^(0+128)
  3118  02CF  01B7               	clrf	(??___flmul^(0+128)+1)
  3119  02D0  0DB7               	rlf	(??___flmul+1)^(0+128),f
  3120  02D1  0836               	movf	??___flmul^(0+128),w
  3121  02D2  3E82               	addlw	130
  3122  02D3  00C6               	movwf	___flmul@temp^(0+128)
  3123  02D4  0837               	movf	(??___flmul+1)^(0+128),w
  3124  02D5  1803               	skipnc
  3125  02D6  3E01               	addlw	1
  3126  02D7  3EFF               	addlw	255
  3127  02D8  00C7               	movwf	(___flmul@temp+1)^(0+128)
  3128  02D9  2AF7               	goto	l3106
  3129  02DA                     l3096:
  3130  02DA  3001               	movlw	1
  3131  02DB  00B6               	movwf	??___flmul^(0+128)
  3132  02DC                     u4545:
  3133  02DC  1003               	clrc
  3134  02DD  0DC2               	rlf	___flmul@prod^(0+128),f
  3135  02DE  0DC3               	rlf	(___flmul@prod+1)^(0+128),f
  3136  02DF  0DC4               	rlf	(___flmul@prod+2)^(0+128),f
  3137  02E0  0DC5               	rlf	(___flmul@prod+3)^(0+128),f
  3138  02E1  0BB6               	decfsz	??___flmul^(0+128),f
  3139  02E2  2ADC               	goto	u4545
  3140  02E3                     l3098:
  3141  02E3  1FBF               	btfss	(___flmul@grs+3)^(0+128),7
  3142  02E4  2AE6               	goto	u4551
  3143  02E5  2AE7               	goto	u4550
  3144  02E6                     u4551:
  3145  02E6  2AE8               	goto	l3102
  3146  02E7                     u4550:
  3147  02E7                     l3100:
  3148  02E7  1442               	bsf	___flmul@prod^(0+128),0
  3149  02E8                     l3102:
  3150  02E8  3001               	movlw	1
  3151  02E9  00B6               	movwf	??___flmul^(0+128)
  3152  02EA                     u4565:
  3153  02EA  1003               	clrc
  3154  02EB  0DBC               	rlf	___flmul@grs^(0+128),f
  3155  02EC  0DBD               	rlf	(___flmul@grs+1)^(0+128),f
  3156  02ED  0DBE               	rlf	(___flmul@grs+2)^(0+128),f
  3157  02EE  0DBF               	rlf	(___flmul@grs+3)^(0+128),f
  3158  02EF  0BB6               	decfsz	??___flmul^(0+128),f
  3159  02F0  2AEA               	goto	u4565
  3160  02F1                     l3104:
  3161  02F1  30FF               	movlw	255
  3162  02F2  07C6               	addwf	___flmul@temp^(0+128),f
  3163  02F3  1803               	skipnc
  3164  02F4  0AC7               	incf	(___flmul@temp+1)^(0+128),f
  3165  02F5  30FF               	movlw	255
  3166  02F6  07C7               	addwf	(___flmul@temp+1)^(0+128),f
  3167  02F7                     l3106:
  3168  02F7  1FC4               	btfss	(___flmul@prod+2)^(0+128),7
  3169  02F8  2AFA               	goto	u4571
  3170  02F9  2AFB               	goto	u4570
  3171  02FA                     u4571:
  3172  02FA  2ADA               	goto	l3096
  3173  02FB                     u4570:
  3174  02FB                     l3108:
  3175  02FB  01C0               	clrf	___flmul@aexp^(0+128)
  3176  02FC                     l3110:
  3177  02FC  1FBF               	btfss	(___flmul@grs+3)^(0+128),7
  3178  02FD  2AFF               	goto	u4581
  3179  02FE  2B00               	goto	u4580
  3180  02FF                     u4581:
  3181  02FF  2B1C               	goto	l3118
  3182  0300                     u4580:
  3183  0300                     l3112:
  3184  0300  30FF               	movlw	255
  3185  0301  053C               	andwf	___flmul@grs^(0+128),w
  3186  0302  00B6               	movwf	??___flmul^(0+128)
  3187  0303  30FF               	movlw	255
  3188  0304  053D               	andwf	(___flmul@grs+1)^(0+128),w
  3189  0305  00B7               	movwf	(??___flmul^(0+128)+1)
  3190  0306  30FF               	movlw	255
  3191  0307  053E               	andwf	(___flmul@grs+2)^(0+128),w
  3192  0308  00B8               	movwf	(??___flmul^(0+128)+2)
  3193  0309  307F               	movlw	127
  3194  030A  053F               	andwf	(___flmul@grs+3)^(0+128),w
  3195  030B  00B9               	movwf	(??___flmul^(0+128)+3)
  3196  030C  0839               	movf	(??___flmul+3)^(0+128),w
  3197  030D  0438               	iorwf	(??___flmul+2)^(0+128),w
  3198  030E  0437               	iorwf	(??___flmul+1)^(0+128),w
  3199  030F  0436               	iorwf	??___flmul^(0+128),w
  3200  0310  1903               	skipnz
  3201  0311  2B13               	goto	u4591
  3202  0312  2B14               	goto	u4590
  3203  0313                     u4591:
  3204  0313  2B17               	goto	l729
  3205  0314                     u4590:
  3206  0314                     l3114:
  3207  0314  01C0               	clrf	___flmul@aexp^(0+128)
  3208  0315  0AC0               	incf	___flmul@aexp^(0+128),f
  3209  0316  2B1C               	goto	l3118
  3210  0317                     l729:
  3211  0317  1C42               	btfss	___flmul@prod^(0+128),0
  3212  0318  2B1A               	goto	u4601
  3213  0319  2B1B               	goto	u4600
  3214  031A                     u4601:
  3215  031A  2B1C               	goto	l3118
  3216  031B                     u4600:
  3217  031B  2B14               	goto	l3114
  3218  031C                     l3118:
  3219  031C  0840               	movf	___flmul@aexp^(0+128),w
  3220  031D  1903               	btfsc	3,2
  3221  031E  2B20               	goto	u4611
  3222  031F  2B21               	goto	u4610
  3223  0320                     u4611:
  3224  0320  2B52               	goto	l3128
  3225  0321                     u4610:
  3226  0321                     l3120:
  3227  0321  3001               	movlw	1
  3228  0322  07C2               	addwf	___flmul@prod^(0+128),f
  3229  0323  3000               	movlw	0
  3230  0324  1803               	skipnc
  3231  0325  3001               	movlw	1
  3232  0326  07C3               	addwf	(___flmul@prod+1)^(0+128),f
  3233  0327  3000               	movlw	0
  3234  0328  1803               	skipnc
  3235  0329  3001               	movlw	1
  3236  032A  07C4               	addwf	(___flmul@prod+2)^(0+128),f
  3237  032B  3000               	movlw	0
  3238  032C  1803               	skipnc
  3239  032D  3001               	movlw	1
  3240  032E  07C5               	addwf	(___flmul@prod+3)^(0+128),f
  3241  032F                     l3122:
  3242  032F  1C45               	btfss	(___flmul@prod+3)^(0+128),0
  3243  0330  2B32               	goto	u4621
  3244  0331  2B33               	goto	u4620
  3245  0332                     u4621:
  3246  0332  2B52               	goto	l3128
  3247  0333                     u4620:
  3248  0333                     l3124:
  3249  0333  0842               	movf	___flmul@prod^(0+128),w
  3250  0334  00B6               	movwf	??___flmul^(0+128)
  3251  0335  0843               	movf	(___flmul@prod+1)^(0+128),w
  3252  0336  00B7               	movwf	(??___flmul^(0+128)+1)
  3253  0337  0844               	movf	(___flmul@prod+2)^(0+128),w
  3254  0338  00B8               	movwf	(??___flmul^(0+128)+2)
  3255  0339  0845               	movf	(___flmul@prod+3)^(0+128),w
  3256  033A  00B9               	movwf	(??___flmul^(0+128)+3)
  3257  033B  3001               	movlw	1
  3258  033C  00BA               	movwf	(??___flmul+4)^(0+128)
  3259  033D                     u4635:
  3260  033D  0D39               	rlf	(??___flmul^(0+128)+3),w
  3261  033E  0CB9               	rrf	(??___flmul^(0+128)+3),f
  3262  033F  0CB8               	rrf	(??___flmul^(0+128)+2),f
  3263  0340  0CB7               	rrf	(??___flmul^(0+128)+1),f
  3264  0341  0CB6               	rrf	??___flmul^(0+128),f
  3265  0342                     u4630:
  3266  0342  0BBA               	decfsz	(??___flmul+4)^(0+128),f
  3267  0343  2B3D               	goto	u4635
  3268  0344  0839               	movf	(??___flmul+3)^(0+128),w
  3269  0345  00C5               	movwf	(___flmul@prod+3)^(0+128)
  3270  0346  0838               	movf	(??___flmul+2)^(0+128),w
  3271  0347  00C4               	movwf	(___flmul@prod+2)^(0+128)
  3272  0348  0837               	movf	(??___flmul+1)^(0+128),w
  3273  0349  00C3               	movwf	(___flmul@prod+1)^(0+128)
  3274  034A  0836               	movf	??___flmul^(0+128),w
  3275  034B  00C2               	movwf	___flmul@prod^(0+128)
  3276  034C                     l3126:
  3277  034C  3001               	movlw	1
  3278  034D  07C6               	addwf	___flmul@temp^(0+128),f
  3279  034E  1803               	skipnc
  3280  034F  0AC7               	incf	(___flmul@temp+1)^(0+128),f
  3281  0350  3000               	movlw	0
  3282  0351  07C7               	addwf	(___flmul@temp+1)^(0+128),f
  3283  0352                     l3128:
  3284  0352  0847               	movf	(___flmul@temp+1)^(0+128),w
  3285  0353  3A80               	xorlw	128
  3286  0354  00FF               	movwf	btemp+1
  3287  0355  3080               	movlw	128
  3288  0356  027F               	subwf	btemp+1,w
  3289  0357  1D03               	skipz
  3290  0358  2B5B               	goto	u4645
  3291  0359  30FF               	movlw	255
  3292  035A  0246               	subwf	___flmul@temp^(0+128),w
  3293  035B                     u4645:
  3294  035B  1C03               	skipc
  3295  035C  2B5E               	goto	u4641
  3296  035D  2B5F               	goto	u4640
  3297  035E                     u4641:
  3298  035E  2B6A               	goto	l3132
  3299  035F                     u4640:
  3300  035F                     l3130:
  3301  035F  307F               	movlw	127
  3302  0360  1683               	bsf	3,5	;RP0=1, select bank1
  3303  0361  1303               	bcf	3,6	;RP1=0, select bank1
  3304  0362  00C5               	movwf	(___flmul@prod+3)^(0+128)
  3305  0363  3080               	movlw	128
  3306  0364  00C4               	movwf	(___flmul@prod+2)^(0+128)
  3307  0365  3000               	movlw	0
  3308  0366  00C3               	movwf	(___flmul@prod+1)^(0+128)
  3309  0367  3000               	movlw	0
  3310  0368  00C2               	movwf	___flmul@prod^(0+128)
  3311  0369  2B9F               	goto	l735
  3312  036A                     l3132:
  3313  036A  1683               	bsf	3,5	;RP0=1, select bank1
  3314  036B  1303               	bcf	3,6	;RP1=0, select bank1
  3315  036C  0847               	movf	(___flmul@temp+1)^(0+128),w
  3316  036D  3A80               	xorlw	128
  3317  036E  00FF               	movwf	btemp+1
  3318  036F  3080               	movlw	128
  3319  0370  027F               	subwf	btemp+1,w
  3320  0371  1D03               	skipz
  3321  0372  2B75               	goto	u4655
  3322  0373  3001               	movlw	1
  3323  0374  0246               	subwf	___flmul@temp^(0+128),w
  3324  0375                     u4655:
  3325  0375  1803               	skipnc
  3326  0376  2B78               	goto	u4651
  3327  0377  2B79               	goto	u4650
  3328  0378                     u4651:
  3329  0378  2B85               	goto	l3138
  3330  0379                     u4650:
  3331  0379                     l3134:
  3332  0379  3000               	movlw	0
  3333  037A  1683               	bsf	3,5	;RP0=1, select bank1
  3334  037B  1303               	bcf	3,6	;RP1=0, select bank1
  3335  037C  00C5               	movwf	(___flmul@prod+3)^(0+128)
  3336  037D  3000               	movlw	0
  3337  037E  00C4               	movwf	(___flmul@prod+2)^(0+128)
  3338  037F  3000               	movlw	0
  3339  0380  00C3               	movwf	(___flmul@prod+1)^(0+128)
  3340  0381  3000               	movlw	0
  3341  0382  00C2               	movwf	___flmul@prod^(0+128)
  3342  0383                     l3136:
  3343  0383  01BB               	clrf	___flmul@sign^(0+128)
  3344  0384  2B9F               	goto	l735
  3345  0385                     l3138:
  3346  0385  1683               	bsf	3,5	;RP0=1, select bank1
  3347  0386  1303               	bcf	3,6	;RP1=0, select bank1
  3348  0387  0846               	movf	___flmul@temp^(0+128),w
  3349  0388  00B6               	movwf	??___flmul^(0+128)
  3350  0389  0836               	movf	??___flmul^(0+128),w
  3351  038A  00C1               	movwf	___flmul@bexp^(0+128)
  3352  038B  30FF               	movlw	255
  3353  038C  05C2               	andwf	___flmul@prod^(0+128),f
  3354  038D  30FF               	movlw	255
  3355  038E  05C3               	andwf	(___flmul@prod+1)^(0+128),f
  3356  038F  307F               	movlw	127
  3357  0390  05C4               	andwf	(___flmul@prod+2)^(0+128),f
  3358  0391  3000               	movlw	0
  3359  0392  05C5               	andwf	(___flmul@prod+3)^(0+128),f
  3360  0393                     l3140:
  3361  0393  1C41               	btfss	___flmul@bexp^(0+128),0
  3362  0394  2B96               	goto	u4661
  3363  0395  2B97               	goto	u4660
  3364  0396                     u4661:
  3365  0396  2B98               	goto	l3144
  3366  0397                     u4660:
  3367  0397                     l3142:
  3368  0397  17C4               	bsf	(___flmul@prod^(0+128)+2),7
  3369  0398                     l3144:
  3370  0398  0841               	movf	___flmul@bexp^(0+128),w
  3371  0399  00B6               	movwf	??___flmul^(0+128)
  3372  039A  1003               	clrc
  3373  039B  0C36               	rrf	??___flmul^(0+128),w
  3374  039C  00B7               	movwf	(??___flmul+1)^(0+128)
  3375  039D  0837               	movf	(??___flmul+1)^(0+128),w
  3376  039E  00C5               	movwf	(___flmul@prod^(0+128)+3)
  3377  039F                     l735:
  3378  039F  083B               	movf	___flmul@sign^(0+128),w
  3379  03A0  00B6               	movwf	??___flmul^(0+128)
  3380  03A1  0836               	movf	??___flmul^(0+128),w
  3381  03A2  04C5               	iorwf	(___flmul@prod^(0+128)+3),f
  3382  03A3                     l3146:
  3383  03A3  0845               	movf	(___flmul@prod+3)^(0+128),w
  3384  03A4  00B1               	movwf	(?___flmul+3)^(0+128)
  3385  03A5  0844               	movf	(___flmul@prod+2)^(0+128),w
  3386  03A6  00B0               	movwf	(?___flmul+2)^(0+128)
  3387  03A7  0843               	movf	(___flmul@prod+1)^(0+128),w
  3388  03A8  00AF               	movwf	(?___flmul+1)^(0+128)
  3389  03A9  0842               	movf	___flmul@prod^(0+128),w
  3390  03AA  00AE               	movwf	?___flmul^(0+128)
  3391  03AB                     l723:
  3392  03AB  0008               	return
  3393  03AC                     __end_of___flmul:
  3394                           
  3395                           	psect	text6
  3396  11F8                     __ptext6:	
  3397 ;; *************** function __Umul8_16 *****************
  3398 ;; Defined at:
  3399 ;;		line 4 in file "C:\Program Files\Microchip\xc8\v2.31\pic\sources\c90\common\Umul8_16.c"
  3400 ;; Parameters:    Size  Location     Type
  3401 ;;  multiplier      1    wreg     unsigned char 
  3402 ;;  multiplicand    1    0[BANK1 ] unsigned char 
  3403 ;; Auto vars:     Size  Location     Type
  3404 ;;  multiplier      1    8[BANK1 ] unsigned char 
  3405 ;;  word_mpld       2    6[BANK1 ] unsigned int 
  3406 ;;  product         2    4[BANK1 ] unsigned int 
  3407 ;; Return value:  Size  Location     Type
  3408 ;;                  2    0[BANK1 ] unsigned int 
  3409 ;; Registers used:
  3410 ;;		wreg, status,2, status,0
  3411 ;; Tracked objects:
  3412 ;;		On entry : 0/0
  3413 ;;		On exit  : 0/0
  3414 ;;		Unchanged: 0/0
  3415 ;; Data sizes:     COMMON   BANK0   BANK1   BANK3   BANK2
  3416 ;;      Params:         0       0       2       0       0
  3417 ;;      Locals:         0       0       5       0       0
  3418 ;;      Temps:          0       0       2       0       0
  3419 ;;      Totals:         0       0       9       0       0
  3420 ;;Total ram usage:        9 bytes
  3421 ;; Hardware stack levels used:    1
  3422 ;; Hardware stack levels required when called:    7
  3423 ;; This function calls:
  3424 ;;		Nothing
  3425 ;; This function is called by:
  3426 ;;		___flmul
  3427 ;; This function uses a non-reentrant model
  3428 ;;
  3429                           
  3430                           
  3431                           ;psect for function __Umul8_16
  3432  11F8                     __Umul8_16:
  3433                           
  3434                           ;incstack = 0
  3435 ;; hardware stack exceeded
  3436                           ; Regs used in __Umul8_16: [wreg+status,2+status,0]
  3437                           ;__Umul8_16@multiplier stored from wreg
  3438  11F8  1683               	bsf	3,5	;RP0=1, select bank1
  3439  11F9  1303               	bcf	3,6	;RP1=0, select bank1
  3440  11FA  00A8               	movwf	__Umul8_16@multiplier^(0+128)
  3441  11FB                     l2738:
  3442  11FB  01A4               	clrf	__Umul8_16@product^(0+128)
  3443  11FC  01A5               	clrf	(__Umul8_16@product+1)^(0+128)
  3444  11FD                     l2740:
  3445  11FD  0820               	movf	__Umul8_16@multiplicand^(0+128),w
  3446  11FE  00A2               	movwf	??__Umul8_16^(0+128)
  3447  11FF  01A3               	clrf	(??__Umul8_16^(0+128)+1)
  3448  1200  0822               	movf	??__Umul8_16^(0+128),w
  3449  1201  00A6               	movwf	__Umul8_16@word_mpld^(0+128)
  3450  1202  0823               	movf	(??__Umul8_16+1)^(0+128),w
  3451  1203  00A7               	movwf	(__Umul8_16@word_mpld+1)^(0+128)
  3452  1204                     l2742:
  3453  1204  1C28               	btfss	__Umul8_16@multiplier^(0+128),0
  3454  1205  2A07               	goto	u3691
  3455  1206  2A08               	goto	u3690
  3456  1207                     u3691:
  3457  1207  2A0E               	goto	l742
  3458  1208                     u3690:
  3459  1208                     l2744:
  3460  1208  0826               	movf	__Umul8_16@word_mpld^(0+128),w
  3461  1209  07A4               	addwf	__Umul8_16@product^(0+128),f
  3462  120A  1803               	skipnc
  3463  120B  0AA5               	incf	(__Umul8_16@product+1)^(0+128),f
  3464  120C  0827               	movf	(__Umul8_16@word_mpld+1)^(0+128),w
  3465  120D  07A5               	addwf	(__Umul8_16@product+1)^(0+128),f
  3466  120E                     l742:
  3467  120E  3001               	movlw	1
  3468  120F                     u3705:
  3469  120F  1003               	clrc
  3470  1210  0DA6               	rlf	__Umul8_16@word_mpld^(0+128),f
  3471  1211  0DA7               	rlf	(__Umul8_16@word_mpld+1)^(0+128),f
  3472  1212  3EFF               	addlw	-1
  3473  1213  1D03               	skipz
  3474  1214  2A0F               	goto	u3705
  3475  1215  1003               	clrc
  3476  1216  0CA8               	rrf	__Umul8_16@multiplier^(0+128),f
  3477  1217                     l2746:
  3478  1217  0828               	movf	__Umul8_16@multiplier^(0+128),w
  3479  1218  1D03               	btfss	3,2
  3480  1219  2A1B               	goto	u3711
  3481  121A  2A1C               	goto	u3710
  3482  121B                     u3711:
  3483  121B  2A04               	goto	l2742
  3484  121C                     u3710:
  3485  121C                     l2748:
  3486  121C  0825               	movf	(__Umul8_16@product+1)^(0+128),w
  3487  121D  00A1               	movwf	(?__Umul8_16+1)^(0+128)
  3488  121E  0824               	movf	__Umul8_16@product^(0+128),w
  3489  121F  00A0               	movwf	?__Umul8_16^(0+128)
  3490  1220                     l744:
  3491  1220  0008               	return
  3492  1221                     __end_of__Umul8_16:
  3493                           
  3494                           	psect	text7
  3495  0D78                     __ptext7:	
  3496 ;; *************** function ___fladd *****************
  3497 ;; Defined at:
  3498 ;;		line 10 in file "C:\Program Files\Microchip\xc8\v2.31\pic\sources\c90\common\sprcadd.c"
  3499 ;; Parameters:    Size  Location     Type
  3500 ;;  b               4   40[BANK1 ] unsigned int 
  3501 ;;  a               4   44[BANK1 ] unsigned int 
  3502 ;; Auto vars:     Size  Location     Type
  3503 ;;  grs             1   59[BANK1 ] unsigned char 
  3504 ;;  bexp            1   58[BANK1 ] unsigned char 
  3505 ;;  aexp            1   57[BANK1 ] unsigned char 
  3506 ;;  signs           1   56[BANK1 ] unsigned char 
  3507 ;; Return value:  Size  Location     Type
  3508 ;;                  4   40[BANK1 ] unsigned char 
  3509 ;; Registers used:
  3510 ;;		wreg, status,2, status,0, btemp+1
  3511 ;; Tracked objects:
  3512 ;;		On entry : 0/0
  3513 ;;		On exit  : 0/0
  3514 ;;		Unchanged: 0/0
  3515 ;; Data sizes:     COMMON   BANK0   BANK1   BANK3   BANK2
  3516 ;;      Params:         0       0       8       0       0
  3517 ;;      Locals:         0       0       4       0       0
  3518 ;;      Temps:          0       0       8       0       0
  3519 ;;      Totals:         0       0      20       0       0
  3520 ;;Total ram usage:       20 bytes
  3521 ;; Hardware stack levels used:    1
  3522 ;; Hardware stack levels required when called:    7
  3523 ;; This function calls:
  3524 ;;		Nothing
  3525 ;; This function is called by:
  3526 ;;		_canales
  3527 ;; This function uses a non-reentrant model
  3528 ;;
  3529                           
  3530                           
  3531                           ;psect for function ___fladd
  3532  0D78                     ___fladd:
  3533  0D78                     l2816:	
  3534                           ;incstack = 0
  3535 ;; hardware stack exceeded
  3536                           ; Regs used in ___fladd: [wreg+status,2+status,0+btemp+1]
  3537                           
  3538  0D78  1683               	bsf	3,5	;RP0=1, select bank1
  3539  0D79  1303               	bcf	3,6	;RP1=0, select bank1
  3540  0D7A  084B               	movf	(___fladd@b^(0+128)+3),w
  3541  0D7B  3980               	andlw	128
  3542  0D7C  00D0               	movwf	??___fladd^(0+128)
  3543  0D7D  0850               	movf	??___fladd^(0+128),w
  3544  0D7E  00D8               	movwf	___fladd@signs^(0+128)
  3545  0D7F                     l2818:
  3546  0D7F  084B               	movf	(___fladd@b^(0+128)+3),w
  3547  0D80  00D0               	movwf	??___fladd^(0+128)
  3548  0D81  0750               	addwf	??___fladd^(0+128),w
  3549  0D82  00D1               	movwf	(??___fladd+1)^(0+128)
  3550  0D83  0851               	movf	(??___fladd+1)^(0+128),w
  3551  0D84  00DA               	movwf	___fladd@bexp^(0+128)
  3552  0D85                     l2820:
  3553  0D85  1FCA               	btfss	(___fladd@b^(0+128)+2),7
  3554  0D86  2D88               	goto	u3841
  3555  0D87  2D89               	goto	u3840
  3556  0D88                     u3841:
  3557  0D88  2D8A               	goto	l2824
  3558  0D89                     u3840:
  3559  0D89                     l2822:
  3560  0D89  145A               	bsf	___fladd@bexp^(0+128),0
  3561  0D8A                     l2824:
  3562  0D8A  085A               	movf	___fladd@bexp^(0+128),w
  3563  0D8B  1903               	btfsc	3,2
  3564  0D8C  2D8E               	goto	u3851
  3565  0D8D  2D8F               	goto	u3850
  3566  0D8E                     u3851:
  3567  0D8E  2D9F               	goto	l2834
  3568  0D8F                     u3850:
  3569  0D8F                     l2826:
  3570  0D8F  0A5A               	incf	___fladd@bexp^(0+128),w
  3571  0D90  1D03               	btfss	3,2
  3572  0D91  2D93               	goto	u3861
  3573  0D92  2D94               	goto	u3860
  3574  0D93                     u3861:
  3575  0D93  2D9C               	goto	l2830
  3576  0D94                     u3860:
  3577  0D94                     l2828:
  3578  0D94  3000               	movlw	0
  3579  0D95  00CB               	movwf	(___fladd@b+3)^(0+128)
  3580  0D96  3000               	movlw	0
  3581  0D97  00CA               	movwf	(___fladd@b+2)^(0+128)
  3582  0D98  3000               	movlw	0
  3583  0D99  00C9               	movwf	(___fladd@b+1)^(0+128)
  3584  0D9A  3000               	movlw	0
  3585  0D9B  00C8               	movwf	___fladd@b^(0+128)
  3586  0D9C                     l2830:
  3587  0D9C  17CA               	bsf	(___fladd@b^(0+128)+2),7
  3588  0D9D                     l2832:
  3589  0D9D  01CB               	clrf	(___fladd@b^(0+128)+3)
  3590  0D9E  2DA7               	goto	l2836
  3591  0D9F                     l2834:
  3592  0D9F  3000               	movlw	0
  3593  0DA0  00CB               	movwf	(___fladd@b+3)^(0+128)
  3594  0DA1  3000               	movlw	0
  3595  0DA2  00CA               	movwf	(___fladd@b+2)^(0+128)
  3596  0DA3  3000               	movlw	0
  3597  0DA4  00C9               	movwf	(___fladd@b+1)^(0+128)
  3598  0DA5  3000               	movlw	0
  3599  0DA6  00C8               	movwf	___fladd@b^(0+128)
  3600  0DA7                     l2836:
  3601  0DA7  084F               	movf	(___fladd@a^(0+128)+3),w
  3602  0DA8  3980               	andlw	128
  3603  0DA9  00D0               	movwf	??___fladd^(0+128)
  3604  0DAA  0850               	movf	??___fladd^(0+128),w
  3605  0DAB  00D9               	movwf	___fladd@aexp^(0+128)
  3606  0DAC                     l2838:
  3607  0DAC  0859               	movf	___fladd@aexp^(0+128),w
  3608  0DAD  0658               	xorwf	___fladd@signs^(0+128),w
  3609  0DAE  1903               	skipnz
  3610  0DAF  2DB1               	goto	u3871
  3611  0DB0  2DB2               	goto	u3870
  3612  0DB1                     u3871:
  3613  0DB1  2DB3               	goto	l2842
  3614  0DB2                     u3870:
  3615  0DB2                     l2840:
  3616  0DB2  1758               	bsf	___fladd@signs^(0+128),6
  3617  0DB3                     l2842:
  3618  0DB3  084F               	movf	(___fladd@a^(0+128)+3),w
  3619  0DB4  00D0               	movwf	??___fladd^(0+128)
  3620  0DB5  0750               	addwf	??___fladd^(0+128),w
  3621  0DB6  00D1               	movwf	(??___fladd+1)^(0+128)
  3622  0DB7  0851               	movf	(??___fladd+1)^(0+128),w
  3623  0DB8  00D9               	movwf	___fladd@aexp^(0+128)
  3624  0DB9                     l2844:
  3625  0DB9  1FCE               	btfss	(___fladd@a^(0+128)+2),7
  3626  0DBA  2DBC               	goto	u3881
  3627  0DBB  2DBD               	goto	u3880
  3628  0DBC                     u3881:
  3629  0DBC  2DBE               	goto	l2848
  3630  0DBD                     u3880:
  3631  0DBD                     l2846:
  3632  0DBD  1459               	bsf	___fladd@aexp^(0+128),0
  3633  0DBE                     l2848:
  3634  0DBE  0859               	movf	___fladd@aexp^(0+128),w
  3635  0DBF  1903               	btfsc	3,2
  3636  0DC0  2DC2               	goto	u3891
  3637  0DC1  2DC3               	goto	u3890
  3638  0DC2                     u3891:
  3639  0DC2  2DD3               	goto	l2858
  3640  0DC3                     u3890:
  3641  0DC3                     l2850:
  3642  0DC3  0A59               	incf	___fladd@aexp^(0+128),w
  3643  0DC4  1D03               	btfss	3,2
  3644  0DC5  2DC7               	goto	u3901
  3645  0DC6  2DC8               	goto	u3900
  3646  0DC7                     u3901:
  3647  0DC7  2DD0               	goto	l2854
  3648  0DC8                     u3900:
  3649  0DC8                     l2852:
  3650  0DC8  3000               	movlw	0
  3651  0DC9  00CF               	movwf	(___fladd@a+3)^(0+128)
  3652  0DCA  3000               	movlw	0
  3653  0DCB  00CE               	movwf	(___fladd@a+2)^(0+128)
  3654  0DCC  3000               	movlw	0
  3655  0DCD  00CD               	movwf	(___fladd@a+1)^(0+128)
  3656  0DCE  3000               	movlw	0
  3657  0DCF  00CC               	movwf	___fladd@a^(0+128)
  3658  0DD0                     l2854:
  3659  0DD0  17CE               	bsf	(___fladd@a^(0+128)+2),7
  3660  0DD1                     l2856:
  3661  0DD1  01CF               	clrf	(___fladd@a^(0+128)+3)
  3662  0DD2  2DDB               	goto	l627
  3663  0DD3                     l2858:
  3664  0DD3  3000               	movlw	0
  3665  0DD4  00CF               	movwf	(___fladd@a+3)^(0+128)
  3666  0DD5  3000               	movlw	0
  3667  0DD6  00CE               	movwf	(___fladd@a+2)^(0+128)
  3668  0DD7  3000               	movlw	0
  3669  0DD8  00CD               	movwf	(___fladd@a+1)^(0+128)
  3670  0DD9  3000               	movlw	0
  3671  0DDA  00CC               	movwf	___fladd@a^(0+128)
  3672  0DDB                     l627:
  3673  0DDB  085A               	movf	___fladd@bexp^(0+128),w
  3674  0DDC  0259               	subwf	___fladd@aexp^(0+128),w
  3675  0DDD  1803               	skipnc
  3676  0DDE  2DE0               	goto	u3911
  3677  0DDF  2DE1               	goto	u3910
  3678  0DE0                     u3911:
  3679  0DE0  2E25               	goto	l2894
  3680  0DE1                     u3910:
  3681  0DE1                     l2860:
  3682  0DE1  1F58               	btfss	___fladd@signs^(0+128),6
  3683  0DE2  2DE4               	goto	u3921
  3684  0DE3  2DE5               	goto	u3920
  3685  0DE4                     u3921:
  3686  0DE4  2DE9               	goto	l2864
  3687  0DE5                     u3920:
  3688  0DE5                     l2862:
  3689  0DE5  3080               	movlw	128
  3690  0DE6  00D0               	movwf	??___fladd^(0+128)
  3691  0DE7  0850               	movf	??___fladd^(0+128),w
  3692  0DE8  06D8               	xorwf	___fladd@signs^(0+128),f
  3693  0DE9                     l2864:
  3694  0DE9  085A               	movf	___fladd@bexp^(0+128),w
  3695  0DEA  00D0               	movwf	??___fladd^(0+128)
  3696  0DEB  0850               	movf	??___fladd^(0+128),w
  3697  0DEC  00DB               	movwf	___fladd@grs^(0+128)
  3698  0DED                     l2866:
  3699  0DED  0859               	movf	___fladd@aexp^(0+128),w
  3700  0DEE  00D0               	movwf	??___fladd^(0+128)
  3701  0DEF  0850               	movf	??___fladd^(0+128),w
  3702  0DF0  00DA               	movwf	___fladd@bexp^(0+128)
  3703  0DF1                     l2868:
  3704  0DF1  085B               	movf	___fladd@grs^(0+128),w
  3705  0DF2  00D0               	movwf	??___fladd^(0+128)
  3706  0DF3  0850               	movf	??___fladd^(0+128),w
  3707  0DF4  00D9               	movwf	___fladd@aexp^(0+128)
  3708  0DF5                     l2870:
  3709  0DF5  0848               	movf	___fladd@b^(0+128),w
  3710  0DF6  00D0               	movwf	??___fladd^(0+128)
  3711  0DF7  0850               	movf	??___fladd^(0+128),w
  3712  0DF8  00DB               	movwf	___fladd@grs^(0+128)
  3713  0DF9                     l2872:
  3714  0DF9  084C               	movf	___fladd@a^(0+128),w
  3715  0DFA  00D0               	movwf	??___fladd^(0+128)
  3716  0DFB  0850               	movf	??___fladd^(0+128),w
  3717  0DFC  00C8               	movwf	___fladd@b^(0+128)
  3718  0DFD                     l2874:
  3719  0DFD  085B               	movf	___fladd@grs^(0+128),w
  3720  0DFE  00D0               	movwf	??___fladd^(0+128)
  3721  0DFF  0850               	movf	??___fladd^(0+128),w
  3722  0E00  00CC               	movwf	___fladd@a^(0+128)
  3723  0E01                     l2876:
  3724  0E01  0849               	movf	(___fladd@b^(0+128)+1),w
  3725  0E02  00D0               	movwf	??___fladd^(0+128)
  3726  0E03  0850               	movf	??___fladd^(0+128),w
  3727  0E04  00DB               	movwf	___fladd@grs^(0+128)
  3728  0E05                     l2878:
  3729  0E05  084D               	movf	(___fladd@a^(0+128)+1),w
  3730  0E06  00D0               	movwf	??___fladd^(0+128)
  3731  0E07  0850               	movf	??___fladd^(0+128),w
  3732  0E08  00C9               	movwf	(___fladd@b^(0+128)+1)
  3733  0E09                     l2880:
  3734  0E09  085B               	movf	___fladd@grs^(0+128),w
  3735  0E0A  00D0               	movwf	??___fladd^(0+128)
  3736  0E0B  0850               	movf	??___fladd^(0+128),w
  3737  0E0C  00CD               	movwf	(___fladd@a^(0+128)+1)
  3738  0E0D                     l2882:
  3739  0E0D  084A               	movf	(___fladd@b^(0+128)+2),w
  3740  0E0E  00D0               	movwf	??___fladd^(0+128)
  3741  0E0F  0850               	movf	??___fladd^(0+128),w
  3742  0E10  00DB               	movwf	___fladd@grs^(0+128)
  3743  0E11                     l2884:
  3744  0E11  084E               	movf	(___fladd@a^(0+128)+2),w
  3745  0E12  00D0               	movwf	??___fladd^(0+128)
  3746  0E13  0850               	movf	??___fladd^(0+128),w
  3747  0E14  00CA               	movwf	(___fladd@b^(0+128)+2)
  3748  0E15                     l2886:
  3749  0E15  085B               	movf	___fladd@grs^(0+128),w
  3750  0E16  00D0               	movwf	??___fladd^(0+128)
  3751  0E17  0850               	movf	??___fladd^(0+128),w
  3752  0E18  00CE               	movwf	(___fladd@a^(0+128)+2)
  3753  0E19                     l2888:
  3754  0E19  084B               	movf	(___fladd@b^(0+128)+3),w
  3755  0E1A  00D0               	movwf	??___fladd^(0+128)
  3756  0E1B  0850               	movf	??___fladd^(0+128),w
  3757  0E1C  00DB               	movwf	___fladd@grs^(0+128)
  3758  0E1D                     l2890:
  3759  0E1D  084F               	movf	(___fladd@a^(0+128)+3),w
  3760  0E1E  00D0               	movwf	??___fladd^(0+128)
  3761  0E1F  0850               	movf	??___fladd^(0+128),w
  3762  0E20  00CB               	movwf	(___fladd@b^(0+128)+3)
  3763  0E21                     l2892:
  3764  0E21  085B               	movf	___fladd@grs^(0+128),w
  3765  0E22  00D0               	movwf	??___fladd^(0+128)
  3766  0E23  0850               	movf	??___fladd^(0+128),w
  3767  0E24  00CF               	movwf	(___fladd@a^(0+128)+3)
  3768  0E25                     l2894:
  3769  0E25  01DB               	clrf	___fladd@grs^(0+128)
  3770  0E26                     l2896:
  3771  0E26  0859               	movf	___fladd@aexp^(0+128),w
  3772  0E27  00D0               	movwf	??___fladd^(0+128)
  3773  0E28  01D1               	clrf	(??___fladd^(0+128)+1)
  3774  0E29  0851               	movf	(??___fladd+1)^(0+128),w
  3775  0E2A  00D3               	movwf	((??___fladd+2)^(0+128)+1)
  3776  0E2B  085A               	movf	___fladd@bexp^(0+128),w
  3777  0E2C  0250               	subwf	??___fladd^(0+128),w
  3778  0E2D  00D2               	movwf	(??___fladd+2)^(0+128)
  3779  0E2E  1C03               	skipc
  3780  0E2F  03D3               	decf	((??___fladd+2)^(0+128)+1),f
  3781  0E30  0853               	movf	(??___fladd+3)^(0+128),w
  3782  0E31  3A80               	xorlw	128
  3783  0E32  00FF               	movwf	btemp+1
  3784  0E33  3080               	movlw	128
  3785  0E34  027F               	subwf	btemp+1,w
  3786  0E35  1D03               	skipz
  3787  0E36  2E39               	goto	u3935
  3788  0E37  301A               	movlw	26
  3789  0E38  0252               	subwf	(??___fladd+2)^(0+128),w
  3790  0E39                     u3935:
  3791  0E39  1C03               	skipc
  3792  0E3A  2E3C               	goto	u3931
  3793  0E3B  2E3D               	goto	u3930
  3794  0E3C                     u3931:
  3795  0E3C  2E7A               	goto	l2912
  3796  0E3D                     u3930:
  3797  0E3D                     l2898:
  3798  0E3D  1683               	bsf	3,5	;RP0=1, select bank1
  3799  0E3E  1303               	bcf	3,6	;RP1=0, select bank1
  3800  0E3F  084B               	movf	(___fladd@b+3)^(0+128),w
  3801  0E40  044A               	iorwf	(___fladd@b+2)^(0+128),w
  3802  0E41  0449               	iorwf	(___fladd@b+1)^(0+128),w
  3803  0E42  0448               	iorwf	___fladd@b^(0+128),w
  3804  0E43  1D03               	skipz
  3805  0E44  2E46               	goto	u3941
  3806  0E45  2E48               	goto	u3940
  3807  0E46                     u3941:
  3808  0E46  3001               	movlw	1
  3809  0E47  2E49               	goto	u3950
  3810  0E48                     u3940:
  3811  0E48  3000               	movlw	0
  3812  0E49                     u3950:
  3813  0E49  00D0               	movwf	??___fladd^(0+128)
  3814  0E4A  0850               	movf	??___fladd^(0+128),w
  3815  0E4B  00DB               	movwf	___fladd@grs^(0+128)
  3816  0E4C  3000               	movlw	0
  3817  0E4D  00CB               	movwf	(___fladd@b+3)^(0+128)
  3818  0E4E  3000               	movlw	0
  3819  0E4F  00CA               	movwf	(___fladd@b+2)^(0+128)
  3820  0E50  3000               	movlw	0
  3821  0E51  00C9               	movwf	(___fladd@b+1)^(0+128)
  3822  0E52  3000               	movlw	0
  3823  0E53  00C8               	movwf	___fladd@b^(0+128)
  3824  0E54  0859               	movf	___fladd@aexp^(0+128),w
  3825  0E55  00D0               	movwf	??___fladd^(0+128)
  3826  0E56  0850               	movf	??___fladd^(0+128),w
  3827  0E57  00DA               	movwf	___fladd@bexp^(0+128)
  3828  0E58  2E82               	goto	l631
  3829  0E59                     l633:
  3830  0E59  1C5B               	btfss	___fladd@grs^(0+128),0
  3831  0E5A  2E5C               	goto	u3961
  3832  0E5B  2E5D               	goto	u3960
  3833  0E5C                     u3961:
  3834  0E5C  2E66               	goto	l2902
  3835  0E5D                     u3960:
  3836  0E5D                     l2900:
  3837  0E5D  085B               	movf	___fladd@grs^(0+128),w
  3838  0E5E  00D0               	movwf	??___fladd^(0+128)
  3839  0E5F  1003               	clrc
  3840  0E60  0C50               	rrf	??___fladd^(0+128),w
  3841  0E61  3801               	iorlw	1
  3842  0E62  00D1               	movwf	(??___fladd+1)^(0+128)
  3843  0E63  0851               	movf	(??___fladd+1)^(0+128),w
  3844  0E64  00DB               	movwf	___fladd@grs^(0+128)
  3845  0E65  2E68               	goto	l2904
  3846  0E66                     l2902:
  3847  0E66  1003               	clrc
  3848  0E67  0CDB               	rrf	___fladd@grs^(0+128),f
  3849  0E68                     l2904:
  3850  0E68  1C48               	btfss	___fladd@b^(0+128),0
  3851  0E69  2E6B               	goto	u3971
  3852  0E6A  2E6C               	goto	u3970
  3853  0E6B                     u3971:
  3854  0E6B  2E6D               	goto	l2908
  3855  0E6C                     u3970:
  3856  0E6C                     l2906:
  3857  0E6C  17DB               	bsf	___fladd@grs^(0+128),7
  3858  0E6D                     l2908:
  3859  0E6D  3001               	movlw	1
  3860  0E6E  00D0               	movwf	??___fladd^(0+128)
  3861  0E6F                     u3985:
  3862  0E6F  0D4B               	rlf	(___fladd@b+3)^(0+128),w
  3863  0E70  0CCB               	rrf	(___fladd@b+3)^(0+128),f
  3864  0E71  0CCA               	rrf	(___fladd@b+2)^(0+128),f
  3865  0E72  0CC9               	rrf	(___fladd@b+1)^(0+128),f
  3866  0E73  0CC8               	rrf	___fladd@b^(0+128),f
  3867  0E74  0BD0               	decfsz	(??___fladd^(0+128))& (0+127),f
  3868  0E75  2E6F               	goto	u3985
  3869  0E76                     l2910:
  3870  0E76  3001               	movlw	1
  3871  0E77  00D0               	movwf	??___fladd^(0+128)
  3872  0E78  0850               	movf	??___fladd^(0+128),w
  3873  0E79  07DA               	addwf	___fladd@bexp^(0+128),f
  3874  0E7A                     l2912:
  3875  0E7A  1683               	bsf	3,5	;RP0=1, select bank1
  3876  0E7B  1303               	bcf	3,6	;RP1=0, select bank1
  3877  0E7C  0859               	movf	___fladd@aexp^(0+128),w
  3878  0E7D  025A               	subwf	___fladd@bexp^(0+128),w
  3879  0E7E  1C03               	skipc
  3880  0E7F  2E81               	goto	u3991
  3881  0E80  2E82               	goto	u3990
  3882  0E81                     u3991:
  3883  0E81  2E59               	goto	l633
  3884  0E82                     u3990:
  3885  0E82                     l631:
  3886  0E82  1B58               	btfsc	___fladd@signs^(0+128),6
  3887  0E83  2E85               	goto	u4001
  3888  0E84  2E86               	goto	u4000
  3889  0E85                     u4001:
  3890  0E85  2ED1               	goto	l2938
  3891  0E86                     u4000:
  3892  0E86                     l2914:
  3893  0E86  085A               	movf	___fladd@bexp^(0+128),w
  3894  0E87  1D03               	btfss	3,2
  3895  0E88  2E8A               	goto	u4011
  3896  0E89  2E8B               	goto	u4010
  3897  0E8A                     u4011:
  3898  0E8A  2E94               	goto	l2920
  3899  0E8B                     u4010:
  3900  0E8B                     l2916:
  3901  0E8B  3000               	movlw	0
  3902  0E8C  00CB               	movwf	(?___fladd+3)^(0+128)
  3903  0E8D  3000               	movlw	0
  3904  0E8E  00CA               	movwf	(?___fladd+2)^(0+128)
  3905  0E8F  3000               	movlw	0
  3906  0E90  00C9               	movwf	(?___fladd+1)^(0+128)
  3907  0E91  3000               	movlw	0
  3908  0E92  00C8               	movwf	?___fladd^(0+128)
  3909  0E93  2FFF               	goto	l640
  3910  0E94                     l2920:
  3911  0E94  084C               	movf	___fladd@a^(0+128),w
  3912  0E95  07C8               	addwf	___fladd@b^(0+128),f
  3913  0E96  084D               	movf	(___fladd@a+1)^(0+128),w
  3914  0E97  1103               	clrz
  3915  0E98  1803               	skipnc
  3916  0E99  3E01               	addlw	1
  3917  0E9A  1903               	skipnz
  3918  0E9B  2E9D               	goto	u4021
  3919  0E9C  07C9               	addwf	(___fladd@b+1)^(0+128),f
  3920  0E9D                     u4021:
  3921  0E9D  084E               	movf	(___fladd@a+2)^(0+128),w
  3922  0E9E  1103               	clrz
  3923  0E9F  1803               	skipnc
  3924  0EA0  3E01               	addlw	1
  3925  0EA1  1903               	skipnz
  3926  0EA2  2EA4               	goto	u4022
  3927  0EA3  07CA               	addwf	(___fladd@b+2)^(0+128),f
  3928  0EA4                     u4022:
  3929  0EA4  084F               	movf	(___fladd@a+3)^(0+128),w
  3930  0EA5  1103               	clrz
  3931  0EA6  1803               	skipnc
  3932  0EA7  3E01               	addlw	1
  3933  0EA8  1903               	skipnz
  3934  0EA9  2EAB               	goto	u4023
  3935  0EAA  07CB               	addwf	(___fladd@b+3)^(0+128),f
  3936  0EAB                     u4023:
  3937  0EAB                     l2922:
  3938  0EAB  1C4B               	btfss	(___fladd@b+3)^(0+128),0
  3939  0EAC  2EAE               	goto	u4031
  3940  0EAD  2EAF               	goto	u4030
  3941  0EAE                     u4031:
  3942  0EAE  2F85               	goto	l2972
  3943  0EAF                     u4030:
  3944  0EAF                     l2924:
  3945  0EAF  1C5B               	btfss	___fladd@grs^(0+128),0
  3946  0EB0  2EB2               	goto	u4041
  3947  0EB1  2EB3               	goto	u4040
  3948  0EB2                     u4041:
  3949  0EB2  2EBC               	goto	l2928
  3950  0EB3                     u4040:
  3951  0EB3                     l2926:
  3952  0EB3  085B               	movf	___fladd@grs^(0+128),w
  3953  0EB4  00D0               	movwf	??___fladd^(0+128)
  3954  0EB5  1003               	clrc
  3955  0EB6  0C50               	rrf	??___fladd^(0+128),w
  3956  0EB7  3801               	iorlw	1
  3957  0EB8  00D1               	movwf	(??___fladd+1)^(0+128)
  3958  0EB9  0851               	movf	(??___fladd+1)^(0+128),w
  3959  0EBA  00DB               	movwf	___fladd@grs^(0+128)
  3960  0EBB  2EBE               	goto	l2930
  3961  0EBC                     l2928:
  3962  0EBC  1003               	clrc
  3963  0EBD  0CDB               	rrf	___fladd@grs^(0+128),f
  3964  0EBE                     l2930:
  3965  0EBE  1C48               	btfss	___fladd@b^(0+128),0
  3966  0EBF  2EC1               	goto	u4051
  3967  0EC0  2EC2               	goto	u4050
  3968  0EC1                     u4051:
  3969  0EC1  2EC3               	goto	l2934
  3970  0EC2                     u4050:
  3971  0EC2                     l2932:
  3972  0EC2  17DB               	bsf	___fladd@grs^(0+128),7
  3973  0EC3                     l2934:
  3974  0EC3  3001               	movlw	1
  3975  0EC4  00D0               	movwf	??___fladd^(0+128)
  3976  0EC5                     u4065:
  3977  0EC5  0D4B               	rlf	(___fladd@b+3)^(0+128),w
  3978  0EC6  0CCB               	rrf	(___fladd@b+3)^(0+128),f
  3979  0EC7  0CCA               	rrf	(___fladd@b+2)^(0+128),f
  3980  0EC8  0CC9               	rrf	(___fladd@b+1)^(0+128),f
  3981  0EC9  0CC8               	rrf	___fladd@b^(0+128),f
  3982  0ECA  0BD0               	decfsz	(??___fladd^(0+128))& (0+127),f
  3983  0ECB  2EC5               	goto	u4065
  3984  0ECC                     l2936:
  3985  0ECC  3001               	movlw	1
  3986  0ECD  00D0               	movwf	??___fladd^(0+128)
  3987  0ECE  0850               	movf	??___fladd^(0+128),w
  3988  0ECF  07DA               	addwf	___fladd@bexp^(0+128),f
  3989  0ED0  2F85               	goto	l2972
  3990  0ED1                     l2938:
  3991  0ED1  084B               	movf	(___fladd@b+3)^(0+128),w
  3992  0ED2  3A80               	xorlw	128
  3993  0ED3  00FF               	movwf	btemp+1
  3994  0ED4  084F               	movf	(___fladd@a+3)^(0+128),w
  3995  0ED5  3A80               	xorlw	128
  3996  0ED6  027F               	subwf	btemp+1,w
  3997  0ED7  1D03               	skipz
  3998  0ED8  2EE3               	goto	u4073
  3999  0ED9  084E               	movf	(___fladd@a+2)^(0+128),w
  4000  0EDA  024A               	subwf	(___fladd@b+2)^(0+128),w
  4001  0EDB  1D03               	skipz
  4002  0EDC  2EE3               	goto	u4073
  4003  0EDD  084D               	movf	(___fladd@a+1)^(0+128),w
  4004  0EDE  0249               	subwf	(___fladd@b+1)^(0+128),w
  4005  0EDF  1D03               	skipz
  4006  0EE0  2EE3               	goto	u4073
  4007  0EE1  084C               	movf	___fladd@a^(0+128),w
  4008  0EE2  0248               	subwf	___fladd@b^(0+128),w
  4009  0EE3                     u4073:
  4010  0EE3  1803               	skipnc
  4011  0EE4  2EE6               	goto	u4071
  4012  0EE5  2EE7               	goto	u4070
  4013  0EE6                     u4071:
  4014  0EE6  2F3F               	goto	l2948
  4015  0EE7                     u4070:
  4016  0EE7                     l2940:
  4017  0EE7  30FF               	movlw	255
  4018  0EE8  00D0               	movwf	??___fladd^(0+128)
  4019  0EE9  30FF               	movlw	255
  4020  0EEA  00D1               	movwf	(??___fladd^(0+128)+1)
  4021  0EEB  30FF               	movlw	255
  4022  0EEC  00D2               	movwf	(??___fladd^(0+128)+2)
  4023  0EED  30FF               	movlw	255
  4024  0EEE  00D3               	movwf	(??___fladd^(0+128)+3)
  4025  0EEF  084C               	movf	___fladd@a^(0+128),w
  4026  0EF0  00D4               	movwf	(??___fladd+4)^(0+128)
  4027  0EF1  084D               	movf	(___fladd@a+1)^(0+128),w
  4028  0EF2  00D5               	movwf	((??___fladd+4)^(0+128)+1)
  4029  0EF3  084E               	movf	(___fladd@a+2)^(0+128),w
  4030  0EF4  00D6               	movwf	((??___fladd+4)^(0+128)+2)
  4031  0EF5  084F               	movf	(___fladd@a+3)^(0+128),w
  4032  0EF6  00D7               	movwf	((??___fladd+4)^(0+128)+3)
  4033  0EF7  0848               	movf	___fladd@b^(0+128),w
  4034  0EF8  02D4               	subwf	(??___fladd+4)^(0+128),f
  4035  0EF9  0849               	movf	(___fladd@b+1)^(0+128),w
  4036  0EFA  1C03               	skipc
  4037  0EFB  0F49               	incfsz	(___fladd@b+1)^(0+128),w
  4038  0EFC  2EFE               	goto	u4081
  4039  0EFD  2EFF               	goto	u4082
  4040  0EFE                     u4081:
  4041  0EFE  02D5               	subwf	((??___fladd+4)^(0+128)+1),f
  4042  0EFF                     u4082:
  4043  0EFF  084A               	movf	(___fladd@b+2)^(0+128),w
  4044  0F00  1C03               	skipc
  4045  0F01  0F4A               	incfsz	(___fladd@b+2)^(0+128),w
  4046  0F02  2F04               	goto	u4083
  4047  0F03  2F05               	goto	u4084
  4048  0F04                     u4083:
  4049  0F04  02D6               	subwf	((??___fladd+4)^(0+128)+2),f
  4050  0F05                     u4084:
  4051  0F05  084B               	movf	(___fladd@b+3)^(0+128),w
  4052  0F06  1C03               	skipc
  4053  0F07  0F4B               	incfsz	(___fladd@b+3)^(0+128),w
  4054  0F08  2F0A               	goto	u4085
  4055  0F09  2F0B               	goto	u4086
  4056  0F0A                     u4085:
  4057  0F0A  02D7               	subwf	((??___fladd+4)^(0+128)+3),f
  4058  0F0B                     u4086:
  4059  0F0B  0854               	movf	(??___fladd+4)^(0+128),w
  4060  0F0C  07D0               	addwf	??___fladd^(0+128),f
  4061  0F0D  0855               	movf	(??___fladd+5)^(0+128),w
  4062  0F0E  1803               	skipnc
  4063  0F0F  0F55               	incfsz	(??___fladd+5)^(0+128),w
  4064  0F10  2F12               	goto	u4090
  4065  0F11  2F13               	goto	u4091
  4066  0F12                     u4090:
  4067  0F12  07D1               	addwf	(??___fladd^(0+128)+1),f
  4068  0F13                     u4091:
  4069  0F13  0856               	movf	(??___fladd+6)^(0+128),w
  4070  0F14  1803               	skipnc
  4071  0F15  0F56               	incfsz	(??___fladd+6)^(0+128),w
  4072  0F16  2F18               	goto	u4092
  4073  0F17  2F19               	goto	u4093
  4074  0F18                     u4092:
  4075  0F18  07D2               	addwf	(??___fladd^(0+128)+2),f
  4076  0F19                     u4093:
  4077  0F19  0857               	movf	(??___fladd+7)^(0+128),w
  4078  0F1A  1803               	skipnc
  4079  0F1B  0A57               	incf	(??___fladd+7)^(0+128),w
  4080  0F1C  07D3               	addwf	(??___fladd^(0+128)+3),f
  4081  0F1D  0853               	movf	(??___fladd+3)^(0+128),w
  4082  0F1E  00CB               	movwf	(___fladd@b+3)^(0+128)
  4083  0F1F  0852               	movf	(??___fladd+2)^(0+128),w
  4084  0F20  00CA               	movwf	(___fladd@b+2)^(0+128)
  4085  0F21  0851               	movf	(??___fladd+1)^(0+128),w
  4086  0F22  00C9               	movwf	(___fladd@b+1)^(0+128)
  4087  0F23  0850               	movf	??___fladd^(0+128),w
  4088  0F24  00C8               	movwf	___fladd@b^(0+128)
  4089  0F25                     l2942:
  4090  0F25  3080               	movlw	128
  4091  0F26  00D0               	movwf	??___fladd^(0+128)
  4092  0F27  0850               	movf	??___fladd^(0+128),w
  4093  0F28  06D8               	xorwf	___fladd@signs^(0+128),f
  4094  0F29  09DB               	comf	___fladd@grs^(0+128),f
  4095  0F2A  0ADB               	incf	___fladd@grs^(0+128),f
  4096  0F2B                     l2944:
  4097  0F2B  085B               	movf	___fladd@grs^(0+128),w
  4098  0F2C  1D03               	btfss	3,2
  4099  0F2D  2F2F               	goto	u4101
  4100  0F2E  2F30               	goto	u4100
  4101  0F2F                     u4101:
  4102  0F2F  2F4D               	goto	l648
  4103  0F30                     u4100:
  4104  0F30                     l2946:
  4105  0F30  3001               	movlw	1
  4106  0F31  07C8               	addwf	___fladd@b^(0+128),f
  4107  0F32  3000               	movlw	0
  4108  0F33  1803               	skipnc
  4109  0F34  3001               	movlw	1
  4110  0F35  07C9               	addwf	(___fladd@b+1)^(0+128),f
  4111  0F36  3000               	movlw	0
  4112  0F37  1803               	skipnc
  4113  0F38  3001               	movlw	1
  4114  0F39  07CA               	addwf	(___fladd@b+2)^(0+128),f
  4115  0F3A  3000               	movlw	0
  4116  0F3B  1803               	skipnc
  4117  0F3C  3001               	movlw	1
  4118  0F3D  07CB               	addwf	(___fladd@b+3)^(0+128),f
  4119  0F3E  2F4D               	goto	l648
  4120  0F3F                     l2948:
  4121  0F3F  084C               	movf	___fladd@a^(0+128),w
  4122  0F40  02C8               	subwf	___fladd@b^(0+128),f
  4123  0F41  084D               	movf	(___fladd@a+1)^(0+128),w
  4124  0F42  1C03               	skipc
  4125  0F43  0F4D               	incfsz	(___fladd@a+1)^(0+128),w
  4126  0F44  02C9               	subwf	(___fladd@b+1)^(0+128),f
  4127  0F45  084E               	movf	(___fladd@a+2)^(0+128),w
  4128  0F46  1C03               	skipc
  4129  0F47  0F4E               	incfsz	(___fladd@a+2)^(0+128),w
  4130  0F48  02CA               	subwf	(___fladd@b+2)^(0+128),f
  4131  0F49  084F               	movf	(___fladd@a+3)^(0+128),w
  4132  0F4A  1C03               	skipc
  4133  0F4B  0F4F               	incfsz	(___fladd@a+3)^(0+128),w
  4134  0F4C  02CB               	subwf	(___fladd@b+3)^(0+128),f
  4135  0F4D                     l648:
  4136  0F4D  084B               	movf	(___fladd@b+3)^(0+128),w
  4137  0F4E  044A               	iorwf	(___fladd@b+2)^(0+128),w
  4138  0F4F  0449               	iorwf	(___fladd@b+1)^(0+128),w
  4139  0F50  0448               	iorwf	___fladd@b^(0+128),w
  4140  0F51  1D03               	skipz
  4141  0F52  2F54               	goto	u4111
  4142  0F53  2F55               	goto	u4110
  4143  0F54                     u4111:
  4144  0F54  2F81               	goto	l2970
  4145  0F55                     u4110:
  4146  0F55                     l2950:
  4147  0F55  085B               	movf	___fladd@grs^(0+128),w
  4148  0F56  1D03               	btfss	3,2
  4149  0F57  2F59               	goto	u4121
  4150  0F58  2F5A               	goto	u4120
  4151  0F59                     u4121:
  4152  0F59  2F81               	goto	l2970
  4153  0F5A                     u4120:
  4154  0F5A                     l2952:
  4155  0F5A  3000               	movlw	0
  4156  0F5B  00CB               	movwf	(?___fladd+3)^(0+128)
  4157  0F5C  3000               	movlw	0
  4158  0F5D  00CA               	movwf	(?___fladd+2)^(0+128)
  4159  0F5E  3000               	movlw	0
  4160  0F5F  00C9               	movwf	(?___fladd+1)^(0+128)
  4161  0F60  3000               	movlw	0
  4162  0F61  00C8               	movwf	?___fladd^(0+128)
  4163  0F62  2FFF               	goto	l640
  4164  0F63                     l2956:
  4165  0F63  3001               	movlw	1
  4166  0F64  00D0               	movwf	??___fladd^(0+128)
  4167  0F65                     u4135:
  4168  0F65  1003               	clrc
  4169  0F66  0DC8               	rlf	___fladd@b^(0+128),f
  4170  0F67  0DC9               	rlf	(___fladd@b+1)^(0+128),f
  4171  0F68  0DCA               	rlf	(___fladd@b+2)^(0+128),f
  4172  0F69  0DCB               	rlf	(___fladd@b+3)^(0+128),f
  4173  0F6A  0BD0               	decfsz	??___fladd^(0+128),f
  4174  0F6B  2F65               	goto	u4135
  4175  0F6C                     l2958:
  4176  0F6C  1FDB               	btfss	___fladd@grs^(0+128),7
  4177  0F6D  2F6F               	goto	u4141
  4178  0F6E  2F70               	goto	u4140
  4179  0F6F                     u4141:
  4180  0F6F  2F71               	goto	l652
  4181  0F70                     u4140:
  4182  0F70                     l2960:
  4183  0F70  1448               	bsf	___fladd@b^(0+128),0
  4184  0F71                     l652:
  4185  0F71  1C5B               	btfss	___fladd@grs^(0+128),0
  4186  0F72  2F74               	goto	u4151
  4187  0F73  2F75               	goto	u4150
  4188  0F74                     u4151:
  4189  0F74  2F78               	goto	l2964
  4190  0F75                     u4150:
  4191  0F75                     l2962:
  4192  0F75  1403               	setc
  4193  0F76  0DDB               	rlf	___fladd@grs^(0+128),f
  4194  0F77  2F7A               	goto	l2966
  4195  0F78                     l2964:
  4196  0F78  1003               	clrc
  4197  0F79  0DDB               	rlf	___fladd@grs^(0+128),f
  4198  0F7A                     l2966:
  4199  0F7A  085A               	movf	___fladd@bexp^(0+128),w
  4200  0F7B  1903               	btfsc	3,2
  4201  0F7C  2F7E               	goto	u4161
  4202  0F7D  2F7F               	goto	u4160
  4203  0F7E                     u4161:
  4204  0F7E  2F81               	goto	l2970
  4205  0F7F                     u4160:
  4206  0F7F                     l2968:
  4207  0F7F  3001               	movlw	1
  4208  0F80  02DA               	subwf	___fladd@bexp^(0+128),f
  4209  0F81                     l2970:
  4210  0F81  1FCA               	btfss	(___fladd@b+2)^(0+128),7
  4211  0F82  2F84               	goto	u4171
  4212  0F83  2F85               	goto	u4170
  4213  0F84                     u4171:
  4214  0F84  2F63               	goto	l2956
  4215  0F85                     u4170:
  4216  0F85                     l2972:
  4217  0F85  01D9               	clrf	___fladd@aexp^(0+128)
  4218  0F86                     l2974:
  4219  0F86  1FDB               	btfss	___fladd@grs^(0+128),7
  4220  0F87  2F89               	goto	u4181
  4221  0F88  2F8A               	goto	u4180
  4222  0F89                     u4181:
  4223  0F89  2F98               	goto	l2982
  4224  0F8A                     u4180:
  4225  0F8A                     l2976:
  4226  0F8A  085B               	movf	___fladd@grs^(0+128),w
  4227  0F8B  397F               	andlw	127
  4228  0F8C  1903               	btfsc	3,2
  4229  0F8D  2F8F               	goto	u4191
  4230  0F8E  2F90               	goto	u4190
  4231  0F8F                     u4191:
  4232  0F8F  2F93               	goto	l658
  4233  0F90                     u4190:
  4234  0F90                     l2978:
  4235  0F90  01D9               	clrf	___fladd@aexp^(0+128)
  4236  0F91  0AD9               	incf	___fladd@aexp^(0+128),f
  4237  0F92  2F98               	goto	l2982
  4238  0F93                     l658:
  4239  0F93  1C48               	btfss	___fladd@b^(0+128),0
  4240  0F94  2F96               	goto	u4201
  4241  0F95  2F97               	goto	u4200
  4242  0F96                     u4201:
  4243  0F96  2F98               	goto	l2982
  4244  0F97                     u4200:
  4245  0F97  2F90               	goto	l2978
  4246  0F98                     l2982:
  4247  0F98  0859               	movf	___fladd@aexp^(0+128),w
  4248  0F99  1903               	btfsc	3,2
  4249  0F9A  2F9C               	goto	u4211
  4250  0F9B  2F9D               	goto	u4210
  4251  0F9C                     u4211:
  4252  0F9C  2FD1               	goto	l661
  4253  0F9D                     u4210:
  4254  0F9D                     l2984:
  4255  0F9D  3001               	movlw	1
  4256  0F9E  07C8               	addwf	___fladd@b^(0+128),f
  4257  0F9F  3000               	movlw	0
  4258  0FA0  1803               	skipnc
  4259  0FA1  3001               	movlw	1
  4260  0FA2  07C9               	addwf	(___fladd@b+1)^(0+128),f
  4261  0FA3  3000               	movlw	0
  4262  0FA4  1803               	skipnc
  4263  0FA5  3001               	movlw	1
  4264  0FA6  07CA               	addwf	(___fladd@b+2)^(0+128),f
  4265  0FA7  3000               	movlw	0
  4266  0FA8  1803               	skipnc
  4267  0FA9  3001               	movlw	1
  4268  0FAA  07CB               	addwf	(___fladd@b+3)^(0+128),f
  4269  0FAB                     l2986:
  4270  0FAB  1C4B               	btfss	(___fladd@b+3)^(0+128),0
  4271  0FAC  2FAE               	goto	u4221
  4272  0FAD  2FAF               	goto	u4220
  4273  0FAE                     u4221:
  4274  0FAE  2FD1               	goto	l661
  4275  0FAF                     u4220:
  4276  0FAF                     l2988:
  4277  0FAF  0848               	movf	___fladd@b^(0+128),w
  4278  0FB0  00D0               	movwf	??___fladd^(0+128)
  4279  0FB1  0849               	movf	(___fladd@b+1)^(0+128),w
  4280  0FB2  00D1               	movwf	(??___fladd^(0+128)+1)
  4281  0FB3  084A               	movf	(___fladd@b+2)^(0+128),w
  4282  0FB4  00D2               	movwf	(??___fladd^(0+128)+2)
  4283  0FB5  084B               	movf	(___fladd@b+3)^(0+128),w
  4284  0FB6  00D3               	movwf	(??___fladd^(0+128)+3)
  4285  0FB7  3001               	movlw	1
  4286  0FB8  00D4               	movwf	(??___fladd+4)^(0+128)
  4287  0FB9                     u4235:
  4288  0FB9  0D53               	rlf	(??___fladd^(0+128)+3),w
  4289  0FBA  0CD3               	rrf	(??___fladd^(0+128)+3),f
  4290  0FBB  0CD2               	rrf	(??___fladd^(0+128)+2),f
  4291  0FBC  0CD1               	rrf	(??___fladd^(0+128)+1),f
  4292  0FBD  0CD0               	rrf	??___fladd^(0+128),f
  4293  0FBE                     u4230:
  4294  0FBE  0BD4               	decfsz	(??___fladd+4)^(0+128),f
  4295  0FBF  2FB9               	goto	u4235
  4296  0FC0  0853               	movf	(??___fladd+3)^(0+128),w
  4297  0FC1  00CB               	movwf	(___fladd@b+3)^(0+128)
  4298  0FC2  0852               	movf	(??___fladd+2)^(0+128),w
  4299  0FC3  00CA               	movwf	(___fladd@b+2)^(0+128)
  4300  0FC4  0851               	movf	(??___fladd+1)^(0+128),w
  4301  0FC5  00C9               	movwf	(___fladd@b+1)^(0+128)
  4302  0FC6  0850               	movf	??___fladd^(0+128),w
  4303  0FC7  00C8               	movwf	___fladd@b^(0+128)
  4304  0FC8  0A5A               	incf	___fladd@bexp^(0+128),w
  4305  0FC9  1903               	btfsc	3,2
  4306  0FCA  2FCC               	goto	u4241
  4307  0FCB  2FCD               	goto	u4240
  4308  0FCC                     u4241:
  4309  0FCC  2FD1               	goto	l661
  4310  0FCD                     u4240:
  4311  0FCD                     l2990:
  4312  0FCD  3001               	movlw	1
  4313  0FCE  00D0               	movwf	??___fladd^(0+128)
  4314  0FCF  0850               	movf	??___fladd^(0+128),w
  4315  0FD0  07DA               	addwf	___fladd@bexp^(0+128),f
  4316  0FD1                     l661:
  4317  0FD1  0A5A               	incf	___fladd@bexp^(0+128),w
  4318  0FD2  1903               	btfsc	3,2
  4319  0FD3  2FD5               	goto	u4251
  4320  0FD4  2FD6               	goto	u4250
  4321  0FD5                     u4251:
  4322  0FD5  2FDB               	goto	l2994
  4323  0FD6                     u4250:
  4324  0FD6                     l2992:
  4325  0FD6  085A               	movf	___fladd@bexp^(0+128),w
  4326  0FD7  1D03               	btfss	3,2
  4327  0FD8  2FDA               	goto	u4261
  4328  0FD9  2FDB               	goto	u4260
  4329  0FDA                     u4261:
  4330  0FDA  2FE9               	goto	l3000
  4331  0FDB                     u4260:
  4332  0FDB                     l2994:
  4333  0FDB  3000               	movlw	0
  4334  0FDC  00CB               	movwf	(___fladd@b+3)^(0+128)
  4335  0FDD  3000               	movlw	0
  4336  0FDE  00CA               	movwf	(___fladd@b+2)^(0+128)
  4337  0FDF  3000               	movlw	0
  4338  0FE0  00C9               	movwf	(___fladd@b+1)^(0+128)
  4339  0FE1  3000               	movlw	0
  4340  0FE2  00C8               	movwf	___fladd@b^(0+128)
  4341  0FE3                     l2996:
  4342  0FE3  085A               	movf	___fladd@bexp^(0+128),w
  4343  0FE4  1D03               	btfss	3,2
  4344  0FE5  2FE7               	goto	u4271
  4345  0FE6  2FE8               	goto	u4270
  4346  0FE7                     u4271:
  4347  0FE7  2FE9               	goto	l3000
  4348  0FE8                     u4270:
  4349  0FE8                     l2998:
  4350  0FE8  01D8               	clrf	___fladd@signs^(0+128)
  4351  0FE9                     l3000:
  4352  0FE9  1C5A               	btfss	___fladd@bexp^(0+128),0
  4353  0FEA  2FEC               	goto	u4281
  4354  0FEB  2FED               	goto	u4280
  4355  0FEC                     u4281:
  4356  0FEC  2FEF               	goto	l3004
  4357  0FED                     u4280:
  4358  0FED                     l3002:
  4359  0FED  17CA               	bsf	(___fladd@b^(0+128)+2),7
  4360  0FEE  2FF3               	goto	l669
  4361  0FEF                     l3004:
  4362  0FEF  307F               	movlw	127
  4363  0FF0  00D0               	movwf	??___fladd^(0+128)
  4364  0FF1  0850               	movf	??___fladd^(0+128),w
  4365  0FF2  05CA               	andwf	(___fladd@b^(0+128)+2),f
  4366  0FF3                     l669:
  4367  0FF3  085A               	movf	___fladd@bexp^(0+128),w
  4368  0FF4  00D0               	movwf	??___fladd^(0+128)
  4369  0FF5  1003               	clrc
  4370  0FF6  0C50               	rrf	??___fladd^(0+128),w
  4371  0FF7  00D1               	movwf	(??___fladd+1)^(0+128)
  4372  0FF8  0851               	movf	(??___fladd+1)^(0+128),w
  4373  0FF9  00CB               	movwf	(___fladd@b^(0+128)+3)
  4374  0FFA                     l3006:
  4375  0FFA  1FD8               	btfss	___fladd@signs^(0+128),7
  4376  0FFB  2FFD               	goto	u4291
  4377  0FFC  2FFE               	goto	u4290
  4378  0FFD                     u4291:
  4379  0FFD  2FFF               	goto	l670
  4380  0FFE                     u4290:
  4381  0FFE                     l3008:
  4382  0FFE  17CB               	bsf	(___fladd@b^(0+128)+3),7
  4383  0FFF                     l670:
  4384  0FFF                     l640:
  4385  0FFF  0008               	return
  4386  1000                     __end_of___fladd:
  4387                           
  4388                           	psect	text8
  4389  1503                     __ptext8:	
  4390 ;; *************** function _isr *****************
  4391 ;; Defined at:
  4392 ;;		line 87 in file "Mainfinal2.c"
  4393 ;; Parameters:    Size  Location     Type
  4394 ;;		None
  4395 ;; Auto vars:     Size  Location     Type
  4396 ;;		None
  4397 ;; Return value:  Size  Location     Type
  4398 ;;                  1    wreg      void 
  4399 ;; Registers used:
  4400 ;;		wreg, fsr0l, fsr0h, status,2, status,0, btemp+1, pclath, cstack
  4401 ;; Tracked objects:
  4402 ;;		On entry : 0/0
  4403 ;;		On exit  : 0/0
  4404 ;;		Unchanged: 0/0
  4405 ;; Data sizes:     COMMON   BANK0   BANK1   BANK3   BANK2
  4406 ;;      Params:         0       0       0       0       0
  4407 ;;      Locals:         0       0       0       0       0
  4408 ;;      Temps:          0       7       0       0       0
  4409 ;;      Totals:         0       7       0       0       0
  4410 ;;Total ram usage:        7 bytes
  4411 ;; Hardware stack levels used:    1
  4412 ;; Hardware stack levels required when called:    6
  4413 ;; This function calls:
  4414 ;;		_MTMR0
  4415 ;;		_UART
  4416 ;;		_escribir
  4417 ;;		_leer
  4418 ;; This function is called by:
  4419 ;;		Interrupt level 1
  4420 ;; This function uses a non-reentrant model
  4421 ;;
  4422                           
  4423                           
  4424                           ;psect for function _isr
  4425  1503                     _isr:
  4426  1503                     i1l3386:
  4427                           
  4428                           ;Mainfinal2.c: 88:     if(PIR1bits.ADIF == 1){
  4429  1503  1F0C               	btfss	12,6	;volatile
  4430  1504  2D06               	goto	u488_21
  4431  1505  2D07               	goto	u488_20
  4432  1506                     u488_21:
  4433  1506  2D3F               	goto	i1l153
  4434  1507                     u488_20:
  4435  1507  2D24               	goto	i1l3400
  4436  1508                     i1l3390:
  4437                           
  4438                           ;Mainfinal2.c: 91:                 VAL = ADRESH;
  4439  1508  081E               	movf	30,w	;volatile
  4440  1509  00E6               	movwf	??_isr
  4441  150A  0866               	movf	??_isr,w
  4442  150B  1683               	bsf	3,5	;RP0=1, select bank1
  4443  150C  1303               	bcf	3,6	;RP1=0, select bank1
  4444  150D  00EF               	movwf	_VAL^(0+128)
  4445                           
  4446                           ;Mainfinal2.c: 92:                 break;
  4447  150E  2D3D               	goto	i1l156
  4448  150F                     i1l3392:
  4449                           
  4450                           ;Mainfinal2.c: 94:                 VAL1 = ADRESH;
  4451  150F  081E               	movf	30,w	;volatile
  4452  1510  00E6               	movwf	??_isr
  4453  1511  0866               	movf	??_isr,w
  4454  1512  1683               	bsf	3,5	;RP0=1, select bank1
  4455  1513  1303               	bcf	3,6	;RP1=0, select bank1
  4456  1514  00EE               	movwf	_VAL1^(0+128)
  4457                           
  4458                           ;Mainfinal2.c: 95:                 break;
  4459  1515  2D3D               	goto	i1l156
  4460  1516                     i1l3394:
  4461                           
  4462                           ;Mainfinal2.c: 97:                 VAL2 = ADRESH;
  4463  1516  081E               	movf	30,w	;volatile
  4464  1517  00E6               	movwf	??_isr
  4465  1518  0866               	movf	??_isr,w
  4466  1519  1683               	bsf	3,5	;RP0=1, select bank1
  4467  151A  1303               	bcf	3,6	;RP1=0, select bank1
  4468  151B  00ED               	movwf	_VAL2^(0+128)
  4469                           
  4470                           ;Mainfinal2.c: 98:                 break;
  4471  151C  2D3D               	goto	i1l156
  4472  151D                     i1l3396:
  4473                           
  4474                           ;Mainfinal2.c: 100:                 VAL3 = ADRESH;
  4475  151D  081E               	movf	30,w	;volatile
  4476  151E  00E6               	movwf	??_isr
  4477  151F  0866               	movf	??_isr,w
  4478  1520  1683               	bsf	3,5	;RP0=1, select bank1
  4479  1521  1303               	bcf	3,6	;RP1=0, select bank1
  4480  1522  00EC               	movwf	_VAL3^(0+128)
  4481                           
  4482                           ;Mainfinal2.c: 101:                 break;
  4483  1523  2D3D               	goto	i1l156
  4484  1524                     i1l3400:
  4485  1524  0C1F               	rrf	31,w	;volatile
  4486  1525  00E6               	movwf	??_isr
  4487  1526  0C66               	rrf	??_isr,w
  4488  1527  390F               	andlw	15
  4489  1528  00E7               	movwf	??_isr+1
  4490  1529  01E8               	clrf	??_isr+2
  4491                           
  4492                           ; Switch on 2 bytes has been partitioned into a top level switch of size 1, and 1 sub-sw
      +                          itches
  4493                           ; Switch size 1, requested type "simple"
  4494                           ; Number of cases is 1, Range of values is 0 to 0
  4495                           ; switch strategies available:
  4496                           ; Name         Instructions Cycles
  4497                           ; simple_byte            4     3 (average)
  4498                           ; direct_byte           11     8 (fixed)
  4499                           ; jumptable            260     6 (fixed)
  4500                           ;	Chosen strategy is simple_byte
  4501  152A  0868               	movf	??_isr+2,w
  4502  152B  3A00               	xorlw	0	; case 0
  4503  152C  1903               	skipnz
  4504  152D  2D2F               	goto	i1l3558
  4505  152E  2D3D               	goto	i1l156
  4506  152F                     i1l3558:
  4507                           
  4508                           ; Switch size 1, requested type "simple"
  4509                           ; Number of cases is 4, Range of values is 0 to 3
  4510                           ; switch strategies available:
  4511                           ; Name         Instructions Cycles
  4512                           ; simple_byte           13     7 (average)
  4513                           ; direct_byte           20     8 (fixed)
  4514                           ; jumptable            260     6 (fixed)
  4515                           ;	Chosen strategy is simple_byte
  4516  152F  0867               	movf	??_isr+1,w
  4517  1530  3A00               	xorlw	0	; case 0
  4518  1531  1903               	skipnz
  4519  1532  2D08               	goto	i1l3390
  4520  1533  3A01               	xorlw	1	; case 1
  4521  1534  1903               	skipnz
  4522  1535  2D0F               	goto	i1l3392
  4523  1536  3A03               	xorlw	3	; case 2
  4524  1537  1903               	skipnz
  4525  1538  2D16               	goto	i1l3394
  4526  1539  3A01               	xorlw	1	; case 3
  4527  153A  1903               	skipnz
  4528  153B  2D1D               	goto	i1l3396
  4529  153C  2D3D               	goto	i1l156
  4530  153D                     i1l156:
  4531                           
  4532                           ;Mainfinal2.c: 103:         PIR1bits.ADIF = 0;
  4533  153D  1283               	bcf	3,5	;RP0=0, select bank0
  4534  153E  130C               	bcf	12,6	;volatile
  4535  153F                     i1l153:	
  4536                           ;Mainfinal2.c: 104:        }
  4537                           
  4538                           
  4539                           ;Mainfinal2.c: 107:     if(INTCONbits.RBIF == 1){
  4540  153F  1C0B               	btfss	11,0	;volatile
  4541  1540  2D42               	goto	u489_21
  4542  1541  2D43               	goto	u489_20
  4543  1542                     u489_21:
  4544  1542  2E17               	goto	i1l3438
  4545  1543                     u489_20:
  4546  1543                     i1l3402:
  4547                           
  4548                           ;Mainfinal2.c: 108:         if(PORTBbits.RB2 == 0){
  4549  1543  1906               	btfsc	6,2	;volatile
  4550  1544  2D46               	goto	u490_21
  4551  1545  2D47               	goto	u490_20
  4552  1546                     u490_21:
  4553  1546  2D5E               	goto	i1l161
  4554  1547                     u490_20:
  4555  1547                     i1l3404:
  4556                           
  4557                           ;Mainfinal2.c: 109:             FLAG = 1;
  4558  1547  1683               	bsf	3,5	;RP0=1, select bank3
  4559  1548  1703               	bsf	3,6	;RP1=1, select bank3
  4560  1549  01E6               	clrf	_FLAG^(0+384)
  4561  154A  0AE6               	incf	_FLAG^(0+384),f
  4562                           
  4563                           ;Mainfinal2.c: 110:             while(FLAG == 1){
  4564  154B  2D54               	goto	i1l3408
  4565  154C                     i1l163:
  4566                           
  4567                           ;Mainfinal2.c: 111:                 TXSTAbits.TXEN = 1;
  4568  154C  1683               	bsf	3,5	;RP0=1, select bank1
  4569  154D  1303               	bcf	3,6	;RP1=0, select bank1
  4570  154E  1698               	bsf	24,5	;volatile
  4571  154F                     i1l3406:
  4572                           
  4573                           ;Mainfinal2.c: 112:                 UART();
  4574  154F  160A  118A  2221  160A  118A  	fcall	_UART
  4575  1554                     i1l3408:
  4576                           
  4577                           ;Mainfinal2.c: 110:             while(FLAG == 1){
  4578  1554  1683               	bsf	3,5	;RP0=1, select bank3
  4579  1555  1703               	bsf	3,6	;RP1=1, select bank3
  4580  1556  0366               	decf	_FLAG^(0+384),w
  4581  1557  1903               	btfsc	3,2
  4582  1558  2D5A               	goto	u491_21
  4583  1559  2D5B               	goto	u491_20
  4584  155A                     u491_21:
  4585  155A  2D4C               	goto	i1l163
  4586  155B                     u491_20:
  4587  155B                     i1l164:
  4588                           
  4589                           ;Mainfinal2.c: 114:             TXSTAbits.TXEN = 0;
  4590  155B  1683               	bsf	3,5	;RP0=1, select bank1
  4591  155C  1303               	bcf	3,6	;RP1=0, select bank1
  4592  155D  1298               	bcf	24,5	;volatile
  4593  155E                     i1l161:	
  4594                           ;Mainfinal2.c: 115:             }
  4595                           
  4596                           
  4597                           ;Mainfinal2.c: 117:         if(PORTBbits.RB0 == 0){
  4598  155E  1283               	bcf	3,5	;RP0=0, select bank0
  4599  155F  1806               	btfsc	6,0	;volatile
  4600  1560  2D62               	goto	u492_21
  4601  1561  2D63               	goto	u492_20
  4602  1562                     u492_21:
  4603  1562  2DA7               	goto	i1l3416
  4604  1563                     u492_20:
  4605  1563                     i1l3410:
  4606                           
  4607                           ;Mainfinal2.c: 118:             PORTDbits.RD0 = 1;
  4608  1563  1408               	bsf	8,0	;volatile
  4609                           
  4610                           ;Mainfinal2.c: 119:             PORTDbits.RD1 = 0;
  4611  1564  1088               	bcf	8,1	;volatile
  4612  1565                     i1l3412:
  4613                           
  4614                           ;Mainfinal2.c: 120:             escribir(VALOR1, 0x10);
  4615  1565  3010               	movlw	16
  4616  1566  00E6               	movwf	??_isr
  4617  1567  0866               	movf	??_isr,w
  4618  1568  00F0               	movwf	escribir@address
  4619  1569  1683               	bsf	3,5	;RP0=1, select bank3
  4620  156A  1703               	bsf	3,6	;RP1=1, select bank3
  4621  156B  0868               	movf	_VALOR1^(0+384),w
  4622  156C  160A  118A  218E  160A  118A  	fcall	_escribir
  4623                           
  4624                           ;Mainfinal2.c: 121:             escribir(VALOR2, 0x11);
  4625  1571  3011               	movlw	17
  4626  1572  1283               	bcf	3,5	;RP0=0, select bank0
  4627  1573  1303               	bcf	3,6	;RP1=0, select bank0
  4628  1574  00E6               	movwf	??_isr
  4629  1575  0866               	movf	??_isr,w
  4630  1576  00F0               	movwf	escribir@address
  4631  1577  1683               	bsf	3,5	;RP0=1, select bank3
  4632  1578  1703               	bsf	3,6	;RP1=1, select bank3
  4633  1579  0867               	movf	_VALOR2^(0+384),w
  4634  157A  160A  118A  218E  160A  118A  	fcall	_escribir
  4635                           
  4636                           ;Mainfinal2.c: 122:             escribir(POT3, 0X12);
  4637  157F  3012               	movlw	18
  4638  1580  1283               	bcf	3,5	;RP0=0, select bank0
  4639  1581  1303               	bcf	3,6	;RP1=0, select bank0
  4640  1582  00E6               	movwf	??_isr
  4641  1583  0866               	movf	??_isr,w
  4642  1584  00F0               	movwf	escribir@address
  4643  1585  086E               	movf	_POT3,w
  4644  1586  160A  118A  218E  160A  118A  	fcall	_escribir
  4645                           
  4646                           ;Mainfinal2.c: 123:             escribir(POT4, 0X13);
  4647  158B  3013               	movlw	19
  4648  158C  1283               	bcf	3,5	;RP0=0, select bank0
  4649  158D  1303               	bcf	3,6	;RP1=0, select bank0
  4650  158E  00E6               	movwf	??_isr
  4651  158F  0866               	movf	??_isr,w
  4652  1590  00F0               	movwf	escribir@address
  4653  1591  1683               	bsf	3,5	;RP0=1, select bank3
  4654  1592  1703               	bsf	3,6	;RP1=1, select bank3
  4655  1593  086D               	movf	_POT4^(0+384),w
  4656  1594  160A  118A  218E  160A  118A  	fcall	_escribir
  4657  1599                     i1l3414:
  4658                           
  4659                           ;Mainfinal2.c: 124:             _delay((unsigned long)((500)*(4000000/4000.0)));
  4660  1599  3003               	movlw	3
  4661  159A  1283               	bcf	3,5	;RP0=0, select bank0
  4662  159B  1303               	bcf	3,6	;RP1=0, select bank0
  4663  159C  00E8               	movwf	??_isr+2
  4664  159D  308A               	movlw	138
  4665  159E  00E7               	movwf	??_isr+1
  4666  159F  3055               	movlw	85
  4667  15A0  00E6               	movwf	??_isr
  4668  15A1                     u500_27:
  4669  15A1  0BE6               	decfsz	??_isr,f
  4670  15A2  2DA1               	goto	u500_27
  4671  15A3  0BE7               	decfsz	??_isr+1,f
  4672  15A4  2DA1               	goto	u500_27
  4673  15A5  0BE8               	decfsz	??_isr+2,f
  4674  15A6  2DA1               	goto	u500_27
  4675  15A7                     i1l3416:
  4676                           
  4677                           ;Mainfinal2.c: 126:         if(PORTBbits.RB1 == 0){
  4678  15A7  1283               	bcf	3,5	;RP0=0, select bank0
  4679  15A8  1303               	bcf	3,6	;RP1=0, select bank0
  4680  15A9  1886               	btfsc	6,1	;volatile
  4681  15AA  2DAC               	goto	u493_21
  4682  15AB  2DAD               	goto	u493_20
  4683  15AC                     u493_21:
  4684  15AC  2E16               	goto	i1l3436
  4685  15AD                     u493_20:
  4686  15AD                     i1l3418:
  4687                           
  4688                           ;Mainfinal2.c: 127:             ADCON0bits.ADON = 0;
  4689  15AD  101F               	bcf	31,0	;volatile
  4690                           
  4691                           ;Mainfinal2.c: 128:             PORTDbits.RD0 = 0;
  4692  15AE  1008               	bcf	8,0	;volatile
  4693                           
  4694                           ;Mainfinal2.c: 129:             PORTDbits.RD1 = 1;
  4695  15AF  1488               	bsf	8,1	;volatile
  4696  15B0                     i1l3420:
  4697                           
  4698                           ;Mainfinal2.c: 130:             val1 = leer(0X10);
  4699  15B0  3010               	movlw	16
  4700  15B1  160A  118A  216A  160A  118A  	fcall	_leer
  4701  15B6  1283               	bcf	3,5	;RP0=0, select bank0
  4702  15B7  1303               	bcf	3,6	;RP1=0, select bank0
  4703  15B8  00E6               	movwf	??_isr
  4704  15B9  0866               	movf	??_isr,w
  4705  15BA  1683               	bsf	3,5	;RP0=1, select bank3
  4706  15BB  1703               	bsf	3,6	;RP1=1, select bank3
  4707  15BC  00EC               	movwf	_val1^(0+384)
  4708                           
  4709                           ;Mainfinal2.c: 131:             val2 = leer(0x11);
  4710  15BD  3011               	movlw	17
  4711  15BE  160A  118A  216A  160A  118A  	fcall	_leer
  4712  15C3  1283               	bcf	3,5	;RP0=0, select bank0
  4713  15C4  1303               	bcf	3,6	;RP1=0, select bank0
  4714  15C5  00E6               	movwf	??_isr
  4715  15C6  0866               	movf	??_isr,w
  4716  15C7  1683               	bsf	3,5	;RP0=1, select bank3
  4717  15C8  1703               	bsf	3,6	;RP1=1, select bank3
  4718  15C9  00EB               	movwf	_val2^(0+384)
  4719                           
  4720                           ;Mainfinal2.c: 132:             val3 = leer(0x12);
  4721  15CA  3012               	movlw	18
  4722  15CB  160A  118A  216A  160A  118A  	fcall	_leer
  4723  15D0  1283               	bcf	3,5	;RP0=0, select bank0
  4724  15D1  1303               	bcf	3,6	;RP1=0, select bank0
  4725  15D2  00E6               	movwf	??_isr
  4726  15D3  0866               	movf	??_isr,w
  4727  15D4  1683               	bsf	3,5	;RP0=1, select bank3
  4728  15D5  1703               	bsf	3,6	;RP1=1, select bank3
  4729  15D6  00EA               	movwf	_val3^(0+384)
  4730                           
  4731                           ;Mainfinal2.c: 133:             val4 = leer(0x13);
  4732  15D7  3013               	movlw	19
  4733  15D8  160A  118A  216A  160A  118A  	fcall	_leer
  4734  15DD  1283               	bcf	3,5	;RP0=0, select bank0
  4735  15DE  1303               	bcf	3,6	;RP1=0, select bank0
  4736  15DF  00E6               	movwf	??_isr
  4737  15E0  0866               	movf	??_isr,w
  4738  15E1  1683               	bsf	3,5	;RP0=1, select bank3
  4739  15E2  1703               	bsf	3,6	;RP1=1, select bank3
  4740  15E3  00E9               	movwf	_val4^(0+384)
  4741  15E4                     i1l3422:
  4742                           
  4743                           ;Mainfinal2.c: 135:             CCPR1L = val1;
  4744  15E4  086C               	movf	_val1^(0+384),w
  4745  15E5  1283               	bcf	3,5	;RP0=0, select bank0
  4746  15E6  1303               	bcf	3,6	;RP1=0, select bank0
  4747  15E7  0095               	movwf	21	;volatile
  4748  15E8                     i1l3424:
  4749                           
  4750                           ;Mainfinal2.c: 136:             CCPR2L = val2;
  4751  15E8  1683               	bsf	3,5	;RP0=1, select bank3
  4752  15E9  1703               	bsf	3,6	;RP1=1, select bank3
  4753  15EA  086B               	movf	_val2^(0+384),w
  4754  15EB  1283               	bcf	3,5	;RP0=0, select bank0
  4755  15EC  1303               	bcf	3,6	;RP1=0, select bank0
  4756  15ED  009B               	movwf	27	;volatile
  4757  15EE                     i1l3426:
  4758                           
  4759                           ;Mainfinal2.c: 137:             POT3 = val3;
  4760  15EE  1683               	bsf	3,5	;RP0=1, select bank3
  4761  15EF  1703               	bsf	3,6	;RP1=1, select bank3
  4762  15F0  086A               	movf	_val3^(0+384),w
  4763  15F1  1283               	bcf	3,5	;RP0=0, select bank0
  4764  15F2  1303               	bcf	3,6	;RP1=0, select bank0
  4765  15F3  00E6               	movwf	??_isr
  4766  15F4  0866               	movf	??_isr,w
  4767  15F5  00EE               	movwf	_POT3
  4768  15F6                     i1l3428:
  4769                           
  4770                           ;Mainfinal2.c: 138:             POT4 = val4;
  4771  15F6  1683               	bsf	3,5	;RP0=1, select bank3
  4772  15F7  1703               	bsf	3,6	;RP1=1, select bank3
  4773  15F8  0869               	movf	_val4^(0+384),w
  4774  15F9  1283               	bcf	3,5	;RP0=0, select bank0
  4775  15FA  1303               	bcf	3,6	;RP1=0, select bank0
  4776  15FB  00E6               	movwf	??_isr
  4777  15FC  0866               	movf	??_isr,w
  4778  15FD  1683               	bsf	3,5	;RP0=1, select bank3
  4779  15FE  1703               	bsf	3,6	;RP1=1, select bank3
  4780  15FF  00ED               	movwf	_POT4^(0+384)
  4781  1600                     i1l3430:
  4782                           
  4783                           ;Mainfinal2.c: 139:             MTMR0();
  4784  1600  160A  118A  21AB  160A  118A  	fcall	_MTMR0
  4785  1605                     i1l3432:
  4786                           
  4787                           ;Mainfinal2.c: 140:             _delay((unsigned long)((3000)*(4000000/4000.0)));
  4788  1605  3010               	movlw	16
  4789  1606  1283               	bcf	3,5	;RP0=0, select bank0
  4790  1607  1303               	bcf	3,6	;RP1=0, select bank0
  4791  1608  00E8               	movwf	??_isr+2
  4792  1609  3039               	movlw	57
  4793  160A  00E7               	movwf	??_isr+1
  4794  160B  300D               	movlw	13
  4795  160C  00E6               	movwf	??_isr
  4796  160D                     u501_27:
  4797  160D  0BE6               	decfsz	??_isr,f
  4798  160E  2E0D               	goto	u501_27
  4799  160F  0BE7               	decfsz	??_isr+1,f
  4800  1610  2E0D               	goto	u501_27
  4801  1611  0BE8               	decfsz	??_isr+2,f
  4802  1612  2E0D               	goto	u501_27
  4803  1613                     i1l3434:
  4804                           
  4805                           ;Mainfinal2.c: 141:             ADCON0bits.ADON = 1;
  4806  1613  1283               	bcf	3,5	;RP0=0, select bank0
  4807  1614  1303               	bcf	3,6	;RP1=0, select bank0
  4808  1615  141F               	bsf	31,0	;volatile
  4809  1616                     i1l3436:
  4810                           
  4811                           ;Mainfinal2.c: 143:         INTCONbits.RBIF = 0;
  4812  1616  100B               	bcf	11,0	;volatile
  4813  1617                     i1l3438:
  4814                           
  4815                           ;Mainfinal2.c: 147:     if(INTCONbits.T0IF == 1){
  4816  1617  1D0B               	btfss	11,2	;volatile
  4817  1618  2E1A               	goto	u494_21
  4818  1619  2E1B               	goto	u494_20
  4819  161A                     u494_21:
  4820  161A  2E25               	goto	i1l3446
  4821  161B                     u494_20:
  4822  161B                     i1l3440:
  4823                           
  4824                           ;Mainfinal2.c: 148:         MTMR0();
  4825  161B  160A  118A  21AB  160A  118A  	fcall	_MTMR0
  4826  1620                     i1l3442:
  4827                           
  4828                           ;Mainfinal2.c: 149:         TMR0 = 176;
  4829  1620  30B0               	movlw	176
  4830  1621  1283               	bcf	3,5	;RP0=0, select bank0
  4831  1622  1303               	bcf	3,6	;RP1=0, select bank0
  4832  1623  0081               	movwf	1	;volatile
  4833  1624                     i1l3444:
  4834                           
  4835                           ;Mainfinal2.c: 150:         INTCONbits.T0IF = 0;
  4836  1624  110B               	bcf	11,2	;volatile
  4837  1625                     i1l3446:
  4838                           
  4839                           ;Mainfinal2.c: 153:     PIR1bits.TMR2IF = 0;
  4840  1625  108C               	bcf	12,1	;volatile
  4841  1626                     i1l168:
  4842  1626  086C               	movf	??_isr+6,w
  4843  1627  00FF               	movwf	btemp+1
  4844  1628  086B               	movf	??_isr+5,w
  4845  1629  008A               	movwf	10
  4846  162A  086A               	movf	??_isr+4,w
  4847  162B  0084               	movwf	4
  4848  162C  0E69               	swapf	??_isr+3,w
  4849  162D  0083               	movwf	3
  4850  162E  0EFE               	swapf	btemp,f
  4851  162F  0E7E               	swapf	btemp,w
  4852  1630  0009               	retfie
  4853  1631                     __end_of_isr:
  4854                           
  4855                           	psect	intentry
  4856  0004                     __pintentry:	
  4857                           ;incstack = 0
  4858 ;; hardware stack exceeded
  4859                           ; Regs used in _isr: [wreg-fsr0h+status,2+status,0+btemp+1+pclath+cstack]
  4860                           
  4861  0004                     interrupt_function:
  4862  007E                     saved_w	set	btemp
  4863  0004  00FE               	movwf	btemp
  4864  0005  0E03               	swapf	3,w
  4865  0006  1283               	bcf	3,5	;RP0=0, select bank0
  4866  0007  1303               	bcf	3,6	;RP1=0, select bank0
  4867  0008  00E9               	movwf	??_isr+3
  4868  0009  0804               	movf	4,w
  4869  000A  00EA               	movwf	??_isr+4
  4870  000B  080A               	movf	10,w
  4871  000C  00EB               	movwf	??_isr+5
  4872  000D  087F               	movf	btemp+1,w
  4873  000E  00EC               	movwf	??_isr+6
  4874  000F  160A  118A  2D03   	ljmp	_isr
  4875                           
  4876                           	psect	text9
  4877  116A                     __ptext9:	
  4878 ;; *************** function _leer *****************
  4879 ;; Defined at:
  4880 ;;		line 321 in file "Mainfinal2.c"
  4881 ;; Parameters:    Size  Location     Type
  4882 ;;  address         1    wreg     unsigned char 
  4883 ;; Auto vars:     Size  Location     Type
  4884 ;;  address         1    1[COMMON] unsigned char 
  4885 ;;  data            1    2[COMMON] unsigned char 
  4886 ;; Return value:  Size  Location     Type
  4887 ;;                  1    wreg      unsigned char 
  4888 ;; Registers used:
  4889 ;;		wreg
  4890 ;; Tracked objects:
  4891 ;;		On entry : 0/0
  4892 ;;		On exit  : 0/0
  4893 ;;		Unchanged: 0/0
  4894 ;; Data sizes:     COMMON   BANK0   BANK1   BANK3   BANK2
  4895 ;;      Params:         0       0       0       0       0
  4896 ;;      Locals:         2       0       0       0       0
  4897 ;;      Temps:          1       0       0       0       0
  4898 ;;      Totals:         3       0       0       0       0
  4899 ;;Total ram usage:        3 bytes
  4900 ;; Hardware stack levels used:    1
  4901 ;; This function calls:
  4902 ;;		Nothing
  4903 ;; This function is called by:
  4904 ;;		_isr
  4905 ;; This function uses a non-reentrant model
  4906 ;;
  4907                           
  4908                           
  4909                           ;psect for function _leer
  4910  116A                     _leer:
  4911                           
  4912                           ;incstack = 0
  4913                           ; Regs used in _leer: [wreg]
  4914                           ;leer@address stored from wreg
  4915  116A  00F1               	movwf	leer@address
  4916  116B                     i1l3218:
  4917                           
  4918                           ;Mainfinal2.c: 322:     EEADR = address;
  4919  116B  0871               	movf	leer@address,w
  4920  116C  1283               	bcf	3,5	;RP0=0, select bank2
  4921  116D  1703               	bsf	3,6	;RP1=1, select bank2
  4922  116E  008D               	movwf	13	;volatile
  4923  116F                     i1l3220:
  4924                           
  4925                           ;Mainfinal2.c: 323:     EECON1bits.EEPGD = 0;
  4926  116F  1683               	bsf	3,5	;RP0=1, select bank3
  4927  1170  1703               	bsf	3,6	;RP1=1, select bank3
  4928  1171  138C               	bcf	12,7	;volsfr
  4929  1172                     i1l3222:
  4930                           
  4931                           ;Mainfinal2.c: 324:     EECON1bits.RD = 1;
  4932  1172  140C               	bsf	12,0	;volsfr
  4933                           
  4934                           ;Mainfinal2.c: 325:     uint8_t data = EEDATA;
  4935  1173  1283               	bcf	3,5	;RP0=0, select bank2
  4936  1174  1703               	bsf	3,6	;RP1=1, select bank2
  4937  1175  080C               	movf	12,w	;volatile
  4938  1176  00F0               	movwf	??_leer
  4939  1177  0870               	movf	??_leer,w
  4940  1178  00F2               	movwf	leer@data
  4941                           
  4942                           ;Mainfinal2.c: 326:     return data;
  4943  1179  0872               	movf	leer@data,w
  4944  117A                     i1l207:
  4945  117A  0008               	return
  4946  117B                     __end_of_leer:
  4947                           
  4948                           	psect	text10
  4949  118E                     __ptext10:	
  4950 ;; *************** function _escribir *****************
  4951 ;; Defined at:
  4952 ;;		line 302 in file "Mainfinal2.c"
  4953 ;; Parameters:    Size  Location     Type
  4954 ;;  data            1    wreg     unsigned char 
  4955 ;;  address         1    0[COMMON] unsigned char 
  4956 ;; Auto vars:     Size  Location     Type
  4957 ;;  data            1    1[COMMON] unsigned char 
  4958 ;; Return value:  Size  Location     Type
  4959 ;;                  1    wreg      void 
  4960 ;; Registers used:
  4961 ;;		wreg
  4962 ;; Tracked objects:
  4963 ;;		On entry : 0/0
  4964 ;;		On exit  : 0/0
  4965 ;;		Unchanged: 0/0
  4966 ;; Data sizes:     COMMON   BANK0   BANK1   BANK3   BANK2
  4967 ;;      Params:         1       0       0       0       0
  4968 ;;      Locals:         1       0       0       0       0
  4969 ;;      Temps:          0       0       0       0       0
  4970 ;;      Totals:         2       0       0       0       0
  4971 ;;Total ram usage:        2 bytes
  4972 ;; Hardware stack levels used:    1
  4973 ;; This function calls:
  4974 ;;		Nothing
  4975 ;; This function is called by:
  4976 ;;		_isr
  4977 ;; This function uses a non-reentrant model
  4978 ;;
  4979                           
  4980                           
  4981                           ;psect for function _escribir
  4982  118E                     _escribir:
  4983                           
  4984                           ;incstack = 0
  4985                           ; Regs used in _escribir: [wreg]
  4986                           ;escribir@data stored from wreg
  4987  118E  00F1               	movwf	escribir@data
  4988  118F                     i1l3208:
  4989                           
  4990                           ;Mainfinal2.c: 303:     EEADR = address;
  4991  118F  0870               	movf	escribir@address,w
  4992  1190  1283               	bcf	3,5	;RP0=0, select bank2
  4993  1191  1703               	bsf	3,6	;RP1=1, select bank2
  4994  1192  008D               	movwf	13	;volatile
  4995                           
  4996                           ;Mainfinal2.c: 304:     EEDAT = data;
  4997  1193  0871               	movf	escribir@data,w
  4998  1194  008C               	movwf	12	;volatile
  4999  1195                     i1l3210:
  5000                           
  5001                           ;Mainfinal2.c: 306:     EECON1bits.EEPGD = 0;
  5002  1195  1683               	bsf	3,5	;RP0=1, select bank3
  5003  1196  1703               	bsf	3,6	;RP1=1, select bank3
  5004  1197  138C               	bcf	12,7	;volsfr
  5005  1198                     i1l3212:
  5006                           
  5007                           ;Mainfinal2.c: 307:     EECON1bits.WREN = 1 ;
  5008  1198  150C               	bsf	12,2	;volsfr
  5009  1199                     i1l3214:
  5010                           
  5011                           ;Mainfinal2.c: 308:     INTCONbits.GIE = 0;
  5012  1199  138B               	bcf	11,7	;volatile
  5013                           
  5014                           ;Mainfinal2.c: 310:     EECON2 = 0X55;
  5015  119A  3055               	movlw	85
  5016  119B  008D               	movwf	13	;volsfr
  5017                           
  5018                           ;Mainfinal2.c: 311:     EECON2 = 0xAA;
  5019  119C  30AA               	movlw	170
  5020  119D  008D               	movwf	13	;volsfr
  5021  119E                     i1l3216:
  5022                           
  5023                           ;Mainfinal2.c: 312:     EECON1bits.WR = 1;
  5024  119E  148C               	bsf	12,1	;volsfr
  5025  119F                     i1l201:	
  5026                           ;Mainfinal2.c: 314:     while(PIR2bits.EEIF == 0);
  5027                           
  5028  119F  1283               	bcf	3,5	;RP0=0, select bank0
  5029  11A0  1303               	bcf	3,6	;RP1=0, select bank0
  5030  11A1  1E0D               	btfss	13,4	;volatile
  5031  11A2  29A4               	goto	u483_21
  5032  11A3  29A5               	goto	u483_20
  5033  11A4                     u483_21:
  5034  11A4  299F               	goto	i1l201
  5035  11A5                     u483_20:
  5036  11A5                     i1l203:
  5037                           
  5038                           ;Mainfinal2.c: 315:     PIR2bits.EEIF = 0;
  5039  11A5  120D               	bcf	13,4	;volatile
  5040                           
  5041                           ;Mainfinal2.c: 316:     EECON1bits.WREN = 0;
  5042  11A6  1683               	bsf	3,5	;RP0=1, select bank3
  5043  11A7  1703               	bsf	3,6	;RP1=1, select bank3
  5044  11A8  110C               	bcf	12,2	;volsfr
  5045                           
  5046                           ;Mainfinal2.c: 317:     INTCONbits.GIE = 0;
  5047  11A9  138B               	bcf	11,7	;volatile
  5048  11AA                     i1l204:
  5049  11AA  0008               	return
  5050  11AB                     __end_of_escribir:
  5051                           
  5052                           	psect	text11
  5053  1221                     __ptext11:	
  5054 ;; *************** function _UART *****************
  5055 ;; Defined at:
  5056 ;;		line 249 in file "Mainfinal2.c"
  5057 ;; Parameters:    Size  Location     Type
  5058 ;;		None
  5059 ;; Auto vars:     Size  Location     Type
  5060 ;;		None
  5061 ;; Return value:  Size  Location     Type
  5062 ;;                  1    wreg      void 
  5063 ;; Registers used:
  5064 ;;		wreg, fsr0l, fsr0h, status,2, status,0, btemp+1, pclath, cstack
  5065 ;; Tracked objects:
  5066 ;;		On entry : 0/0
  5067 ;;		On exit  : 0/0
  5068 ;;		Unchanged: 0/0
  5069 ;; Data sizes:     COMMON   BANK0   BANK1   BANK3   BANK2
  5070 ;;      Params:         0       0       0       0       0
  5071 ;;      Locals:         0       0       0       0       0
  5072 ;;      Temps:          0       3       0       0       0
  5073 ;;      Totals:         0       3       0       0       0
  5074 ;;Total ram usage:        3 bytes
  5075 ;; Hardware stack levels used:    1
  5076 ;; Hardware stack levels required when called:    5
  5077 ;; This function calls:
  5078 ;;		_INS
  5079 ;; This function is called by:
  5080 ;;		_isr
  5081 ;; This function uses a non-reentrant model
  5082 ;;
  5083                           
  5084                           
  5085                           ;psect for function _UART
  5086  1221                     _UART:
  5087  1221                     i1l3194:	
  5088                           ;incstack = 0
  5089 ;; hardware stack exceeded
  5090                           ; Regs used in _UART: [wreg-fsr0h+status,2+status,0+btemp+1+pclath+cstack]
  5091                           
  5092                           
  5093                           ;Mainfinal2.c: 250:         _delay((unsigned long)((500)*(4000000/4000.0)));
  5094  1221  3003               	movlw	3
  5095  1222  1283               	bcf	3,5	;RP0=0, select bank0
  5096  1223  1303               	bcf	3,6	;RP1=0, select bank0
  5097  1224  00E5               	movwf	??_UART+2
  5098  1225  308A               	movlw	138
  5099  1226  00E4               	movwf	??_UART+1
  5100  1227  3055               	movlw	85
  5101  1228  00E3               	movwf	??_UART
  5102  1229                     u502_27:
  5103  1229  0BE3               	decfsz	??_UART,f
  5104  122A  2A29               	goto	u502_27
  5105  122B  0BE4               	decfsz	??_UART+1,f
  5106  122C  2A29               	goto	u502_27
  5107  122D  0BE5               	decfsz	??_UART+2,f
  5108  122E  2A29               	goto	u502_27
  5109  122F                     i1l3196:
  5110                           
  5111                           ;Mainfinal2.c: 251:             VALOR = 0;
  5112  122F  1283               	bcf	3,5	;RP0=0, select bank0
  5113  1230  1303               	bcf	3,6	;RP1=0, select bank0
  5114  1231  01ED               	clrf	_VALOR
  5115  1232                     i1l3198:
  5116  1232  3001               	movlw	1
  5117  1233  00E3               	movwf	??_UART
  5118  1234  0863               	movf	??_UART,w
  5119  1235  07ED               	addwf	_VALOR,f
  5120  1236                     i1l3200:
  5121                           
  5122                           ;Mainfinal2.c: 253:                 TXREG = I[VALOR];
  5123  1236  086D               	movf	_VALOR,w
  5124  1237  3E90               	addlw	(low (_I| (0+256)))& (0+255)
  5125  1238  0084               	movwf	4
  5126  1239  1783               	bsf	3,7	;select IRP bank3
  5127  123A  0800               	movf	0,w
  5128  123B  0099               	movwf	25	;volatile
  5129  123C                     i1l3202:
  5130                           
  5131                           ;Mainfinal2.c: 254:                 _delay((unsigned long)((50)*(4000000/4000.0)));
  5132  123C  3041               	movlw	65
  5133  123D  1283               	bcf	3,5	;RP0=0, select bank0
  5134  123E  1303               	bcf	3,6	;RP1=0, select bank0
  5135  123F  00E4               	movwf	??_UART+1
  5136  1240  30ED               	movlw	237
  5137  1241  00E3               	movwf	??_UART
  5138  1242                     u503_27:
  5139  1242  0BE3               	decfsz	??_UART,f
  5140  1243  2A42               	goto	u503_27
  5141  1244  0BE4               	decfsz	??_UART+1,f
  5142  1245  2A42               	goto	u503_27
  5143  1246  2A47               	nop2
  5144  1247                     i1l3204:
  5145                           
  5146                           ;Mainfinal2.c: 255:             }
  5147  1247  3060               	movlw	96
  5148  1248  1283               	bcf	3,5	;RP0=0, select bank0
  5149  1249  1303               	bcf	3,6	;RP1=0, select bank0
  5150  124A  026D               	subwf	_VALOR,w
  5151  124B  1C03               	skipc
  5152  124C  2A4E               	goto	u481_21
  5153  124D  2A4F               	goto	u481_20
  5154  124E                     u481_21:
  5155  124E  2A32               	goto	i1l3198
  5156  124F                     u481_20:
  5157  124F                     i1l184:
  5158  124F  1E8C               	btfss	12,5	;volatile
  5159  1250  2A52               	goto	u482_21
  5160  1251  2A53               	goto	u482_20
  5161  1252                     u482_21:
  5162  1252  2A4F               	goto	i1l184
  5163  1253                     u482_20:
  5164  1253                     i1l3206:
  5165                           
  5166                           ;Mainfinal2.c: 258:             INS();
  5167  1253  160A  118A  22AE  160A  118A  	fcall	_INS
  5168  1258                     i1l187:
  5169  1258  0008               	return
  5170  1259                     __end_of_UART:
  5171                           
  5172                           	psect	text12
  5173  12AE                     __ptext12:	
  5174 ;; *************** function _INS *****************
  5175 ;; Defined at:
  5176 ;;		line 330 in file "Mainfinal2.c"
  5177 ;; Parameters:    Size  Location     Type
  5178 ;;		None
  5179 ;; Auto vars:     Size  Location     Type
  5180 ;;		None
  5181 ;; Return value:  Size  Location     Type
  5182 ;;                  1    wreg      void 
  5183 ;; Registers used:
  5184 ;;		wreg, fsr0l, fsr0h, status,2, status,0, btemp+1, pclath, cstack
  5185 ;; Tracked objects:
  5186 ;;		On entry : 0/0
  5187 ;;		On exit  : 0/0
  5188 ;;		Unchanged: 0/0
  5189 ;; Data sizes:     COMMON   BANK0   BANK1   BANK3   BANK2
  5190 ;;      Params:         0       0       0       0       0
  5191 ;;      Locals:         0       0       0       0       0
  5192 ;;      Temps:          0       3       0       0       0
  5193 ;;      Totals:         0       3       0       0       0
  5194 ;;Total ram usage:        3 bytes
  5195 ;; Hardware stack levels used:    1
  5196 ;; Hardware stack levels required when called:    4
  5197 ;; This function calls:
  5198 ;;		_OTRO
  5199 ;; This function is called by:
  5200 ;;		_UART
  5201 ;; This function uses a non-reentrant model
  5202 ;;
  5203                           
  5204                           
  5205                           ;psect for function _INS
  5206  12AE                     _INS:
  5207  12AE                     i1l2752:	
  5208                           ;incstack = 0
  5209 ;; hardware stack exceeded
  5210                           ; Regs used in _INS: [wreg-fsr0h+status,2+status,0+btemp+1+pclath+cstack]
  5211                           
  5212                           
  5213                           ;Mainfinal2.c: 331:     OP = RCREG;
  5214  12AE  1283               	bcf	3,5	;RP0=0, select bank0
  5215  12AF  1303               	bcf	3,6	;RP1=0, select bank0
  5216  12B0  081A               	movf	26,w	;volatile
  5217  12B1  00E0               	movwf	??_INS
  5218  12B2  0860               	movf	??_INS,w
  5219  12B3  1683               	bsf	3,5	;RP0=1, select bank3
  5220  12B4  1703               	bsf	3,6	;RP1=1, select bank3
  5221  12B5  00E5               	movwf	_OP^(0+384)
  5222                           
  5223                           ;Mainfinal2.c: 332:     switch(OP){
  5224  12B6  2AF9               	goto	i1l2774
  5225  12B7                     i1l211:	
  5226                           ;Mainfinal2.c: 333:             case 49:
  5227                           
  5228                           
  5229                           ;Mainfinal2.c: 334:                 TXSTAbits.TXEN = 0;
  5230  12B7  1683               	bsf	3,5	;RP0=1, select bank1
  5231  12B8  1303               	bcf	3,6	;RP1=0, select bank1
  5232  12B9  1298               	bcf	24,5	;volatile
  5233  12BA                     i1l2754:
  5234                           
  5235                           ;Mainfinal2.c: 335:                 OP = 0;
  5236  12BA  1683               	bsf	3,5	;RP0=1, select bank3
  5237  12BB  1703               	bsf	3,6	;RP1=1, select bank3
  5238  12BC  01E5               	clrf	_OP^(0+384)
  5239                           
  5240                           ;Mainfinal2.c: 336:                 break;
  5241  12BD  2B0B               	goto	i1l219
  5242  12BE                     i1l2756:
  5243                           
  5244                           ;Mainfinal2.c: 338:                     _delay((unsigned long)((500)*(4000000/4000.0)));
  5245  12BE  3003               	movlw	3
  5246  12BF  1283               	bcf	3,5	;RP0=0, select bank0
  5247  12C0  1303               	bcf	3,6	;RP1=0, select bank0
  5248  12C1  00E2               	movwf	??_INS+2
  5249  12C2  308A               	movlw	138
  5250  12C3  00E1               	movwf	??_INS+1
  5251  12C4  3055               	movlw	85
  5252  12C5  00E0               	movwf	??_INS
  5253  12C6                     u504_27:
  5254  12C6  0BE0               	decfsz	??_INS,f
  5255  12C7  2AC6               	goto	u504_27
  5256  12C8  0BE1               	decfsz	??_INS+1,f
  5257  12C9  2AC6               	goto	u504_27
  5258  12CA  0BE2               	decfsz	??_INS+2,f
  5259  12CB  2AC6               	goto	u504_27
  5260  12CC                     i1l2758:
  5261                           
  5262                           ;Mainfinal2.c: 339:                     VALOR = 0;
  5263  12CC  1283               	bcf	3,5	;RP0=0, select bank0
  5264  12CD  1303               	bcf	3,6	;RP1=0, select bank0
  5265  12CE  01ED               	clrf	_VALOR
  5266  12CF                     i1l2760:
  5267  12CF  3001               	movlw	1
  5268  12D0  00E0               	movwf	??_INS
  5269  12D1  0860               	movf	??_INS,w
  5270  12D2  07ED               	addwf	_VALOR,f
  5271  12D3                     i1l2762:
  5272                           
  5273                           ;Mainfinal2.c: 341:                         TXREG = R[VALOR];
  5274  12D3  086D               	movf	_VALOR,w
  5275  12D4  3E10               	addlw	(low (_R| (0+256)))& (0+255)
  5276  12D5  0084               	movwf	4
  5277  12D6  1783               	bsf	3,7	;select IRP bank2
  5278  12D7  0800               	movf	0,w
  5279  12D8  0099               	movwf	25	;volatile
  5280  12D9                     i1l2764:
  5281                           
  5282                           ;Mainfinal2.c: 342:                         _delay((unsigned long)((50)*(4000000/4000.0)
      +                          ));
  5283  12D9  3041               	movlw	65
  5284  12DA  1283               	bcf	3,5	;RP0=0, select bank0
  5285  12DB  1303               	bcf	3,6	;RP1=0, select bank0
  5286  12DC  00E1               	movwf	??_INS+1
  5287  12DD  30ED               	movlw	237
  5288  12DE  00E0               	movwf	??_INS
  5289  12DF                     u505_27:
  5290  12DF  0BE0               	decfsz	??_INS,f
  5291  12E0  2ADF               	goto	u505_27
  5292  12E1  0BE1               	decfsz	??_INS+1,f
  5293  12E2  2ADF               	goto	u505_27
  5294  12E3  2AE4               	nop2
  5295  12E4                     i1l2766:
  5296                           
  5297                           ;Mainfinal2.c: 343:                     }
  5298  12E4  303D               	movlw	61
  5299  12E5  1283               	bcf	3,5	;RP0=0, select bank0
  5300  12E6  1303               	bcf	3,6	;RP1=0, select bank0
  5301  12E7  026D               	subwf	_VALOR,w
  5302  12E8  1C03               	skipc
  5303  12E9  2AEB               	goto	u372_21
  5304  12EA  2AEC               	goto	u372_20
  5305  12EB                     u372_21:
  5306  12EB  2ACF               	goto	i1l2760
  5307  12EC                     u372_20:
  5308  12EC                     i1l216:
  5309  12EC  1E8C               	btfss	12,5	;volatile
  5310  12ED  2AEF               	goto	u373_21
  5311  12EE  2AF0               	goto	u373_20
  5312  12EF                     u373_21:
  5313  12EF  2AEC               	goto	i1l216
  5314  12F0                     u373_20:
  5315  12F0                     i1l2768:
  5316                           
  5317                           ;Mainfinal2.c: 346:                     OP = 0;
  5318  12F0  1683               	bsf	3,5	;RP0=1, select bank3
  5319  12F1  1703               	bsf	3,6	;RP1=1, select bank3
  5320  12F2  01E5               	clrf	_OP^(0+384)
  5321  12F3                     i1l2770:
  5322                           
  5323                           ;Mainfinal2.c: 347:                     OTRO();
  5324  12F3  160A  118A  2474  160A  118A  	fcall	_OTRO
  5325                           
  5326                           ;Mainfinal2.c: 348:                     break;
  5327  12F8  2B0B               	goto	i1l219
  5328  12F9                     i1l2774:
  5329  12F9  0865               	movf	_OP^(0+384),w
  5330  12FA  1283               	bcf	3,5	;RP0=0, select bank0
  5331  12FB  1303               	bcf	3,6	;RP1=0, select bank0
  5332  12FC  00E0               	movwf	??_INS
  5333  12FD  01E1               	clrf	??_INS+1
  5334                           
  5335                           ; Switch on 2 bytes has been partitioned into a top level switch of size 1, and 1 sub-sw
      +                          itches
  5336                           ; Switch size 1, requested type "simple"
  5337                           ; Number of cases is 1, Range of values is 0 to 0
  5338                           ; switch strategies available:
  5339                           ; Name         Instructions Cycles
  5340                           ; simple_byte            4     3 (average)
  5341                           ; direct_byte           11     8 (fixed)
  5342                           ; jumptable            260     6 (fixed)
  5343                           ;	Chosen strategy is simple_byte
  5344  12FE  0861               	movf	??_INS+1,w
  5345  12FF  3A00               	xorlw	0	; case 0
  5346  1300  1903               	skipnz
  5347  1301  2B03               	goto	i1l3560
  5348  1302  2B0B               	goto	i1l219
  5349  1303                     i1l3560:
  5350                           
  5351                           ; Switch size 1, requested type "simple"
  5352                           ; Number of cases is 2, Range of values is 49 to 50
  5353                           ; switch strategies available:
  5354                           ; Name         Instructions Cycles
  5355                           ; simple_byte            7     4 (average)
  5356                           ; direct_byte           17    11 (fixed)
  5357                           ; jumptable            263     9 (fixed)
  5358                           ;	Chosen strategy is simple_byte
  5359  1303  0860               	movf	??_INS,w
  5360  1304  3A31               	xorlw	49	; case 49
  5361  1305  1903               	skipnz
  5362  1306  2AB7               	goto	i1l211
  5363  1307  3A03               	xorlw	3	; case 50
  5364  1308  1903               	skipnz
  5365  1309  2ABE               	goto	i1l2756
  5366  130A  2B0B               	goto	i1l219
  5367  130B                     i1l219:
  5368  130B  0008               	return
  5369  130C                     __end_of_INS:
  5370                           
  5371                           	psect	text13
  5372  1474                     __ptext13:	
  5373 ;; *************** function _OTRO *****************
  5374 ;; Defined at:
  5375 ;;		line 352 in file "Mainfinal2.c"
  5376 ;; Parameters:    Size  Location     Type
  5377 ;;		None
  5378 ;; Auto vars:     Size  Location     Type
  5379 ;;		None
  5380 ;; Return value:  Size  Location     Type
  5381 ;;                  1    wreg      void 
  5382 ;; Registers used:
  5383 ;;		wreg, fsr0l, fsr0h, status,2, status,0, btemp+1, pclath, cstack
  5384 ;; Tracked objects:
  5385 ;;		On entry : 0/0
  5386 ;;		On exit  : 0/0
  5387 ;;		Unchanged: 0/0
  5388 ;; Data sizes:     COMMON   BANK0   BANK1   BANK3   BANK2
  5389 ;;      Params:         0       0       0       0       0
  5390 ;;      Locals:         0       0       0       0       0
  5391 ;;      Temps:          0       2       0       0       0
  5392 ;;      Totals:         0       2       0       0       0
  5393 ;;Total ram usage:        2 bytes
  5394 ;; Hardware stack levels used:    1
  5395 ;; Hardware stack levels required when called:    3
  5396 ;; This function calls:
  5397 ;;		_MENSAJE
  5398 ;;		i1_canales
  5399 ;; This function is called by:
  5400 ;;		_INS
  5401 ;; This function uses a non-reentrant model
  5402 ;;
  5403                           
  5404                           
  5405                           ;psect for function _OTRO
  5406  1474                     _OTRO:
  5407  1474                     i1l2688:	
  5408                           ;incstack = 0
  5409 ;; hardware stack exceeded
  5410                           ; Regs used in _OTRO: [wreg-fsr0h+status,2+status,0+btemp+1+pclath+cstack]
  5411                           
  5412                           
  5413                           ;Mainfinal2.c: 353:     OP = RCREG;
  5414  1474  1283               	bcf	3,5	;RP0=0, select bank0
  5415  1475  1303               	bcf	3,6	;RP1=0, select bank0
  5416  1476  081A               	movf	26,w	;volatile
  5417  1477  00DE               	movwf	??_OTRO
  5418  1478  085E               	movf	??_OTRO,w
  5419  1479  1683               	bsf	3,5	;RP0=1, select bank3
  5420  147A  1703               	bsf	3,6	;RP1=1, select bank3
  5421  147B  00E5               	movwf	_OP^(0+384)
  5422                           
  5423                           ;Mainfinal2.c: 354:     switch(OP){
  5424  147C  2CEA               	goto	i1l2732
  5425  147D                     i1l2690:
  5426                           
  5427                           ;Mainfinal2.c: 356:             MENSAJE();
  5428  147D  120A  118A  27C9  160A  118A  	fcall	_MENSAJE
  5429  1482                     i1l2692:
  5430                           
  5431                           ;Mainfinal2.c: 357:             if(RCREG >= 48 && RCREG <= 57){
  5432  1482  3030               	movlw	48
  5433  1483  1283               	bcf	3,5	;RP0=0, select bank0
  5434  1484  1303               	bcf	3,6	;RP1=0, select bank0
  5435  1485  021A               	subwf	26,w	;volatile
  5436  1486  1C03               	skipc
  5437  1487  2C89               	goto	u361_21
  5438  1488  2C8A               	goto	u361_20
  5439  1489                     u361_21:
  5440  1489  2D02               	goto	i1l232
  5441  148A                     u361_20:
  5442  148A                     i1l2694:
  5443  148A  303A               	movlw	58
  5444  148B  021A               	subwf	26,w	;volatile
  5445  148C  1803               	skipnc
  5446  148D  2C8F               	goto	u362_21
  5447  148E  2C90               	goto	u362_20
  5448  148F                     u362_21:
  5449  148F  2D02               	goto	i1l232
  5450  1490                     u362_20:
  5451  1490                     i1l2696:
  5452                           
  5453                           ;Mainfinal2.c: 358:                 VAL = RCREG;
  5454  1490  081A               	movf	26,w	;volatile
  5455  1491  00DE               	movwf	??_OTRO
  5456  1492  085E               	movf	??_OTRO,w
  5457  1493  1683               	bsf	3,5	;RP0=1, select bank1
  5458  1494  1303               	bcf	3,6	;RP1=0, select bank1
  5459  1495  00EF               	movwf	_VAL^(0+128)
  5460  1496                     i1l2698:
  5461                           
  5462                           ;Mainfinal2.c: 359:                 canales();
  5463  1496  120A  158A  211D  160A  118A  	fcall	i1_canales
  5464  149B  2D02               	goto	i1l232
  5465  149C                     i1l2700:
  5466                           
  5467                           ;Mainfinal2.c: 363:             MENSAJE();
  5468  149C  120A  118A  27C9  160A  118A  	fcall	_MENSAJE
  5469  14A1                     i1l2702:
  5470                           
  5471                           ;Mainfinal2.c: 364:             if(RCREG >= 48 && RCREG <= 57){
  5472  14A1  3030               	movlw	48
  5473  14A2  1283               	bcf	3,5	;RP0=0, select bank0
  5474  14A3  1303               	bcf	3,6	;RP1=0, select bank0
  5475  14A4  021A               	subwf	26,w	;volatile
  5476  14A5  1C03               	skipc
  5477  14A6  2CA8               	goto	u363_21
  5478  14A7  2CA9               	goto	u363_20
  5479  14A8                     u363_21:
  5480  14A8  2D02               	goto	i1l232
  5481  14A9                     u363_20:
  5482  14A9                     i1l2704:
  5483  14A9  303A               	movlw	58
  5484  14AA  021A               	subwf	26,w	;volatile
  5485  14AB  1803               	skipnc
  5486  14AC  2CAE               	goto	u364_21
  5487  14AD  2CAF               	goto	u364_20
  5488  14AE                     u364_21:
  5489  14AE  2D02               	goto	i1l232
  5490  14AF                     u364_20:
  5491  14AF                     i1l2706:
  5492                           
  5493                           ;Mainfinal2.c: 365:                 VAL1 = RCREG;
  5494  14AF  081A               	movf	26,w	;volatile
  5495  14B0  00DE               	movwf	??_OTRO
  5496  14B1  085E               	movf	??_OTRO,w
  5497  14B2  1683               	bsf	3,5	;RP0=1, select bank1
  5498  14B3  1303               	bcf	3,6	;RP1=0, select bank1
  5499  14B4  00EE               	movwf	_VAL1^(0+128)
  5500  14B5  2C96               	goto	i1l2698
  5501  14B6                     i1l2710:
  5502                           
  5503                           ;Mainfinal2.c: 370:             MENSAJE();
  5504  14B6  120A  118A  27C9  160A  118A  	fcall	_MENSAJE
  5505  14BB                     i1l2712:
  5506                           
  5507                           ;Mainfinal2.c: 371:             if(RCREG >= 48 && RCREG <= 57){
  5508  14BB  3030               	movlw	48
  5509  14BC  1283               	bcf	3,5	;RP0=0, select bank0
  5510  14BD  1303               	bcf	3,6	;RP1=0, select bank0
  5511  14BE  021A               	subwf	26,w	;volatile
  5512  14BF  1C03               	skipc
  5513  14C0  2CC2               	goto	u365_21
  5514  14C1  2CC3               	goto	u365_20
  5515  14C2                     u365_21:
  5516  14C2  2D02               	goto	i1l232
  5517  14C3                     u365_20:
  5518  14C3                     i1l2714:
  5519  14C3  303A               	movlw	58
  5520  14C4  021A               	subwf	26,w	;volatile
  5521  14C5  1803               	skipnc
  5522  14C6  2CC8               	goto	u366_21
  5523  14C7  2CC9               	goto	u366_20
  5524  14C8                     u366_21:
  5525  14C8  2D02               	goto	i1l232
  5526  14C9                     u366_20:
  5527  14C9                     i1l2716:
  5528                           
  5529                           ;Mainfinal2.c: 372:                 VAL2 = RCREG;
  5530  14C9  081A               	movf	26,w	;volatile
  5531  14CA  00DE               	movwf	??_OTRO
  5532  14CB  085E               	movf	??_OTRO,w
  5533  14CC  1683               	bsf	3,5	;RP0=1, select bank1
  5534  14CD  1303               	bcf	3,6	;RP1=0, select bank1
  5535  14CE  00ED               	movwf	_VAL2^(0+128)
  5536  14CF  2C96               	goto	i1l2698
  5537  14D0                     i1l2720:
  5538                           
  5539                           ;Mainfinal2.c: 377:             MENSAJE();
  5540  14D0  120A  118A  27C9  160A  118A  	fcall	_MENSAJE
  5541  14D5                     i1l2722:
  5542                           
  5543                           ;Mainfinal2.c: 378:             if(RCREG >= 48 && RCREG <= 57){
  5544  14D5  3030               	movlw	48
  5545  14D6  1283               	bcf	3,5	;RP0=0, select bank0
  5546  14D7  1303               	bcf	3,6	;RP1=0, select bank0
  5547  14D8  021A               	subwf	26,w	;volatile
  5548  14D9  1C03               	skipc
  5549  14DA  2CDC               	goto	u367_21
  5550  14DB  2CDD               	goto	u367_20
  5551  14DC                     u367_21:
  5552  14DC  2D02               	goto	i1l232
  5553  14DD                     u367_20:
  5554  14DD                     i1l2724:
  5555  14DD  303A               	movlw	58
  5556  14DE  021A               	subwf	26,w	;volatile
  5557  14DF  1803               	skipnc
  5558  14E0  2CE2               	goto	u368_21
  5559  14E1  2CE3               	goto	u368_20
  5560  14E2                     u368_21:
  5561  14E2  2D02               	goto	i1l232
  5562  14E3                     u368_20:
  5563  14E3                     i1l2726:
  5564                           
  5565                           ;Mainfinal2.c: 379:                 VAL3 = RCREG;
  5566  14E3  081A               	movf	26,w	;volatile
  5567  14E4  00DE               	movwf	??_OTRO
  5568  14E5  085E               	movf	??_OTRO,w
  5569  14E6  1683               	bsf	3,5	;RP0=1, select bank1
  5570  14E7  1303               	bcf	3,6	;RP1=0, select bank1
  5571  14E8  00EC               	movwf	_VAL3^(0+128)
  5572  14E9  2C96               	goto	i1l2698
  5573  14EA                     i1l2732:
  5574  14EA  0865               	movf	_OP^(0+384),w
  5575  14EB  1283               	bcf	3,5	;RP0=0, select bank0
  5576  14EC  1303               	bcf	3,6	;RP1=0, select bank0
  5577  14ED  00DE               	movwf	??_OTRO
  5578  14EE  01DF               	clrf	??_OTRO+1
  5579                           
  5580                           ; Switch on 2 bytes has been partitioned into a top level switch of size 1, and 1 sub-sw
      +                          itches
  5581                           ; Switch size 1, requested type "simple"
  5582                           ; Number of cases is 1, Range of values is 0 to 0
  5583                           ; switch strategies available:
  5584                           ; Name         Instructions Cycles
  5585                           ; simple_byte            4     3 (average)
  5586                           ; direct_byte           11     8 (fixed)
  5587                           ; jumptable            260     6 (fixed)
  5588                           ;	Chosen strategy is simple_byte
  5589  14EF  085F               	movf	??_OTRO+1,w
  5590  14F0  3A00               	xorlw	0	; case 0
  5591  14F1  1903               	skipnz
  5592  14F2  2CF4               	goto	i1l3562
  5593  14F3  2D02               	goto	i1l232
  5594  14F4                     i1l3562:
  5595                           
  5596                           ; Switch size 1, requested type "simple"
  5597                           ; Number of cases is 4, Range of values is 49 to 52
  5598                           ; switch strategies available:
  5599                           ; Name         Instructions Cycles
  5600                           ; simple_byte           13     7 (average)
  5601                           ; direct_byte           23    11 (fixed)
  5602                           ; jumptable            263     9 (fixed)
  5603                           ;	Chosen strategy is simple_byte
  5604  14F4  085E               	movf	??_OTRO,w
  5605  14F5  3A31               	xorlw	49	; case 49
  5606  14F6  1903               	skipnz
  5607  14F7  2C7D               	goto	i1l2690
  5608  14F8  3A03               	xorlw	3	; case 50
  5609  14F9  1903               	skipnz
  5610  14FA  2C9C               	goto	i1l2700
  5611  14FB  3A01               	xorlw	1	; case 51
  5612  14FC  1903               	skipnz
  5613  14FD  2CB6               	goto	i1l2710
  5614  14FE  3A07               	xorlw	7	; case 52
  5615  14FF  1903               	skipnz
  5616  1500  2CD0               	goto	i1l2720
  5617  1501  2D02               	goto	i1l232
  5618  1502                     i1l232:
  5619  1502  0008               	return
  5620  1503                     __end_of_OTRO:
  5621                           
  5622                           	psect	text14
  5623  091D                     __ptext14:	
  5624 ;; *************** function i1_canales *****************
  5625 ;; Defined at:
  5626 ;;		line 262 in file "Mainfinal2.c"
  5627 ;; Parameters:    Size  Location     Type
  5628 ;;		None
  5629 ;; Auto vars:     Size  Location     Type
  5630 ;;		None
  5631 ;; Return value:  Size  Location     Type
  5632 ;;                  1    wreg      void 
  5633 ;; Registers used:
  5634 ;;		wreg, fsr0l, fsr0h, status,2, status,0, btemp+1, pclath, cstack
  5635 ;; Tracked objects:
  5636 ;;		On entry : 0/0
  5637 ;;		On exit  : 0/0
  5638 ;;		Unchanged: 0/0
  5639 ;; Data sizes:     COMMON   BANK0   BANK1   BANK3   BANK2
  5640 ;;      Params:         0       0       0       0       0
  5641 ;;      Locals:         0       0       0       0       0
  5642 ;;      Temps:          0       5       0       0       0
  5643 ;;      Totals:         0       5       0       0       0
  5644 ;;Total ram usage:        5 bytes
  5645 ;; Hardware stack levels used:    1
  5646 ;; Hardware stack levels required when called:    2
  5647 ;; This function calls:
  5648 ;;		i1___fladd
  5649 ;;		i1___flmul
  5650 ;;		i1___fltol
  5651 ;;		i1___xxtofl
  5652 ;; This function is called by:
  5653 ;;		_OTRO
  5654 ;; This function uses a non-reentrant model
  5655 ;;
  5656                           
  5657                           
  5658                           ;psect for function i1_canales
  5659  091D                     i1_canales:
  5660  091D                     i1l2640:	
  5661                           ;incstack = 0
  5662 ;; hardware stack exceeded
  5663                           ; Regs used in i1_canales: [wreg-fsr0h+status,2+status,0+btemp+1+pclath+cstack]
  5664                           
  5665                           
  5666                           ;Mainfinal2.c: 263:     if(ADCON0bits.GO == 0){
  5667  091D  1283               	bcf	3,5	;RP0=0, select bank0
  5668  091E  1303               	bcf	3,6	;RP1=0, select bank0
  5669  091F  189F               	btfsc	31,1	;volatile
  5670  0920  2922               	goto	u360_21
  5671  0921  2923               	goto	u360_20
  5672  0922                     u360_21:
  5673  0922  2AEF               	goto	i1l198
  5674  0923                     u360_20:
  5675  0923  2AD6               	goto	i1l2682
  5676  0924                     i1l2644:
  5677                           
  5678                           ;Mainfinal2.c: 266:                 CCPR1L = ((0.247*VAL)+62);
  5679  0924  1683               	bsf	3,5	;RP0=1, select bank1
  5680  0925  1303               	bcf	3,6	;RP1=0, select bank1
  5681  0926  086F               	movf	_VAL^(0+128),w
  5682  0927  1283               	bcf	3,5	;RP0=0, select bank0
  5683  0928  1303               	bcf	3,6	;RP1=0, select bank0
  5684  0929  00D9               	movwf	??i1_canales
  5685  092A  01DA               	clrf	??i1_canales+1
  5686  092B  01DB               	clrf	??i1_canales+2
  5687  092C  01DC               	clrf	??i1_canales+3
  5688  092D  085C               	movf	??i1_canales+3,w
  5689  092E  00F3               	movwf	i1___xxtofl@val+3
  5690  092F  085B               	movf	??i1_canales+2,w
  5691  0930  00F2               	movwf	i1___xxtofl@val+2
  5692  0931  085A               	movf	??i1_canales+1,w
  5693  0932  00F1               	movwf	i1___xxtofl@val+1
  5694  0933  0859               	movf	??i1_canales,w
  5695  0934  00F0               	movwf	i1___xxtofl@val
  5696  0935  3001               	movlw	1
  5697  0936  120A  158A  2063  120A  158A  	fcall	i1___xxtofl
  5698  093B  0873               	movf	?i1___xxtofl+3,w
  5699  093C  1283               	bcf	3,5	;RP0=0, select bank0
  5700  093D  1303               	bcf	3,6	;RP1=0, select bank0
  5701  093E  00A7               	movwf	i1___flmul@a+3
  5702  093F  0872               	movf	?i1___xxtofl+2,w
  5703  0940  00A6               	movwf	i1___flmul@a+2
  5704  0941  0871               	movf	?i1___xxtofl+1,w
  5705  0942  00A5               	movwf	i1___flmul@a+1
  5706  0943  0870               	movf	?i1___xxtofl,w
  5707  0944  00A4               	movwf	i1___flmul@a
  5708  0945  303E               	movlw	62
  5709  0946  00A3               	movwf	i1___flmul@b+3
  5710  0947  307C               	movlw	124
  5711  0948  00A2               	movwf	i1___flmul@b+2
  5712  0949  30ED               	movlw	237
  5713  094A  00A1               	movwf	i1___flmul@b+1
  5714  094B  3091               	movlw	145
  5715  094C  00A0               	movwf	i1___flmul@b
  5716  094D  120A  118A  23AC  120A  158A  	fcall	i1___flmul
  5717  0952  1283               	bcf	3,5	;RP0=0, select bank0
  5718  0953  1303               	bcf	3,6	;RP1=0, select bank0
  5719  0954  0823               	movf	?i1___flmul+3,w
  5720  0955  00C1               	movwf	i1___fladd@a+3
  5721  0956  0822               	movf	?i1___flmul+2,w
  5722  0957  00C0               	movwf	i1___fladd@a+2
  5723  0958  0821               	movf	?i1___flmul+1,w
  5724  0959  00BF               	movwf	i1___fladd@a+1
  5725  095A  0820               	movf	?i1___flmul,w
  5726  095B  00BE               	movwf	i1___fladd@a
  5727  095C  3042               	movlw	66
  5728  095D  00BD               	movwf	i1___fladd@b+3
  5729  095E  3078               	movlw	120
  5730  095F  00BC               	movwf	i1___fladd@b+2
  5731  0960  3000               	movlw	0
  5732  0961  00BB               	movwf	i1___fladd@b+1
  5733  0962  3000               	movlw	0
  5734  0963  00BA               	movwf	i1___fladd@b
  5735  0964  120A  158A  22F0  120A  158A  	fcall	i1___fladd
  5736  0969  1283               	bcf	3,5	;RP0=0, select bank0
  5737  096A  1303               	bcf	3,6	;RP1=0, select bank0
  5738  096B  083D               	movf	?i1___fladd+3,w
  5739  096C  00D1               	movwf	i1___fltol@f1+3
  5740  096D  083C               	movf	?i1___fladd+2,w
  5741  096E  00D0               	movwf	i1___fltol@f1+2
  5742  096F  083B               	movf	?i1___fladd+1,w
  5743  0970  00CF               	movwf	i1___fltol@f1+1
  5744  0971  083A               	movf	?i1___fladd,w
  5745  0972  00CE               	movwf	i1___fltol@f1
  5746  0973  160A  118A  237C  120A  158A  	fcall	i1___fltol
  5747  0978  1283               	bcf	3,5	;RP0=0, select bank0
  5748  0979  1303               	bcf	3,6	;RP1=0, select bank0
  5749  097A  084E               	movf	?i1___fltol,w
  5750  097B  0095               	movwf	21	;volatile
  5751  097C                     i1l2646:
  5752                           
  5753                           ;Mainfinal2.c: 267:                 VALOR1 = CCPR1L;
  5754  097C  0815               	movf	21,w	;volatile
  5755  097D  00D9               	movwf	??i1_canales
  5756  097E  0859               	movf	??i1_canales,w
  5757  097F  1683               	bsf	3,5	;RP0=1, select bank3
  5758  0980  1703               	bsf	3,6	;RP1=1, select bank3
  5759  0981  00E8               	movwf	_VALOR1^(0+384)
  5760  0982                     i1l2648:
  5761                           
  5762                           ;Mainfinal2.c: 268:                 ADCON0bits.CHS = 1;
  5763  0982  1283               	bcf	3,5	;RP0=0, select bank0
  5764  0983  1303               	bcf	3,6	;RP1=0, select bank0
  5765  0984  081F               	movf	31,w	;volatile
  5766  0985  39C3               	andlw	-61
  5767  0986  3804               	iorlw	4
  5768  0987  009F               	movwf	31	;volatile
  5769  0988                     i1l2650:
  5770                           
  5771                           ;Mainfinal2.c: 269:                 _delay((unsigned long)((100)*(4000000/4000000.0)));
  5772  0988  3020               	movlw	32
  5773  0989  1283               	bcf	3,5	;RP0=0, select bank0
  5774  098A  1303               	bcf	3,6	;RP1=0, select bank0
  5775  098B  00D9               	movwf	??i1_canales
  5776  098C                     u506_27:
  5777  098C  0BD9               	decfsz	??i1_canales,f
  5778  098D  298C               	goto	u506_27
  5779  098E  0000               	nop
  5780  098F                     i1l2652:
  5781                           
  5782                           ;Mainfinal2.c: 270:                 ADCON0bits.GO = 1;
  5783  098F  1283               	bcf	3,5	;RP0=0, select bank0
  5784  0990  1303               	bcf	3,6	;RP1=0, select bank0
  5785  0991  149F               	bsf	31,1	;volatile
  5786                           
  5787                           ;Mainfinal2.c: 271:                 break;
  5788  0992  2AEF               	goto	i1l198
  5789  0993                     i1l2654:
  5790                           
  5791                           ;Mainfinal2.c: 274:                 POT4 = ((0.049*VAL1)+7);
  5792  0993  1683               	bsf	3,5	;RP0=1, select bank1
  5793  0994  1303               	bcf	3,6	;RP1=0, select bank1
  5794  0995  086E               	movf	_VAL1^(0+128),w
  5795  0996  1283               	bcf	3,5	;RP0=0, select bank0
  5796  0997  1303               	bcf	3,6	;RP1=0, select bank0
  5797  0998  00D9               	movwf	??i1_canales
  5798  0999  01DA               	clrf	??i1_canales+1
  5799  099A  01DB               	clrf	??i1_canales+2
  5800  099B  01DC               	clrf	??i1_canales+3
  5801  099C  085C               	movf	??i1_canales+3,w
  5802  099D  00F3               	movwf	i1___xxtofl@val+3
  5803  099E  085B               	movf	??i1_canales+2,w
  5804  099F  00F2               	movwf	i1___xxtofl@val+2
  5805  09A0  085A               	movf	??i1_canales+1,w
  5806  09A1  00F1               	movwf	i1___xxtofl@val+1
  5807  09A2  0859               	movf	??i1_canales,w
  5808  09A3  00F0               	movwf	i1___xxtofl@val
  5809  09A4  3001               	movlw	1
  5810  09A5  120A  158A  2063  120A  158A  	fcall	i1___xxtofl
  5811  09AA  0873               	movf	?i1___xxtofl+3,w
  5812  09AB  1283               	bcf	3,5	;RP0=0, select bank0
  5813  09AC  1303               	bcf	3,6	;RP1=0, select bank0
  5814  09AD  00A7               	movwf	i1___flmul@a+3
  5815  09AE  0872               	movf	?i1___xxtofl+2,w
  5816  09AF  00A6               	movwf	i1___flmul@a+2
  5817  09B0  0871               	movf	?i1___xxtofl+1,w
  5818  09B1  00A5               	movwf	i1___flmul@a+1
  5819  09B2  0870               	movf	?i1___xxtofl,w
  5820  09B3  00A4               	movwf	i1___flmul@a
  5821  09B4  303D               	movlw	61
  5822  09B5  00A3               	movwf	i1___flmul@b+3
  5823  09B6  3048               	movlw	72
  5824  09B7  00A2               	movwf	i1___flmul@b+2
  5825  09B8  30B4               	movlw	180
  5826  09B9  00A1               	movwf	i1___flmul@b+1
  5827  09BA  3039               	movlw	57
  5828  09BB  00A0               	movwf	i1___flmul@b
  5829  09BC  120A  118A  23AC  120A  158A  	fcall	i1___flmul
  5830  09C1  1283               	bcf	3,5	;RP0=0, select bank0
  5831  09C2  1303               	bcf	3,6	;RP1=0, select bank0
  5832  09C3  0823               	movf	?i1___flmul+3,w
  5833  09C4  00C1               	movwf	i1___fladd@a+3
  5834  09C5  0822               	movf	?i1___flmul+2,w
  5835  09C6  00C0               	movwf	i1___fladd@a+2
  5836  09C7  0821               	movf	?i1___flmul+1,w
  5837  09C8  00BF               	movwf	i1___fladd@a+1
  5838  09C9  0820               	movf	?i1___flmul,w
  5839  09CA  00BE               	movwf	i1___fladd@a
  5840  09CB  3040               	movlw	64
  5841  09CC  00BD               	movwf	i1___fladd@b+3
  5842  09CD  30E0               	movlw	224
  5843  09CE  00BC               	movwf	i1___fladd@b+2
  5844  09CF  3000               	movlw	0
  5845  09D0  00BB               	movwf	i1___fladd@b+1
  5846  09D1  3000               	movlw	0
  5847  09D2  00BA               	movwf	i1___fladd@b
  5848  09D3  120A  158A  22F0  120A  158A  	fcall	i1___fladd
  5849  09D8  1283               	bcf	3,5	;RP0=0, select bank0
  5850  09D9  1303               	bcf	3,6	;RP1=0, select bank0
  5851  09DA  083D               	movf	?i1___fladd+3,w
  5852  09DB  00D1               	movwf	i1___fltol@f1+3
  5853  09DC  083C               	movf	?i1___fladd+2,w
  5854  09DD  00D0               	movwf	i1___fltol@f1+2
  5855  09DE  083B               	movf	?i1___fladd+1,w
  5856  09DF  00CF               	movwf	i1___fltol@f1+1
  5857  09E0  083A               	movf	?i1___fladd,w
  5858  09E1  00CE               	movwf	i1___fltol@f1
  5859  09E2  160A  118A  237C  120A  158A  	fcall	i1___fltol
  5860  09E7  1283               	bcf	3,5	;RP0=0, select bank0
  5861  09E8  1303               	bcf	3,6	;RP1=0, select bank0
  5862  09E9  084E               	movf	?i1___fltol,w
  5863  09EA  00DD               	movwf	??i1_canales+4
  5864  09EB  085D               	movf	??i1_canales+4,w
  5865  09EC  1683               	bsf	3,5	;RP0=1, select bank3
  5866  09ED  1703               	bsf	3,6	;RP1=1, select bank3
  5867  09EE  00ED               	movwf	_POT4^(0+384)
  5868  09EF                     i1l2656:
  5869                           
  5870                           ;Mainfinal2.c: 275:                 ADCON0bits.CHS = 2;
  5871  09EF  1283               	bcf	3,5	;RP0=0, select bank0
  5872  09F0  1303               	bcf	3,6	;RP1=0, select bank0
  5873  09F1  081F               	movf	31,w	;volatile
  5874  09F2  39C3               	andlw	-61
  5875  09F3  3808               	iorlw	8
  5876  09F4  009F               	movwf	31	;volatile
  5877  09F5                     i1l2658:
  5878                           
  5879                           ;Mainfinal2.c: 276:                 _delay((unsigned long)((250)*(4000000/4000000.0)));
  5880  09F5  3052               	movlw	82
  5881  09F6  1283               	bcf	3,5	;RP0=0, select bank0
  5882  09F7  1303               	bcf	3,6	;RP1=0, select bank0
  5883  09F8  00D9               	movwf	??i1_canales
  5884  09F9                     u507_27:
  5885  09F9  0BD9               	decfsz	??i1_canales,f
  5886  09FA  29F9               	goto	u507_27
  5887  09FB  0000               	nop
  5888  09FC                     i1l2660:
  5889                           
  5890                           ;Mainfinal2.c: 277:                 ADCON0bits.GO = 1;
  5891  09FC  1283               	bcf	3,5	;RP0=0, select bank0
  5892  09FD  1303               	bcf	3,6	;RP1=0, select bank0
  5893  09FE  149F               	bsf	31,1	;volatile
  5894                           
  5895                           ;Mainfinal2.c: 278:                 break;
  5896  09FF  2AEF               	goto	i1l198
  5897  0A00                     i1l2662:
  5898                           
  5899                           ;Mainfinal2.c: 281:                 CCPR2L = ((0.247*VAL2)+62);
  5900  0A00  1683               	bsf	3,5	;RP0=1, select bank1
  5901  0A01  1303               	bcf	3,6	;RP1=0, select bank1
  5902  0A02  086D               	movf	_VAL2^(0+128),w
  5903  0A03  1283               	bcf	3,5	;RP0=0, select bank0
  5904  0A04  1303               	bcf	3,6	;RP1=0, select bank0
  5905  0A05  00D9               	movwf	??i1_canales
  5906  0A06  01DA               	clrf	??i1_canales+1
  5907  0A07  01DB               	clrf	??i1_canales+2
  5908  0A08  01DC               	clrf	??i1_canales+3
  5909  0A09  085C               	movf	??i1_canales+3,w
  5910  0A0A  00F3               	movwf	i1___xxtofl@val+3
  5911  0A0B  085B               	movf	??i1_canales+2,w
  5912  0A0C  00F2               	movwf	i1___xxtofl@val+2
  5913  0A0D  085A               	movf	??i1_canales+1,w
  5914  0A0E  00F1               	movwf	i1___xxtofl@val+1
  5915  0A0F  0859               	movf	??i1_canales,w
  5916  0A10  00F0               	movwf	i1___xxtofl@val
  5917  0A11  3001               	movlw	1
  5918  0A12  120A  158A  2063  120A  158A  	fcall	i1___xxtofl
  5919  0A17  0873               	movf	?i1___xxtofl+3,w
  5920  0A18  1283               	bcf	3,5	;RP0=0, select bank0
  5921  0A19  1303               	bcf	3,6	;RP1=0, select bank0
  5922  0A1A  00A7               	movwf	i1___flmul@a+3
  5923  0A1B  0872               	movf	?i1___xxtofl+2,w
  5924  0A1C  00A6               	movwf	i1___flmul@a+2
  5925  0A1D  0871               	movf	?i1___xxtofl+1,w
  5926  0A1E  00A5               	movwf	i1___flmul@a+1
  5927  0A1F  0870               	movf	?i1___xxtofl,w
  5928  0A20  00A4               	movwf	i1___flmul@a
  5929  0A21  303E               	movlw	62
  5930  0A22  00A3               	movwf	i1___flmul@b+3
  5931  0A23  307C               	movlw	124
  5932  0A24  00A2               	movwf	i1___flmul@b+2
  5933  0A25  30ED               	movlw	237
  5934  0A26  00A1               	movwf	i1___flmul@b+1
  5935  0A27  3091               	movlw	145
  5936  0A28  00A0               	movwf	i1___flmul@b
  5937  0A29  120A  118A  23AC  120A  158A  	fcall	i1___flmul
  5938  0A2E  1283               	bcf	3,5	;RP0=0, select bank0
  5939  0A2F  1303               	bcf	3,6	;RP1=0, select bank0
  5940  0A30  0823               	movf	?i1___flmul+3,w
  5941  0A31  00C1               	movwf	i1___fladd@a+3
  5942  0A32  0822               	movf	?i1___flmul+2,w
  5943  0A33  00C0               	movwf	i1___fladd@a+2
  5944  0A34  0821               	movf	?i1___flmul+1,w
  5945  0A35  00BF               	movwf	i1___fladd@a+1
  5946  0A36  0820               	movf	?i1___flmul,w
  5947  0A37  00BE               	movwf	i1___fladd@a
  5948  0A38  3042               	movlw	66
  5949  0A39  00BD               	movwf	i1___fladd@b+3
  5950  0A3A  3078               	movlw	120
  5951  0A3B  00BC               	movwf	i1___fladd@b+2
  5952  0A3C  3000               	movlw	0
  5953  0A3D  00BB               	movwf	i1___fladd@b+1
  5954  0A3E  3000               	movlw	0
  5955  0A3F  00BA               	movwf	i1___fladd@b
  5956  0A40  120A  158A  22F0  120A  158A  	fcall	i1___fladd
  5957  0A45  1283               	bcf	3,5	;RP0=0, select bank0
  5958  0A46  1303               	bcf	3,6	;RP1=0, select bank0
  5959  0A47  083D               	movf	?i1___fladd+3,w
  5960  0A48  00D1               	movwf	i1___fltol@f1+3
  5961  0A49  083C               	movf	?i1___fladd+2,w
  5962  0A4A  00D0               	movwf	i1___fltol@f1+2
  5963  0A4B  083B               	movf	?i1___fladd+1,w
  5964  0A4C  00CF               	movwf	i1___fltol@f1+1
  5965  0A4D  083A               	movf	?i1___fladd,w
  5966  0A4E  00CE               	movwf	i1___fltol@f1
  5967  0A4F  160A  118A  237C  120A  158A  	fcall	i1___fltol
  5968  0A54  1283               	bcf	3,5	;RP0=0, select bank0
  5969  0A55  1303               	bcf	3,6	;RP1=0, select bank0
  5970  0A56  084E               	movf	?i1___fltol,w
  5971  0A57  009B               	movwf	27	;volatile
  5972  0A58                     i1l2664:
  5973                           
  5974                           ;Mainfinal2.c: 282:                 VALOR2 = CCPR2L;
  5975  0A58  081B               	movf	27,w	;volatile
  5976  0A59  00D9               	movwf	??i1_canales
  5977  0A5A  0859               	movf	??i1_canales,w
  5978  0A5B  1683               	bsf	3,5	;RP0=1, select bank3
  5979  0A5C  1703               	bsf	3,6	;RP1=1, select bank3
  5980  0A5D  00E7               	movwf	_VALOR2^(0+384)
  5981  0A5E                     i1l2666:
  5982                           
  5983                           ;Mainfinal2.c: 283:                 ADCON0bits.CHS = 3;
  5984  0A5E  1283               	bcf	3,5	;RP0=0, select bank0
  5985  0A5F  1303               	bcf	3,6	;RP1=0, select bank0
  5986  0A60  081F               	movf	31,w	;volatile
  5987  0A61  39C3               	andlw	-61
  5988  0A62  380C               	iorlw	12
  5989  0A63  009F               	movwf	31	;volatile
  5990  0A64                     i1l2668:
  5991                           
  5992                           ;Mainfinal2.c: 284:                 _delay((unsigned long)((100)*(4000000/4000000.0)));
  5993  0A64  3020               	movlw	32
  5994  0A65  1283               	bcf	3,5	;RP0=0, select bank0
  5995  0A66  1303               	bcf	3,6	;RP1=0, select bank0
  5996  0A67  00D9               	movwf	??i1_canales
  5997  0A68                     u508_27:
  5998  0A68  0BD9               	decfsz	??i1_canales,f
  5999  0A69  2A68               	goto	u508_27
  6000  0A6A  0000               	nop
  6001  0A6B                     i1l2670:
  6002                           
  6003                           ;Mainfinal2.c: 285:                 ADCON0bits.GO = 1;
  6004  0A6B  1283               	bcf	3,5	;RP0=0, select bank0
  6005  0A6C  1303               	bcf	3,6	;RP1=0, select bank0
  6006  0A6D  149F               	bsf	31,1	;volatile
  6007                           
  6008                           ;Mainfinal2.c: 286:                 break;
  6009  0A6E  2AEF               	goto	i1l198
  6010  0A6F                     i1l2672:
  6011                           
  6012                           ;Mainfinal2.c: 289:                 POT3 = ((0.049*VAL3)+7);
  6013  0A6F  1683               	bsf	3,5	;RP0=1, select bank1
  6014  0A70  1303               	bcf	3,6	;RP1=0, select bank1
  6015  0A71  086C               	movf	_VAL3^(0+128),w
  6016  0A72  1283               	bcf	3,5	;RP0=0, select bank0
  6017  0A73  1303               	bcf	3,6	;RP1=0, select bank0
  6018  0A74  00D9               	movwf	??i1_canales
  6019  0A75  01DA               	clrf	??i1_canales+1
  6020  0A76  01DB               	clrf	??i1_canales+2
  6021  0A77  01DC               	clrf	??i1_canales+3
  6022  0A78  085C               	movf	??i1_canales+3,w
  6023  0A79  00F3               	movwf	i1___xxtofl@val+3
  6024  0A7A  085B               	movf	??i1_canales+2,w
  6025  0A7B  00F2               	movwf	i1___xxtofl@val+2
  6026  0A7C  085A               	movf	??i1_canales+1,w
  6027  0A7D  00F1               	movwf	i1___xxtofl@val+1
  6028  0A7E  0859               	movf	??i1_canales,w
  6029  0A7F  00F0               	movwf	i1___xxtofl@val
  6030  0A80  3001               	movlw	1
  6031  0A81  120A  158A  2063  120A  158A  	fcall	i1___xxtofl
  6032  0A86  0873               	movf	?i1___xxtofl+3,w
  6033  0A87  1283               	bcf	3,5	;RP0=0, select bank0
  6034  0A88  1303               	bcf	3,6	;RP1=0, select bank0
  6035  0A89  00A7               	movwf	i1___flmul@a+3
  6036  0A8A  0872               	movf	?i1___xxtofl+2,w
  6037  0A8B  00A6               	movwf	i1___flmul@a+2
  6038  0A8C  0871               	movf	?i1___xxtofl+1,w
  6039  0A8D  00A5               	movwf	i1___flmul@a+1
  6040  0A8E  0870               	movf	?i1___xxtofl,w
  6041  0A8F  00A4               	movwf	i1___flmul@a
  6042  0A90  303D               	movlw	61
  6043  0A91  00A3               	movwf	i1___flmul@b+3
  6044  0A92  3048               	movlw	72
  6045  0A93  00A2               	movwf	i1___flmul@b+2
  6046  0A94  30B4               	movlw	180
  6047  0A95  00A1               	movwf	i1___flmul@b+1
  6048  0A96  3039               	movlw	57
  6049  0A97  00A0               	movwf	i1___flmul@b
  6050  0A98  120A  118A  23AC  120A  158A  	fcall	i1___flmul
  6051  0A9D  1283               	bcf	3,5	;RP0=0, select bank0
  6052  0A9E  1303               	bcf	3,6	;RP1=0, select bank0
  6053  0A9F  0823               	movf	?i1___flmul+3,w
  6054  0AA0  00C1               	movwf	i1___fladd@a+3
  6055  0AA1  0822               	movf	?i1___flmul+2,w
  6056  0AA2  00C0               	movwf	i1___fladd@a+2
  6057  0AA3  0821               	movf	?i1___flmul+1,w
  6058  0AA4  00BF               	movwf	i1___fladd@a+1
  6059  0AA5  0820               	movf	?i1___flmul,w
  6060  0AA6  00BE               	movwf	i1___fladd@a
  6061  0AA7  3040               	movlw	64
  6062  0AA8  00BD               	movwf	i1___fladd@b+3
  6063  0AA9  30E0               	movlw	224
  6064  0AAA  00BC               	movwf	i1___fladd@b+2
  6065  0AAB  3000               	movlw	0
  6066  0AAC  00BB               	movwf	i1___fladd@b+1
  6067  0AAD  3000               	movlw	0
  6068  0AAE  00BA               	movwf	i1___fladd@b
  6069  0AAF  120A  158A  22F0  120A  158A  	fcall	i1___fladd
  6070  0AB4  1283               	bcf	3,5	;RP0=0, select bank0
  6071  0AB5  1303               	bcf	3,6	;RP1=0, select bank0
  6072  0AB6  083D               	movf	?i1___fladd+3,w
  6073  0AB7  00D1               	movwf	i1___fltol@f1+3
  6074  0AB8  083C               	movf	?i1___fladd+2,w
  6075  0AB9  00D0               	movwf	i1___fltol@f1+2
  6076  0ABA  083B               	movf	?i1___fladd+1,w
  6077  0ABB  00CF               	movwf	i1___fltol@f1+1
  6078  0ABC  083A               	movf	?i1___fladd,w
  6079  0ABD  00CE               	movwf	i1___fltol@f1
  6080  0ABE  160A  118A  237C  120A  158A  	fcall	i1___fltol
  6081  0AC3  1283               	bcf	3,5	;RP0=0, select bank0
  6082  0AC4  1303               	bcf	3,6	;RP1=0, select bank0
  6083  0AC5  084E               	movf	?i1___fltol,w
  6084  0AC6  00DD               	movwf	??i1_canales+4
  6085  0AC7  085D               	movf	??i1_canales+4,w
  6086  0AC8  00EE               	movwf	_POT3
  6087  0AC9                     i1l2674:
  6088                           
  6089                           ;Mainfinal2.c: 290:                 ADCON0bits.CHS = 0;
  6090  0AC9  30C3               	movlw	-61
  6091  0ACA  059F               	andwf	31,f	;volatile
  6092  0ACB                     i1l2676:
  6093                           
  6094                           ;Mainfinal2.c: 291:                 _delay((unsigned long)((250)*(4000000/4000000.0)));
  6095  0ACB  3052               	movlw	82
  6096  0ACC  1283               	bcf	3,5	;RP0=0, select bank0
  6097  0ACD  1303               	bcf	3,6	;RP1=0, select bank0
  6098  0ACE  00D9               	movwf	??i1_canales
  6099  0ACF                     u509_27:
  6100  0ACF  0BD9               	decfsz	??i1_canales,f
  6101  0AD0  2ACF               	goto	u509_27
  6102  0AD1  0000               	nop
  6103  0AD2                     i1l2678:
  6104                           
  6105                           ;Mainfinal2.c: 292:                 ADCON0bits.GO = 1;
  6106  0AD2  1283               	bcf	3,5	;RP0=0, select bank0
  6107  0AD3  1303               	bcf	3,6	;RP1=0, select bank0
  6108  0AD4  149F               	bsf	31,1	;volatile
  6109                           
  6110                           ;Mainfinal2.c: 293:                 break;
  6111  0AD5  2AEF               	goto	i1l198
  6112  0AD6                     i1l2682:
  6113  0AD6  0C1F               	rrf	31,w	;volatile
  6114  0AD7  00D9               	movwf	??i1_canales
  6115  0AD8  0C59               	rrf	??i1_canales,w
  6116  0AD9  390F               	andlw	15
  6117  0ADA  00DA               	movwf	??i1_canales+1
  6118  0ADB  01DB               	clrf	??i1_canales+2
  6119                           
  6120                           ; Switch on 2 bytes has been partitioned into a top level switch of size 1, and 1 sub-sw
      +                          itches
  6121                           ; Switch size 1, requested type "simple"
  6122                           ; Number of cases is 1, Range of values is 0 to 0
  6123                           ; switch strategies available:
  6124                           ; Name         Instructions Cycles
  6125                           ; simple_byte            4     3 (average)
  6126                           ; direct_byte           11     8 (fixed)
  6127                           ; jumptable            260     6 (fixed)
  6128                           ;	Chosen strategy is simple_byte
  6129  0ADC  085B               	movf	??i1_canales+2,w
  6130  0ADD  3A00               	xorlw	0	; case 0
  6131  0ADE  1903               	skipnz
  6132  0ADF  2AE1               	goto	i1l3564
  6133  0AE0  2AEF               	goto	i1l198
  6134  0AE1                     i1l3564:
  6135                           
  6136                           ; Switch size 1, requested type "simple"
  6137                           ; Number of cases is 4, Range of values is 0 to 3
  6138                           ; switch strategies available:
  6139                           ; Name         Instructions Cycles
  6140                           ; simple_byte           13     7 (average)
  6141                           ; direct_byte           20     8 (fixed)
  6142                           ; jumptable            260     6 (fixed)
  6143                           ;	Chosen strategy is simple_byte
  6144  0AE1  085A               	movf	??i1_canales+1,w
  6145  0AE2  3A00               	xorlw	0	; case 0
  6146  0AE3  1903               	skipnz
  6147  0AE4  2924               	goto	i1l2644
  6148  0AE5  3A01               	xorlw	1	; case 1
  6149  0AE6  1903               	skipnz
  6150  0AE7  2993               	goto	i1l2654
  6151  0AE8  3A03               	xorlw	3	; case 2
  6152  0AE9  1903               	skipnz
  6153  0AEA  2A00               	goto	i1l2662
  6154  0AEB  3A01               	xorlw	1	; case 3
  6155  0AEC  1903               	skipnz
  6156  0AED  2A6F               	goto	i1l2672
  6157  0AEE  2AEF               	goto	i1l198
  6158  0AEF                     i1l198:
  6159  0AEF  0008               	return
  6160  0AF0                     __end_ofi1_canales:
  6161                           
  6162                           	psect	text15
  6163  0863                     __ptext15:	
  6164 ;; *************** function i1___xxtofl *****************
  6165 ;; Defined at:
  6166 ;;		line 10 in file "C:\Program Files\Microchip\xc8\v2.31\pic\sources\c90\common\xxtofl.c"
  6167 ;; Parameters:    Size  Location     Type
  6168 ;;  sign            1    wreg     unsigned char 
  6169 ;;  val             4    0[COMMON] long 
  6170 ;; Auto vars:     Size  Location     Type
  6171 ;;  sign            1    8[COMMON] unsigned char 
  6172 ;;  arg             4   10[COMMON] unsigned long 
  6173 ;;  exp             1    9[COMMON] unsigned char 
  6174 ;; Return value:  Size  Location     Type
  6175 ;;                  4    0[COMMON] unsigned char 
  6176 ;; Registers used:
  6177 ;;		wreg, status,2, status,0
  6178 ;; Tracked objects:
  6179 ;;		On entry : 0/0
  6180 ;;		On exit  : 0/0
  6181 ;;		Unchanged: 0/0
  6182 ;; Data sizes:     COMMON   BANK0   BANK1   BANK3   BANK2
  6183 ;;      Params:         4       0       0       0       0
  6184 ;;      Locals:         6       0       0       0       0
  6185 ;;      Temps:          4       0       0       0       0
  6186 ;;      Totals:        14       0       0       0       0
  6187 ;;Total ram usage:       14 bytes
  6188 ;; Hardware stack levels used:    1
  6189 ;; This function calls:
  6190 ;;		Nothing
  6191 ;; This function is called by:
  6192 ;;		i1_canales
  6193 ;; This function uses a non-reentrant model
  6194 ;;
  6195                           
  6196                           
  6197                           ;psect for function i1___xxtofl
  6198  0863                     i1___xxtofl:
  6199                           
  6200                           ;incstack = 0
  6201 ;; hardware stack exceeded
  6202                           ; Regs used in i1___xxtofl: [wreg+status,2+status,0]
  6203                           ;i1___xxtofl@sign stored from wreg
  6204  0863  00F8               	movwf	i1___xxtofl@sign
  6205  0864                     i1l2582:
  6206  0864  0878               	movf	i1___xxtofl@sign,w
  6207  0865  1903               	btfsc	3,2
  6208  0866  2868               	goto	u344_21
  6209  0867  2869               	goto	u344_20
  6210  0868                     u344_21:
  6211  0868  287D               	goto	i1l2588
  6212  0869                     u344_20:
  6213  0869                     i1l2584:
  6214  0869  1FF3               	btfss	i1___xxtofl@val+3,7
  6215  086A  286C               	goto	u345_21
  6216  086B  286D               	goto	u345_20
  6217  086C                     u345_21:
  6218  086C  287D               	goto	i1l2588
  6219  086D                     u345_20:
  6220  086D                     i1l2586:
  6221  086D  0970               	comf	i1___xxtofl@val,w
  6222  086E  00FA               	movwf	i1___xxtofl@arg
  6223  086F  0971               	comf	i1___xxtofl@val+1,w
  6224  0870  00FB               	movwf	i1___xxtofl@arg+1
  6225  0871  0972               	comf	i1___xxtofl@val+2,w
  6226  0872  00FC               	movwf	i1___xxtofl@arg+2
  6227  0873  0973               	comf	i1___xxtofl@val+3,w
  6228  0874  00FD               	movwf	i1___xxtofl@arg+3
  6229  0875  0AFA               	incf	i1___xxtofl@arg,f
  6230  0876  1903               	skipnz
  6231  0877  0AFB               	incf	i1___xxtofl@arg+1,f
  6232  0878  1903               	skipnz
  6233  0879  0AFC               	incf	i1___xxtofl@arg+2,f
  6234  087A  1903               	skipnz
  6235  087B  0AFD               	incf	i1___xxtofl@arg+3,f
  6236  087C  2885               	goto	i1l767
  6237  087D                     i1l2588:
  6238  087D  0873               	movf	i1___xxtofl@val+3,w
  6239  087E  00FD               	movwf	i1___xxtofl@arg+3
  6240  087F  0872               	movf	i1___xxtofl@val+2,w
  6241  0880  00FC               	movwf	i1___xxtofl@arg+2
  6242  0881  0871               	movf	i1___xxtofl@val+1,w
  6243  0882  00FB               	movwf	i1___xxtofl@arg+1
  6244  0883  0870               	movf	i1___xxtofl@val,w
  6245  0884  00FA               	movwf	i1___xxtofl@arg
  6246  0885                     i1l767:
  6247  0885  0873               	movf	i1___xxtofl@val+3,w
  6248  0886  0472               	iorwf	i1___xxtofl@val+2,w
  6249  0887  0471               	iorwf	i1___xxtofl@val+1,w
  6250  0888  0470               	iorwf	i1___xxtofl@val,w
  6251  0889  1D03               	skipz
  6252  088A  288C               	goto	u346_21
  6253  088B  288D               	goto	u346_20
  6254  088C                     u346_21:
  6255  088C  2896               	goto	i1l2594
  6256  088D                     u346_20:
  6257  088D                     i1l2590:
  6258  088D  3000               	movlw	0
  6259  088E  00F3               	movwf	?i1___xxtofl+3
  6260  088F  3000               	movlw	0
  6261  0890  00F2               	movwf	?i1___xxtofl+2
  6262  0891  3000               	movlw	0
  6263  0892  00F1               	movwf	?i1___xxtofl+1
  6264  0893  3000               	movlw	0
  6265  0894  00F0               	movwf	?i1___xxtofl
  6266  0895  291C               	goto	i1l769
  6267  0896                     i1l2594:
  6268  0896  3096               	movlw	150
  6269  0897  00F4               	movwf	??i1___xxtofl
  6270  0898  0874               	movf	??i1___xxtofl,w
  6271  0899  00F9               	movwf	i1___xxtofl@exp
  6272  089A  28A8               	goto	i1l2598
  6273  089B                     i1l2596:
  6274  089B  3001               	movlw	1
  6275  089C  00F4               	movwf	??i1___xxtofl
  6276  089D  0874               	movf	??i1___xxtofl,w
  6277  089E  07F9               	addwf	i1___xxtofl@exp,f
  6278  089F  3001               	movlw	1
  6279  08A0                     u347_25:
  6280  08A0  1003               	clrc
  6281  08A1  0CFD               	rrf	i1___xxtofl@arg+3,f
  6282  08A2  0CFC               	rrf	i1___xxtofl@arg+2,f
  6283  08A3  0CFB               	rrf	i1___xxtofl@arg+1,f
  6284  08A4  0CFA               	rrf	i1___xxtofl@arg,f
  6285  08A5  3EFF               	addlw	-1
  6286  08A6  1D03               	skipz
  6287  08A7  28A0               	goto	u347_25
  6288  08A8                     i1l2598:
  6289  08A8  30FE               	movlw	254
  6290  08A9  057D               	andwf	i1___xxtofl@arg+3,w
  6291  08AA  1D03               	btfss	3,2
  6292  08AB  28AD               	goto	u348_21
  6293  08AC  28AE               	goto	u348_20
  6294  08AD                     u348_21:
  6295  08AD  289B               	goto	i1l2596
  6296  08AE                     u348_20:
  6297  08AE  28CA               	goto	i1l773
  6298  08AF                     i1l2600:
  6299  08AF  3001               	movlw	1
  6300  08B0  00F4               	movwf	??i1___xxtofl
  6301  08B1  0874               	movf	??i1___xxtofl,w
  6302  08B2  07F9               	addwf	i1___xxtofl@exp,f
  6303  08B3                     i1l2602:
  6304  08B3  3001               	movlw	1
  6305  08B4  07FA               	addwf	i1___xxtofl@arg,f
  6306  08B5  3000               	movlw	0
  6307  08B6  1803               	skipnc
  6308  08B7  3001               	movlw	1
  6309  08B8  07FB               	addwf	i1___xxtofl@arg+1,f
  6310  08B9  3000               	movlw	0
  6311  08BA  1803               	skipnc
  6312  08BB  3001               	movlw	1
  6313  08BC  07FC               	addwf	i1___xxtofl@arg+2,f
  6314  08BD  3000               	movlw	0
  6315  08BE  1803               	skipnc
  6316  08BF  3001               	movlw	1
  6317  08C0  07FD               	addwf	i1___xxtofl@arg+3,f
  6318  08C1                     i1l2604:
  6319  08C1  3001               	movlw	1
  6320  08C2                     u349_25:
  6321  08C2  1003               	clrc
  6322  08C3  0CFD               	rrf	i1___xxtofl@arg+3,f
  6323  08C4  0CFC               	rrf	i1___xxtofl@arg+2,f
  6324  08C5  0CFB               	rrf	i1___xxtofl@arg+1,f
  6325  08C6  0CFA               	rrf	i1___xxtofl@arg,f
  6326  08C7  3EFF               	addlw	-1
  6327  08C8  1D03               	skipz
  6328  08C9  28C2               	goto	u349_25
  6329  08CA                     i1l773:
  6330  08CA  30FF               	movlw	255
  6331  08CB  057D               	andwf	i1___xxtofl@arg+3,w
  6332  08CC  1D03               	btfss	3,2
  6333  08CD  28CF               	goto	u350_21
  6334  08CE  28D0               	goto	u350_20
  6335  08CF                     u350_21:
  6336  08CF  28AF               	goto	i1l2600
  6337  08D0                     u350_20:
  6338  08D0  28DC               	goto	i1l2608
  6339  08D1                     i1l2606:
  6340  08D1  3001               	movlw	1
  6341  08D2  02F9               	subwf	i1___xxtofl@exp,f
  6342  08D3  3001               	movlw	1
  6343  08D4  00F4               	movwf	??i1___xxtofl
  6344  08D5                     u351_25:
  6345  08D5  1003               	clrc
  6346  08D6  0DFA               	rlf	i1___xxtofl@arg,f
  6347  08D7  0DFB               	rlf	i1___xxtofl@arg+1,f
  6348  08D8  0DFC               	rlf	i1___xxtofl@arg+2,f
  6349  08D9  0DFD               	rlf	i1___xxtofl@arg+3,f
  6350  08DA  0BF4               	decfsz	??i1___xxtofl,f
  6351  08DB  28D5               	goto	u351_25
  6352  08DC                     i1l2608:
  6353  08DC  1BFC               	btfsc	i1___xxtofl@arg+2,7
  6354  08DD  28DF               	goto	u352_21
  6355  08DE  28E0               	goto	u352_20
  6356  08DF                     u352_21:
  6357  08DF  28E6               	goto	i1l780
  6358  08E0                     u352_20:
  6359  08E0                     i1l2610:
  6360  08E0  3002               	movlw	2
  6361  08E1  0279               	subwf	i1___xxtofl@exp,w
  6362  08E2  1803               	skipnc
  6363  08E3  28E5               	goto	u353_21
  6364  08E4  28E6               	goto	u353_20
  6365  08E5                     u353_21:
  6366  08E5  28D1               	goto	i1l2606
  6367  08E6                     u353_20:
  6368  08E6                     i1l780:
  6369  08E6  1879               	btfsc	i1___xxtofl@exp,0
  6370  08E7  28E9               	goto	u354_21
  6371  08E8  28EA               	goto	u354_20
  6372  08E9                     u354_21:
  6373  08E9  28F2               	goto	i1l781
  6374  08EA                     u354_20:
  6375  08EA                     i1l2612:
  6376  08EA  30FF               	movlw	255
  6377  08EB  05FA               	andwf	i1___xxtofl@arg,f
  6378  08EC  30FF               	movlw	255
  6379  08ED  05FB               	andwf	i1___xxtofl@arg+1,f
  6380  08EE  307F               	movlw	127
  6381  08EF  05FC               	andwf	i1___xxtofl@arg+2,f
  6382  08F0  30FF               	movlw	255
  6383  08F1  05FD               	andwf	i1___xxtofl@arg+3,f
  6384  08F2                     i1l781:
  6385  08F2  1003               	clrc
  6386  08F3  0CF9               	rrf	i1___xxtofl@exp,f
  6387  08F4                     i1l2614:
  6388  08F4  0879               	movf	i1___xxtofl@exp,w
  6389  08F5  00F4               	movwf	??i1___xxtofl
  6390  08F6  01F5               	clrf	??i1___xxtofl+1
  6391  08F7  01F6               	clrf	??i1___xxtofl+2
  6392  08F8  01F7               	clrf	??i1___xxtofl+3
  6393  08F9  3018               	movlw	24
  6394  08FA                     u355_25:
  6395  08FA  1003               	clrc
  6396  08FB  0DF4               	rlf	??i1___xxtofl,f
  6397  08FC  0DF5               	rlf	??i1___xxtofl+1,f
  6398  08FD  0DF6               	rlf	??i1___xxtofl+2,f
  6399  08FE  0DF7               	rlf	??i1___xxtofl+3,f
  6400  08FF                     u355_20:
  6401  08FF  3EFF               	addlw	-1
  6402  0900  1D03               	skipz
  6403  0901  28FA               	goto	u355_25
  6404  0902  0874               	movf	??i1___xxtofl,w
  6405  0903  04FA               	iorwf	i1___xxtofl@arg,f
  6406  0904  0875               	movf	??i1___xxtofl+1,w
  6407  0905  04FB               	iorwf	i1___xxtofl@arg+1,f
  6408  0906  0876               	movf	??i1___xxtofl+2,w
  6409  0907  04FC               	iorwf	i1___xxtofl@arg+2,f
  6410  0908  0877               	movf	??i1___xxtofl+3,w
  6411  0909  04FD               	iorwf	i1___xxtofl@arg+3,f
  6412  090A                     i1l2616:
  6413  090A  0878               	movf	i1___xxtofl@sign,w
  6414  090B  1903               	btfsc	3,2
  6415  090C  290E               	goto	u356_21
  6416  090D  290F               	goto	u356_20
  6417  090E                     u356_21:
  6418  090E  2914               	goto	i1l2622
  6419  090F                     u356_20:
  6420  090F                     i1l2618:
  6421  090F  1FF3               	btfss	i1___xxtofl@val+3,7
  6422  0910  2912               	goto	u357_21
  6423  0911  2913               	goto	u357_20
  6424  0912                     u357_21:
  6425  0912  2914               	goto	i1l2622
  6426  0913                     u357_20:
  6427  0913                     i1l2620:
  6428  0913  17FD               	bsf	i1___xxtofl@arg+3,7
  6429  0914                     i1l2622:
  6430  0914  087D               	movf	i1___xxtofl@arg+3,w
  6431  0915  00F3               	movwf	?i1___xxtofl+3
  6432  0916  087C               	movf	i1___xxtofl@arg+2,w
  6433  0917  00F2               	movwf	?i1___xxtofl+2
  6434  0918  087B               	movf	i1___xxtofl@arg+1,w
  6435  0919  00F1               	movwf	?i1___xxtofl+1
  6436  091A  087A               	movf	i1___xxtofl@arg,w
  6437  091B  00F0               	movwf	?i1___xxtofl
  6438  091C                     i1l769:
  6439  091C  0008               	return
  6440  091D                     __end_ofi1___xxtofl:
  6441                           
  6442                           	psect	text16
  6443  137C                     __ptext16:	
  6444 ;; *************** function i1___fltol *****************
  6445 ;; Defined at:
  6446 ;;		line 43 in file "C:\Program Files\Microchip\xc8\v2.31\pic\sources\c90\common\fltol.c"
  6447 ;; Parameters:    Size  Location     Type
  6448 ;;  f1              4   46[BANK0 ] unsigned char 
  6449 ;; Auto vars:     Size  Location     Type
  6450 ;;  exp1            1   56[BANK0 ] unsigned char 
  6451 ;;  sign1           1   55[BANK0 ] unsigned char 
  6452 ;; Return value:  Size  Location     Type
  6453 ;;                  4   46[BANK0 ] long 
  6454 ;; Registers used:
  6455 ;;		wreg, status,2, status,0
  6456 ;; Tracked objects:
  6457 ;;		On entry : 0/0
  6458 ;;		On exit  : 0/0
  6459 ;;		Unchanged: 0/0
  6460 ;; Data sizes:     COMMON   BANK0   BANK1   BANK3   BANK2
  6461 ;;      Params:         0       4       0       0       0
  6462 ;;      Locals:         0       2       0       0       0
  6463 ;;      Temps:          0       5       0       0       0
  6464 ;;      Totals:         0      11       0       0       0
  6465 ;;Total ram usage:       11 bytes
  6466 ;; Hardware stack levels used:    1
  6467 ;; This function calls:
  6468 ;;		Nothing
  6469 ;; This function is called by:
  6470 ;;		i1_canales
  6471 ;; This function uses a non-reentrant model
  6472 ;;
  6473                           
  6474                           
  6475                           ;psect for function i1___fltol
  6476  137C                     i1___fltol:
  6477  137C                     i1l2212:	
  6478                           ;incstack = 0
  6479 ;; hardware stack exceeded
  6480                           ; Regs used in i1___fltol: [wreg+status,2+status,0]
  6481                           
  6482  137C  1003               	clrc
  6483  137D  1283               	bcf	3,5	;RP0=0, select bank0
  6484  137E  1303               	bcf	3,6	;RP1=0, select bank0
  6485  137F  0D50               	rlf	i1___fltol@f1+2,w
  6486  1380  0D51               	rlf	i1___fltol@f1+3,w
  6487  1381  00D2               	movwf	??i1___fltol
  6488  1382  0852               	movf	??i1___fltol,w
  6489  1383  00D8               	movwf	i1___fltol@exp1
  6490  1384  0858               	movf	i1___fltol@exp1,w
  6491  1385  1D03               	btfss	3,2
  6492  1386  2B88               	goto	u251_21
  6493  1387  2B89               	goto	u251_20
  6494  1388                     u251_21:
  6495  1388  2B92               	goto	i1l2218
  6496  1389                     u251_20:
  6497  1389                     i1l2214:
  6498  1389  3000               	movlw	0
  6499  138A  00D1               	movwf	?i1___fltol+3
  6500  138B  3000               	movlw	0
  6501  138C  00D0               	movwf	?i1___fltol+2
  6502  138D  3000               	movlw	0
  6503  138E  00CF               	movwf	?i1___fltol+1
  6504  138F  3000               	movlw	0
  6505  1390  00CE               	movwf	?i1___fltol
  6506  1391  2BF7               	goto	i1l520
  6507  1392                     i1l2218:
  6508  1392  084E               	movf	i1___fltol@f1,w
  6509  1393  00D2               	movwf	??i1___fltol
  6510  1394  084F               	movf	i1___fltol@f1+1,w
  6511  1395  00D3               	movwf	??i1___fltol+1
  6512  1396  0850               	movf	i1___fltol@f1+2,w
  6513  1397  00D4               	movwf	??i1___fltol+2
  6514  1398  0851               	movf	i1___fltol@f1+3,w
  6515  1399  00D5               	movwf	??i1___fltol+3
  6516  139A  301F               	movlw	31
  6517  139B                     u252_25:
  6518  139B  1003               	clrc
  6519  139C  0CD5               	rrf	??i1___fltol+3,f
  6520  139D  0CD4               	rrf	??i1___fltol+2,f
  6521  139E  0CD3               	rrf	??i1___fltol+1,f
  6522  139F  0CD2               	rrf	??i1___fltol,f
  6523  13A0                     u252_20:
  6524  13A0  3EFF               	addlw	-1
  6525  13A1  1D03               	skipz
  6526  13A2  2B9B               	goto	u252_25
  6527  13A3  0852               	movf	??i1___fltol,w
  6528  13A4  00D6               	movwf	??i1___fltol+4
  6529  13A5  0856               	movf	??i1___fltol+4,w
  6530  13A6  00D7               	movwf	i1___fltol@sign1
  6531  13A7                     i1l2220:
  6532  13A7  17D0               	bsf	i1___fltol@f1+2,7
  6533  13A8                     i1l2222:
  6534  13A8  30FF               	movlw	255
  6535  13A9  05CE               	andwf	i1___fltol@f1,f
  6536  13AA  30FF               	movlw	255
  6537  13AB  05CF               	andwf	i1___fltol@f1+1,f
  6538  13AC  30FF               	movlw	255
  6539  13AD  05D0               	andwf	i1___fltol@f1+2,f
  6540  13AE  3000               	movlw	0
  6541  13AF  05D1               	andwf	i1___fltol@f1+3,f
  6542  13B0                     i1l2224:
  6543  13B0  3096               	movlw	150
  6544  13B1  02D8               	subwf	i1___fltol@exp1,f
  6545  13B2                     i1l2226:
  6546  13B2  1FD8               	btfss	i1___fltol@exp1,7
  6547  13B3  2BB5               	goto	u253_21
  6548  13B4  2BB6               	goto	u253_20
  6549  13B5                     u253_21:
  6550  13B5  2BD0               	goto	i1l2236
  6551  13B6                     u253_20:
  6552  13B6                     i1l2228:
  6553  13B6  0858               	movf	i1___fltol@exp1,w
  6554  13B7  3A80               	xorlw	128
  6555  13B8  3E97               	addlw	151
  6556  13B9  1803               	skipnc
  6557  13BA  2BBC               	goto	u254_21
  6558  13BB  2BBD               	goto	u254_20
  6559  13BC                     u254_21:
  6560  13BC  2BBE               	goto	i1l2234
  6561  13BD                     u254_20:
  6562  13BD  2B89               	goto	i1l2214
  6563  13BE                     i1l2234:
  6564  13BE  3001               	movlw	1
  6565  13BF                     u255_25:
  6566  13BF  1003               	clrc
  6567  13C0  0CD1               	rrf	i1___fltol@f1+3,f
  6568  13C1  0CD0               	rrf	i1___fltol@f1+2,f
  6569  13C2  0CCF               	rrf	i1___fltol@f1+1,f
  6570  13C3  0CCE               	rrf	i1___fltol@f1,f
  6571  13C4  3EFF               	addlw	-1
  6572  13C5  1D03               	skipz
  6573  13C6  2BBF               	goto	u255_25
  6574  13C7  3001               	movlw	1
  6575  13C8  00D2               	movwf	??i1___fltol
  6576  13C9  0852               	movf	??i1___fltol,w
  6577  13CA  07D8               	addwf	i1___fltol@exp1,f
  6578  13CB  1D03               	btfss	3,2
  6579  13CC  2BCE               	goto	u256_21
  6580  13CD  2BCF               	goto	u256_20
  6581  13CE                     u256_21:
  6582  13CE  2BBE               	goto	i1l2234
  6583  13CF                     u256_20:
  6584  13CF  2BE7               	goto	i1l2244
  6585  13D0                     i1l2236:
  6586  13D0  3020               	movlw	32
  6587  13D1  0258               	subwf	i1___fltol@exp1,w
  6588  13D2  1C03               	skipc
  6589  13D3  2BD5               	goto	u257_21
  6590  13D4  2BD6               	goto	u257_20
  6591  13D5                     u257_21:
  6592  13D5  2BE2               	goto	i1l527
  6593  13D6                     u257_20:
  6594  13D6  2B89               	goto	i1l2214
  6595  13D7                     i1l2242:
  6596  13D7  3001               	movlw	1
  6597  13D8  00D2               	movwf	??i1___fltol
  6598  13D9                     u258_25:
  6599  13D9  1003               	clrc
  6600  13DA  0DCE               	rlf	i1___fltol@f1,f
  6601  13DB  0DCF               	rlf	i1___fltol@f1+1,f
  6602  13DC  0DD0               	rlf	i1___fltol@f1+2,f
  6603  13DD  0DD1               	rlf	i1___fltol@f1+3,f
  6604  13DE  0BD2               	decfsz	??i1___fltol,f
  6605  13DF  2BD9               	goto	u258_25
  6606  13E0  3001               	movlw	1
  6607  13E1  02D8               	subwf	i1___fltol@exp1,f
  6608  13E2                     i1l527:
  6609  13E2  0858               	movf	i1___fltol@exp1,w
  6610  13E3  1D03               	btfss	3,2
  6611  13E4  2BE6               	goto	u259_21
  6612  13E5  2BE7               	goto	u259_20
  6613  13E6                     u259_21:
  6614  13E6  2BD7               	goto	i1l2242
  6615  13E7                     u259_20:
  6616  13E7                     i1l2244:
  6617  13E7  0857               	movf	i1___fltol@sign1,w
  6618  13E8  1903               	btfsc	3,2
  6619  13E9  2BEB               	goto	u260_21
  6620  13EA  2BEC               	goto	u260_20
  6621  13EB                     u260_21:
  6622  13EB  2BF7               	goto	i1l530
  6623  13EC                     u260_20:
  6624  13EC                     i1l2246:
  6625  13EC  09CE               	comf	i1___fltol@f1,f
  6626  13ED  09CF               	comf	i1___fltol@f1+1,f
  6627  13EE  09D0               	comf	i1___fltol@f1+2,f
  6628  13EF  09D1               	comf	i1___fltol@f1+3,f
  6629  13F0  0ACE               	incf	i1___fltol@f1,f
  6630  13F1  1903               	skipnz
  6631  13F2  0ACF               	incf	i1___fltol@f1+1,f
  6632  13F3  1903               	skipnz
  6633  13F4  0AD0               	incf	i1___fltol@f1+2,f
  6634  13F5  1903               	skipnz
  6635  13F6  0AD1               	incf	i1___fltol@f1+3,f
  6636  13F7                     i1l530:
  6637  13F7                     i1l520:
  6638  13F7  0008               	return
  6639  13F8                     __end_ofi1___fltol:
  6640                           
  6641                           	psect	text17
  6642  03AC                     __ptext17:	
  6643 ;; *************** function i1___flmul *****************
  6644 ;; Defined at:
  6645 ;;		line 8 in file "C:\Program Files\Microchip\xc8\v2.31\pic\sources\c90\common\sprcmul.c"
  6646 ;; Parameters:    Size  Location     Type
  6647 ;;  b               4    0[BANK0 ] long 
  6648 ;;  a               4    4[BANK0 ] long 
  6649 ;; Auto vars:     Size  Location     Type
  6650 ;;  prod            4   20[BANK0 ] struct .
  6651 ;;  grs             4   14[BANK0 ] unsigned long 
  6652 ;;  temp            2   24[BANK0 ] struct .
  6653 ;;  bexp            1   19[BANK0 ] unsigned char 
  6654 ;;  aexp            1   18[BANK0 ] unsigned char 
  6655 ;;  sign            1   13[BANK0 ] unsigned char 
  6656 ;; Return value:  Size  Location     Type
  6657 ;;                  4    0[BANK0 ] unsigned char 
  6658 ;; Registers used:
  6659 ;;		wreg, status,2, status,0, btemp+1, pclath, cstack
  6660 ;; Tracked objects:
  6661 ;;		On entry : 0/0
  6662 ;;		On exit  : 0/0
  6663 ;;		Unchanged: 0/0
  6664 ;; Data sizes:     COMMON   BANK0   BANK1   BANK3   BANK2
  6665 ;;      Params:         0       8       0       0       0
  6666 ;;      Locals:         0      13       0       0       0
  6667 ;;      Temps:          0       5       0       0       0
  6668 ;;      Totals:         0      26       0       0       0
  6669 ;;Total ram usage:       26 bytes
  6670 ;; Hardware stack levels used:    1
  6671 ;; Hardware stack levels required when called:    1
  6672 ;; This function calls:
  6673 ;;		i1__Umul8_16
  6674 ;; This function is called by:
  6675 ;;		i1_canales
  6676 ;; This function uses a non-reentrant model
  6677 ;;
  6678                           
  6679                           
  6680                           ;psect for function i1___flmul
  6681  03AC                     i1___flmul:
  6682  03AC                     i1l2442:	
  6683                           ;incstack = 0
  6684 ;; hardware stack exceeded
  6685                           ; Regs used in i1___flmul: [wreg+status,2+status,0+btemp+1+pclath+cstack]
  6686                           
  6687  03AC  1283               	bcf	3,5	;RP0=0, select bank0
  6688  03AD  1303               	bcf	3,6	;RP1=0, select bank0
  6689  03AE  0823               	movf	i1___flmul@b+3,w
  6690  03AF  3980               	andlw	128
  6691  03B0  00A8               	movwf	??i1___flmul
  6692  03B1  0828               	movf	??i1___flmul,w
  6693  03B2  00AD               	movwf	i1___flmul@sign
  6694  03B3                     i1l2444:
  6695  03B3  0823               	movf	i1___flmul@b+3,w
  6696  03B4  00A8               	movwf	??i1___flmul
  6697  03B5  0728               	addwf	??i1___flmul,w
  6698  03B6  00A9               	movwf	??i1___flmul+1
  6699  03B7  0829               	movf	??i1___flmul+1,w
  6700  03B8  00B3               	movwf	i1___flmul@bexp
  6701  03B9                     i1l2446:
  6702  03B9  1FA2               	btfss	i1___flmul@b+2,7
  6703  03BA  2BBC               	goto	u307_21
  6704  03BB  2BBD               	goto	u307_20
  6705  03BC                     u307_21:
  6706  03BC  2BBE               	goto	i1l2450
  6707  03BD                     u307_20:
  6708  03BD                     i1l2448:
  6709  03BD  1433               	bsf	i1___flmul@bexp,0
  6710  03BE                     i1l2450:
  6711  03BE  0833               	movf	i1___flmul@bexp,w
  6712  03BF  1903               	btfsc	3,2
  6713  03C0  2BC2               	goto	u308_21
  6714  03C1  2BC3               	goto	u308_20
  6715  03C2                     u308_21:
  6716  03C2  2BD2               	goto	i1l2458
  6717  03C3                     u308_20:
  6718  03C3                     i1l2452:
  6719  03C3  0A33               	incf	i1___flmul@bexp,w
  6720  03C4  1D03               	btfss	3,2
  6721  03C5  2BC7               	goto	u309_21
  6722  03C6  2BC8               	goto	u309_20
  6723  03C7                     u309_21:
  6724  03C7  2BD0               	goto	i1l2456
  6725  03C8                     u309_20:
  6726  03C8                     i1l2454:
  6727  03C8  3000               	movlw	0
  6728  03C9  00A3               	movwf	i1___flmul@b+3
  6729  03CA  3000               	movlw	0
  6730  03CB  00A2               	movwf	i1___flmul@b+2
  6731  03CC  3000               	movlw	0
  6732  03CD  00A1               	movwf	i1___flmul@b+1
  6733  03CE  3000               	movlw	0
  6734  03CF  00A0               	movwf	i1___flmul@b
  6735  03D0                     i1l2456:
  6736  03D0  17A2               	bsf	i1___flmul@b+2,7
  6737  03D1  2BDA               	goto	i1l2460
  6738  03D2                     i1l2458:
  6739  03D2  3000               	movlw	0
  6740  03D3  00A3               	movwf	i1___flmul@b+3
  6741  03D4  3000               	movlw	0
  6742  03D5  00A2               	movwf	i1___flmul@b+2
  6743  03D6  3000               	movlw	0
  6744  03D7  00A1               	movwf	i1___flmul@b+1
  6745  03D8  3000               	movlw	0
  6746  03D9  00A0               	movwf	i1___flmul@b
  6747  03DA                     i1l2460:
  6748  03DA  0827               	movf	i1___flmul@a+3,w
  6749  03DB  3980               	andlw	128
  6750  03DC  00A8               	movwf	??i1___flmul
  6751  03DD  0828               	movf	??i1___flmul,w
  6752  03DE  06AD               	xorwf	i1___flmul@sign,f
  6753  03DF                     i1l2462:
  6754  03DF  0827               	movf	i1___flmul@a+3,w
  6755  03E0  00A8               	movwf	??i1___flmul
  6756  03E1  0728               	addwf	??i1___flmul,w
  6757  03E2  00A9               	movwf	??i1___flmul+1
  6758  03E3  0829               	movf	??i1___flmul+1,w
  6759  03E4  00B2               	movwf	i1___flmul@aexp
  6760  03E5                     i1l2464:
  6761  03E5  1FA6               	btfss	i1___flmul@a+2,7
  6762  03E6  2BE8               	goto	u310_21
  6763  03E7  2BE9               	goto	u310_20
  6764  03E8                     u310_21:
  6765  03E8  2BEA               	goto	i1l2468
  6766  03E9                     u310_20:
  6767  03E9                     i1l2466:
  6768  03E9  1432               	bsf	i1___flmul@aexp,0
  6769  03EA                     i1l2468:
  6770  03EA  0832               	movf	i1___flmul@aexp,w
  6771  03EB  1903               	btfsc	3,2
  6772  03EC  2BEE               	goto	u311_21
  6773  03ED  2BEF               	goto	u311_20
  6774  03EE                     u311_21:
  6775  03EE  2BFE               	goto	i1l2476
  6776  03EF                     u311_20:
  6777  03EF                     i1l2470:
  6778  03EF  0A32               	incf	i1___flmul@aexp,w
  6779  03F0  1D03               	btfss	3,2
  6780  03F1  2BF3               	goto	u312_21
  6781  03F2  2BF4               	goto	u312_20
  6782  03F3                     u312_21:
  6783  03F3  2BFC               	goto	i1l2474
  6784  03F4                     u312_20:
  6785  03F4                     i1l2472:
  6786  03F4  3000               	movlw	0
  6787  03F5  00A7               	movwf	i1___flmul@a+3
  6788  03F6  3000               	movlw	0
  6789  03F7  00A6               	movwf	i1___flmul@a+2
  6790  03F8  3000               	movlw	0
  6791  03F9  00A5               	movwf	i1___flmul@a+1
  6792  03FA  3000               	movlw	0
  6793  03FB  00A4               	movwf	i1___flmul@a
  6794  03FC                     i1l2474:
  6795  03FC  17A6               	bsf	i1___flmul@a+2,7
  6796  03FD  2C06               	goto	i1l2478
  6797  03FE                     i1l2476:
  6798  03FE  3000               	movlw	0
  6799  03FF  00A7               	movwf	i1___flmul@a+3
  6800  0400  3000               	movlw	0
  6801  0401  00A6               	movwf	i1___flmul@a+2
  6802  0402  3000               	movlw	0
  6803  0403  00A5               	movwf	i1___flmul@a+1
  6804  0404  3000               	movlw	0
  6805  0405  00A4               	movwf	i1___flmul@a
  6806  0406                     i1l2478:
  6807  0406  0832               	movf	i1___flmul@aexp,w
  6808  0407  1903               	btfsc	3,2
  6809  0408  2C0A               	goto	u313_21
  6810  0409  2C0B               	goto	u313_20
  6811  040A                     u313_21:
  6812  040A  2C10               	goto	i1l2482
  6813  040B                     u313_20:
  6814  040B                     i1l2480:
  6815  040B  0833               	movf	i1___flmul@bexp,w
  6816  040C  1D03               	btfss	3,2
  6817  040D  2C0F               	goto	u314_21
  6818  040E  2C10               	goto	u314_20
  6819  040F                     u314_21:
  6820  040F  2C19               	goto	i1l2486
  6821  0410                     u314_20:
  6822  0410                     i1l2482:
  6823  0410  3000               	movlw	0
  6824  0411  00A3               	movwf	?i1___flmul+3
  6825  0412  3000               	movlw	0
  6826  0413  00A2               	movwf	?i1___flmul+2
  6827  0414  3000               	movlw	0
  6828  0415  00A1               	movwf	?i1___flmul+1
  6829  0416  3000               	movlw	0
  6830  0417  00A0               	movwf	?i1___flmul
  6831  0418  2F0C               	goto	i1l723
  6832  0419                     i1l2486:
  6833  0419  0820               	movf	i1___flmul@b,w
  6834  041A  00A8               	movwf	??i1___flmul
  6835  041B  0828               	movf	??i1___flmul,w
  6836  041C  00F0               	movwf	i1__Umul8_16@multiplicand
  6837  041D  0826               	movf	i1___flmul@a+2,w
  6838  041E  160A  118A  21D1  120A  118A  	fcall	i1__Umul8_16
  6839  0423  0871               	movf	?i1__Umul8_16+1,w
  6840  0424  1283               	bcf	3,5	;RP0=0, select bank0
  6841  0425  1303               	bcf	3,6	;RP1=0, select bank0
  6842  0426  00B9               	movwf	i1___flmul@temp+1
  6843  0427  0870               	movf	?i1__Umul8_16,w
  6844  0428  00B8               	movwf	i1___flmul@temp
  6845  0429                     i1l2488:
  6846  0429  0838               	movf	i1___flmul@temp,w
  6847  042A  00A8               	movwf	??i1___flmul
  6848  042B  01A9               	clrf	??i1___flmul+1
  6849  042C  01AA               	clrf	??i1___flmul+2
  6850  042D  01AB               	clrf	??i1___flmul+3
  6851  042E  082B               	movf	??i1___flmul+3,w
  6852  042F  00B1               	movwf	i1___flmul@grs+3
  6853  0430  082A               	movf	??i1___flmul+2,w
  6854  0431  00B0               	movwf	i1___flmul@grs+2
  6855  0432  0829               	movf	??i1___flmul+1,w
  6856  0433  00AF               	movwf	i1___flmul@grs+1
  6857  0434  0828               	movf	??i1___flmul,w
  6858  0435  00AE               	movwf	i1___flmul@grs
  6859  0436                     i1l2490:
  6860  0436  0839               	movf	i1___flmul@temp+1,w
  6861  0437  00A8               	movwf	??i1___flmul
  6862  0438  01A9               	clrf	??i1___flmul+1
  6863  0439  01AA               	clrf	??i1___flmul+2
  6864  043A  01AB               	clrf	??i1___flmul+3
  6865  043B  082B               	movf	??i1___flmul+3,w
  6866  043C  00B7               	movwf	i1___flmul@prod+3
  6867  043D  082A               	movf	??i1___flmul+2,w
  6868  043E  00B6               	movwf	i1___flmul@prod+2
  6869  043F  0829               	movf	??i1___flmul+1,w
  6870  0440  00B5               	movwf	i1___flmul@prod+1
  6871  0441  0828               	movf	??i1___flmul,w
  6872  0442  00B4               	movwf	i1___flmul@prod
  6873  0443  0821               	movf	i1___flmul@b+1,w
  6874  0444  00A8               	movwf	??i1___flmul
  6875  0445  0828               	movf	??i1___flmul,w
  6876  0446  00F0               	movwf	i1__Umul8_16@multiplicand
  6877  0447  0825               	movf	i1___flmul@a+1,w
  6878  0448  160A  118A  21D1  120A  118A  	fcall	i1__Umul8_16
  6879  044D  0871               	movf	?i1__Umul8_16+1,w
  6880  044E  1283               	bcf	3,5	;RP0=0, select bank0
  6881  044F  1303               	bcf	3,6	;RP1=0, select bank0
  6882  0450  00B9               	movwf	i1___flmul@temp+1
  6883  0451  0870               	movf	?i1__Umul8_16,w
  6884  0452  00B8               	movwf	i1___flmul@temp
  6885  0453                     i1l2492:
  6886  0453  0838               	movf	i1___flmul@temp,w
  6887  0454  00A8               	movwf	??i1___flmul
  6888  0455  01A9               	clrf	??i1___flmul+1
  6889  0456  01AA               	clrf	??i1___flmul+2
  6890  0457  01AB               	clrf	??i1___flmul+3
  6891  0458  0828               	movf	??i1___flmul,w
  6892  0459  07AE               	addwf	i1___flmul@grs,f
  6893  045A  0829               	movf	??i1___flmul+1,w
  6894  045B  1103               	clrz
  6895  045C  1803               	skipnc
  6896  045D  3E01               	addlw	1
  6897  045E  1903               	skipnz
  6898  045F  2C61               	goto	u315_21
  6899  0460  07AF               	addwf	i1___flmul@grs+1,f
  6900  0461                     u315_21:
  6901  0461  082A               	movf	??i1___flmul+2,w
  6902  0462  1103               	clrz
  6903  0463  1803               	skipnc
  6904  0464  3E01               	addlw	1
  6905  0465  1903               	skipnz
  6906  0466  2C68               	goto	u315_22
  6907  0467  07B0               	addwf	i1___flmul@grs+2,f
  6908  0468                     u315_22:
  6909  0468  082B               	movf	??i1___flmul+3,w
  6910  0469  1103               	clrz
  6911  046A  1803               	skipnc
  6912  046B  3E01               	addlw	1
  6913  046C  1903               	skipnz
  6914  046D  2C6F               	goto	u315_23
  6915  046E  07B1               	addwf	i1___flmul@grs+3,f
  6916  046F                     u315_23:
  6917  046F                     i1l2494:
  6918  046F  0839               	movf	i1___flmul@temp+1,w
  6919  0470  00A8               	movwf	??i1___flmul
  6920  0471  01A9               	clrf	??i1___flmul+1
  6921  0472  01AA               	clrf	??i1___flmul+2
  6922  0473  01AB               	clrf	??i1___flmul+3
  6923  0474  0828               	movf	??i1___flmul,w
  6924  0475  07B4               	addwf	i1___flmul@prod,f
  6925  0476  0829               	movf	??i1___flmul+1,w
  6926  0477  1103               	clrz
  6927  0478  1803               	skipnc
  6928  0479  3E01               	addlw	1
  6929  047A  1903               	skipnz
  6930  047B  2C7D               	goto	u316_21
  6931  047C  07B5               	addwf	i1___flmul@prod+1,f
  6932  047D                     u316_21:
  6933  047D  082A               	movf	??i1___flmul+2,w
  6934  047E  1103               	clrz
  6935  047F  1803               	skipnc
  6936  0480  3E01               	addlw	1
  6937  0481  1903               	skipnz
  6938  0482  2C84               	goto	u316_22
  6939  0483  07B6               	addwf	i1___flmul@prod+2,f
  6940  0484                     u316_22:
  6941  0484  082B               	movf	??i1___flmul+3,w
  6942  0485  1103               	clrz
  6943  0486  1803               	skipnc
  6944  0487  3E01               	addlw	1
  6945  0488  1903               	skipnz
  6946  0489  2C8B               	goto	u316_23
  6947  048A  07B7               	addwf	i1___flmul@prod+3,f
  6948  048B                     u316_23:
  6949  048B  0822               	movf	i1___flmul@b+2,w
  6950  048C  00A8               	movwf	??i1___flmul
  6951  048D  0828               	movf	??i1___flmul,w
  6952  048E  00F0               	movwf	i1__Umul8_16@multiplicand
  6953  048F  0824               	movf	i1___flmul@a,w
  6954  0490  160A  118A  21D1  120A  118A  	fcall	i1__Umul8_16
  6955  0495  0871               	movf	?i1__Umul8_16+1,w
  6956  0496  1283               	bcf	3,5	;RP0=0, select bank0
  6957  0497  1303               	bcf	3,6	;RP1=0, select bank0
  6958  0498  00B9               	movwf	i1___flmul@temp+1
  6959  0499  0870               	movf	?i1__Umul8_16,w
  6960  049A  00B8               	movwf	i1___flmul@temp
  6961  049B                     i1l2496:
  6962  049B  0838               	movf	i1___flmul@temp,w
  6963  049C  00A8               	movwf	??i1___flmul
  6964  049D  01A9               	clrf	??i1___flmul+1
  6965  049E  01AA               	clrf	??i1___flmul+2
  6966  049F  01AB               	clrf	??i1___flmul+3
  6967  04A0  0828               	movf	??i1___flmul,w
  6968  04A1  07AE               	addwf	i1___flmul@grs,f
  6969  04A2  0829               	movf	??i1___flmul+1,w
  6970  04A3  1103               	clrz
  6971  04A4  1803               	skipnc
  6972  04A5  3E01               	addlw	1
  6973  04A6  1903               	skipnz
  6974  04A7  2CA9               	goto	u317_21
  6975  04A8  07AF               	addwf	i1___flmul@grs+1,f
  6976  04A9                     u317_21:
  6977  04A9  082A               	movf	??i1___flmul+2,w
  6978  04AA  1103               	clrz
  6979  04AB  1803               	skipnc
  6980  04AC  3E01               	addlw	1
  6981  04AD  1903               	skipnz
  6982  04AE  2CB0               	goto	u317_22
  6983  04AF  07B0               	addwf	i1___flmul@grs+2,f
  6984  04B0                     u317_22:
  6985  04B0  082B               	movf	??i1___flmul+3,w
  6986  04B1  1103               	clrz
  6987  04B2  1803               	skipnc
  6988  04B3  3E01               	addlw	1
  6989  04B4  1903               	skipnz
  6990  04B5  2CB7               	goto	u317_23
  6991  04B6  07B1               	addwf	i1___flmul@grs+3,f
  6992  04B7                     u317_23:
  6993  04B7                     i1l2498:
  6994  04B7  0839               	movf	i1___flmul@temp+1,w
  6995  04B8  00A8               	movwf	??i1___flmul
  6996  04B9  01A9               	clrf	??i1___flmul+1
  6997  04BA  01AA               	clrf	??i1___flmul+2
  6998  04BB  01AB               	clrf	??i1___flmul+3
  6999  04BC  0828               	movf	??i1___flmul,w
  7000  04BD  07B4               	addwf	i1___flmul@prod,f
  7001  04BE  0829               	movf	??i1___flmul+1,w
  7002  04BF  1103               	clrz
  7003  04C0  1803               	skipnc
  7004  04C1  3E01               	addlw	1
  7005  04C2  1903               	skipnz
  7006  04C3  2CC5               	goto	u318_21
  7007  04C4  07B5               	addwf	i1___flmul@prod+1,f
  7008  04C5                     u318_21:
  7009  04C5  082A               	movf	??i1___flmul+2,w
  7010  04C6  1103               	clrz
  7011  04C7  1803               	skipnc
  7012  04C8  3E01               	addlw	1
  7013  04C9  1903               	skipnz
  7014  04CA  2CCC               	goto	u318_22
  7015  04CB  07B6               	addwf	i1___flmul@prod+2,f
  7016  04CC                     u318_22:
  7017  04CC  082B               	movf	??i1___flmul+3,w
  7018  04CD  1103               	clrz
  7019  04CE  1803               	skipnc
  7020  04CF  3E01               	addlw	1
  7021  04D0  1903               	skipnz
  7022  04D1  2CD3               	goto	u318_23
  7023  04D2  07B7               	addwf	i1___flmul@prod+3,f
  7024  04D3                     u318_23:
  7025  04D3                     i1l2500:
  7026  04D3  3008               	movlw	8
  7027  04D4  00A8               	movwf	??i1___flmul
  7028  04D5                     u319_25:
  7029  04D5  1003               	clrc
  7030  04D6  0DAE               	rlf	i1___flmul@grs,f
  7031  04D7  0DAF               	rlf	i1___flmul@grs+1,f
  7032  04D8  0DB0               	rlf	i1___flmul@grs+2,f
  7033  04D9  0DB1               	rlf	i1___flmul@grs+3,f
  7034  04DA  0BA8               	decfsz	??i1___flmul,f
  7035  04DB  2CD5               	goto	u319_25
  7036  04DC                     i1l2502:
  7037  04DC  0821               	movf	i1___flmul@b+1,w
  7038  04DD  00A8               	movwf	??i1___flmul
  7039  04DE  0828               	movf	??i1___flmul,w
  7040  04DF  00F0               	movwf	i1__Umul8_16@multiplicand
  7041  04E0  0824               	movf	i1___flmul@a,w
  7042  04E1  160A  118A  21D1  120A  118A  	fcall	i1__Umul8_16
  7043  04E6  0871               	movf	?i1__Umul8_16+1,w
  7044  04E7  1283               	bcf	3,5	;RP0=0, select bank0
  7045  04E8  1303               	bcf	3,6	;RP1=0, select bank0
  7046  04E9  00B9               	movwf	i1___flmul@temp+1
  7047  04EA  0870               	movf	?i1__Umul8_16,w
  7048  04EB  00B8               	movwf	i1___flmul@temp
  7049  04EC                     i1l2504:
  7050  04EC  0838               	movf	i1___flmul@temp,w
  7051  04ED  00A8               	movwf	??i1___flmul
  7052  04EE  0839               	movf	i1___flmul@temp+1,w
  7053  04EF  00A9               	movwf	??i1___flmul+1
  7054  04F0  01AA               	clrf	??i1___flmul+2
  7055  04F1  01AB               	clrf	??i1___flmul+3
  7056  04F2  0828               	movf	??i1___flmul,w
  7057  04F3  07AE               	addwf	i1___flmul@grs,f
  7058  04F4  0829               	movf	??i1___flmul+1,w
  7059  04F5  1103               	clrz
  7060  04F6  1803               	skipnc
  7061  04F7  3E01               	addlw	1
  7062  04F8  1903               	skipnz
  7063  04F9  2CFB               	goto	u320_21
  7064  04FA  07AF               	addwf	i1___flmul@grs+1,f
  7065  04FB                     u320_21:
  7066  04FB  082A               	movf	??i1___flmul+2,w
  7067  04FC  1103               	clrz
  7068  04FD  1803               	skipnc
  7069  04FE  3E01               	addlw	1
  7070  04FF  1903               	skipnz
  7071  0500  2D02               	goto	u320_22
  7072  0501  07B0               	addwf	i1___flmul@grs+2,f
  7073  0502                     u320_22:
  7074  0502  082B               	movf	??i1___flmul+3,w
  7075  0503  1103               	clrz
  7076  0504  1803               	skipnc
  7077  0505  3E01               	addlw	1
  7078  0506  1903               	skipnz
  7079  0507  2D09               	goto	u320_23
  7080  0508  07B1               	addwf	i1___flmul@grs+3,f
  7081  0509                     u320_23:
  7082  0509                     i1l2506:
  7083  0509  0820               	movf	i1___flmul@b,w
  7084  050A  00A8               	movwf	??i1___flmul
  7085  050B  0828               	movf	??i1___flmul,w
  7086  050C  00F0               	movwf	i1__Umul8_16@multiplicand
  7087  050D  0825               	movf	i1___flmul@a+1,w
  7088  050E  160A  118A  21D1  120A  118A  	fcall	i1__Umul8_16
  7089  0513  0871               	movf	?i1__Umul8_16+1,w
  7090  0514  1283               	bcf	3,5	;RP0=0, select bank0
  7091  0515  1303               	bcf	3,6	;RP1=0, select bank0
  7092  0516  00B9               	movwf	i1___flmul@temp+1
  7093  0517  0870               	movf	?i1__Umul8_16,w
  7094  0518  00B8               	movwf	i1___flmul@temp
  7095  0519                     i1l2508:
  7096  0519  0838               	movf	i1___flmul@temp,w
  7097  051A  00A8               	movwf	??i1___flmul
  7098  051B  0839               	movf	i1___flmul@temp+1,w
  7099  051C  00A9               	movwf	??i1___flmul+1
  7100  051D  01AA               	clrf	??i1___flmul+2
  7101  051E  01AB               	clrf	??i1___flmul+3
  7102  051F  0828               	movf	??i1___flmul,w
  7103  0520  07AE               	addwf	i1___flmul@grs,f
  7104  0521  0829               	movf	??i1___flmul+1,w
  7105  0522  1103               	clrz
  7106  0523  1803               	skipnc
  7107  0524  3E01               	addlw	1
  7108  0525  1903               	skipnz
  7109  0526  2D28               	goto	u321_21
  7110  0527  07AF               	addwf	i1___flmul@grs+1,f
  7111  0528                     u321_21:
  7112  0528  082A               	movf	??i1___flmul+2,w
  7113  0529  1103               	clrz
  7114  052A  1803               	skipnc
  7115  052B  3E01               	addlw	1
  7116  052C  1903               	skipnz
  7117  052D  2D2F               	goto	u321_22
  7118  052E  07B0               	addwf	i1___flmul@grs+2,f
  7119  052F                     u321_22:
  7120  052F  082B               	movf	??i1___flmul+3,w
  7121  0530  1103               	clrz
  7122  0531  1803               	skipnc
  7123  0532  3E01               	addlw	1
  7124  0533  1903               	skipnz
  7125  0534  2D36               	goto	u321_23
  7126  0535  07B1               	addwf	i1___flmul@grs+3,f
  7127  0536                     u321_23:
  7128  0536                     i1l2510:
  7129  0536  3008               	movlw	8
  7130  0537  00A8               	movwf	??i1___flmul
  7131  0538                     u322_25:
  7132  0538  1003               	clrc
  7133  0539  0DAE               	rlf	i1___flmul@grs,f
  7134  053A  0DAF               	rlf	i1___flmul@grs+1,f
  7135  053B  0DB0               	rlf	i1___flmul@grs+2,f
  7136  053C  0DB1               	rlf	i1___flmul@grs+3,f
  7137  053D  0BA8               	decfsz	??i1___flmul,f
  7138  053E  2D38               	goto	u322_25
  7139  053F  0820               	movf	i1___flmul@b,w
  7140  0540  00A8               	movwf	??i1___flmul
  7141  0541  0828               	movf	??i1___flmul,w
  7142  0542  00F0               	movwf	i1__Umul8_16@multiplicand
  7143  0543  0824               	movf	i1___flmul@a,w
  7144  0544  160A  118A  21D1  120A  118A  	fcall	i1__Umul8_16
  7145  0549  0871               	movf	?i1__Umul8_16+1,w
  7146  054A  1283               	bcf	3,5	;RP0=0, select bank0
  7147  054B  1303               	bcf	3,6	;RP1=0, select bank0
  7148  054C  00B9               	movwf	i1___flmul@temp+1
  7149  054D  0870               	movf	?i1__Umul8_16,w
  7150  054E  00B8               	movwf	i1___flmul@temp
  7151  054F                     i1l2512:
  7152  054F  0838               	movf	i1___flmul@temp,w
  7153  0550  00A8               	movwf	??i1___flmul
  7154  0551  0839               	movf	i1___flmul@temp+1,w
  7155  0552  00A9               	movwf	??i1___flmul+1
  7156  0553  01AA               	clrf	??i1___flmul+2
  7157  0554  01AB               	clrf	??i1___flmul+3
  7158  0555  0828               	movf	??i1___flmul,w
  7159  0556  07AE               	addwf	i1___flmul@grs,f
  7160  0557  0829               	movf	??i1___flmul+1,w
  7161  0558  1103               	clrz
  7162  0559  1803               	skipnc
  7163  055A  3E01               	addlw	1
  7164  055B  1903               	skipnz
  7165  055C  2D5E               	goto	u323_21
  7166  055D  07AF               	addwf	i1___flmul@grs+1,f
  7167  055E                     u323_21:
  7168  055E  082A               	movf	??i1___flmul+2,w
  7169  055F  1103               	clrz
  7170  0560  1803               	skipnc
  7171  0561  3E01               	addlw	1
  7172  0562  1903               	skipnz
  7173  0563  2D65               	goto	u323_22
  7174  0564  07B0               	addwf	i1___flmul@grs+2,f
  7175  0565                     u323_22:
  7176  0565  082B               	movf	??i1___flmul+3,w
  7177  0566  1103               	clrz
  7178  0567  1803               	skipnc
  7179  0568  3E01               	addlw	1
  7180  0569  1903               	skipnz
  7181  056A  2D6C               	goto	u323_23
  7182  056B  07B1               	addwf	i1___flmul@grs+3,f
  7183  056C                     u323_23:
  7184  056C                     i1l2514:
  7185  056C  0821               	movf	i1___flmul@b+1,w
  7186  056D  00A8               	movwf	??i1___flmul
  7187  056E  0828               	movf	??i1___flmul,w
  7188  056F  00F0               	movwf	i1__Umul8_16@multiplicand
  7189  0570  0826               	movf	i1___flmul@a+2,w
  7190  0571  160A  118A  21D1  120A  118A  	fcall	i1__Umul8_16
  7191  0576  0871               	movf	?i1__Umul8_16+1,w
  7192  0577  1283               	bcf	3,5	;RP0=0, select bank0
  7193  0578  1303               	bcf	3,6	;RP1=0, select bank0
  7194  0579  00B9               	movwf	i1___flmul@temp+1
  7195  057A  0870               	movf	?i1__Umul8_16,w
  7196  057B  00B8               	movwf	i1___flmul@temp
  7197  057C  0838               	movf	i1___flmul@temp,w
  7198  057D  00A8               	movwf	??i1___flmul
  7199  057E  0839               	movf	i1___flmul@temp+1,w
  7200  057F  00A9               	movwf	??i1___flmul+1
  7201  0580  01AA               	clrf	??i1___flmul+2
  7202  0581  01AB               	clrf	??i1___flmul+3
  7203  0582  0828               	movf	??i1___flmul,w
  7204  0583  07B4               	addwf	i1___flmul@prod,f
  7205  0584  0829               	movf	??i1___flmul+1,w
  7206  0585  1103               	clrz
  7207  0586  1803               	skipnc
  7208  0587  3E01               	addlw	1
  7209  0588  1903               	skipnz
  7210  0589  2D8B               	goto	u324_21
  7211  058A  07B5               	addwf	i1___flmul@prod+1,f
  7212  058B                     u324_21:
  7213  058B  082A               	movf	??i1___flmul+2,w
  7214  058C  1103               	clrz
  7215  058D  1803               	skipnc
  7216  058E  3E01               	addlw	1
  7217  058F  1903               	skipnz
  7218  0590  2D92               	goto	u324_22
  7219  0591  07B6               	addwf	i1___flmul@prod+2,f
  7220  0592                     u324_22:
  7221  0592  082B               	movf	??i1___flmul+3,w
  7222  0593  1103               	clrz
  7223  0594  1803               	skipnc
  7224  0595  3E01               	addlw	1
  7225  0596  1903               	skipnz
  7226  0597  2D99               	goto	u324_23
  7227  0598  07B7               	addwf	i1___flmul@prod+3,f
  7228  0599                     u324_23:
  7229  0599                     i1l2516:
  7230  0599  0822               	movf	i1___flmul@b+2,w
  7231  059A  00A8               	movwf	??i1___flmul
  7232  059B  0828               	movf	??i1___flmul,w
  7233  059C  00F0               	movwf	i1__Umul8_16@multiplicand
  7234  059D  0825               	movf	i1___flmul@a+1,w
  7235  059E  160A  118A  21D1  120A  118A  	fcall	i1__Umul8_16
  7236  05A3  0871               	movf	?i1__Umul8_16+1,w
  7237  05A4  1283               	bcf	3,5	;RP0=0, select bank0
  7238  05A5  1303               	bcf	3,6	;RP1=0, select bank0
  7239  05A6  00B9               	movwf	i1___flmul@temp+1
  7240  05A7  0870               	movf	?i1__Umul8_16,w
  7241  05A8  00B8               	movwf	i1___flmul@temp
  7242  05A9                     i1l2518:
  7243  05A9  0838               	movf	i1___flmul@temp,w
  7244  05AA  00A8               	movwf	??i1___flmul
  7245  05AB  0839               	movf	i1___flmul@temp+1,w
  7246  05AC  00A9               	movwf	??i1___flmul+1
  7247  05AD  01AA               	clrf	??i1___flmul+2
  7248  05AE  01AB               	clrf	??i1___flmul+3
  7249  05AF  0828               	movf	??i1___flmul,w
  7250  05B0  07B4               	addwf	i1___flmul@prod,f
  7251  05B1  0829               	movf	??i1___flmul+1,w
  7252  05B2  1103               	clrz
  7253  05B3  1803               	skipnc
  7254  05B4  3E01               	addlw	1
  7255  05B5  1903               	skipnz
  7256  05B6  2DB8               	goto	u325_21
  7257  05B7  07B5               	addwf	i1___flmul@prod+1,f
  7258  05B8                     u325_21:
  7259  05B8  082A               	movf	??i1___flmul+2,w
  7260  05B9  1103               	clrz
  7261  05BA  1803               	skipnc
  7262  05BB  3E01               	addlw	1
  7263  05BC  1903               	skipnz
  7264  05BD  2DBF               	goto	u325_22
  7265  05BE  07B6               	addwf	i1___flmul@prod+2,f
  7266  05BF                     u325_22:
  7267  05BF  082B               	movf	??i1___flmul+3,w
  7268  05C0  1103               	clrz
  7269  05C1  1803               	skipnc
  7270  05C2  3E01               	addlw	1
  7271  05C3  1903               	skipnz
  7272  05C4  2DC6               	goto	u325_23
  7273  05C5  07B7               	addwf	i1___flmul@prod+3,f
  7274  05C6                     u325_23:
  7275  05C6  0822               	movf	i1___flmul@b+2,w
  7276  05C7  00A8               	movwf	??i1___flmul
  7277  05C8  0828               	movf	??i1___flmul,w
  7278  05C9  00F0               	movwf	i1__Umul8_16@multiplicand
  7279  05CA  0826               	movf	i1___flmul@a+2,w
  7280  05CB  160A  118A  21D1  120A  118A  	fcall	i1__Umul8_16
  7281  05D0  0871               	movf	?i1__Umul8_16+1,w
  7282  05D1  1283               	bcf	3,5	;RP0=0, select bank0
  7283  05D2  1303               	bcf	3,6	;RP1=0, select bank0
  7284  05D3  00B9               	movwf	i1___flmul@temp+1
  7285  05D4  0870               	movf	?i1__Umul8_16,w
  7286  05D5  00B8               	movwf	i1___flmul@temp
  7287  05D6                     i1l2520:
  7288  05D6  0838               	movf	i1___flmul@temp,w
  7289  05D7  00A8               	movwf	??i1___flmul
  7290  05D8  0839               	movf	i1___flmul@temp+1,w
  7291  05D9  00A9               	movwf	??i1___flmul+1
  7292  05DA  01AA               	clrf	??i1___flmul+2
  7293  05DB  01AB               	clrf	??i1___flmul+3
  7294  05DC  3008               	movlw	8
  7295  05DD                     u326_25:
  7296  05DD  1003               	clrc
  7297  05DE  0DA8               	rlf	??i1___flmul,f
  7298  05DF  0DA9               	rlf	??i1___flmul+1,f
  7299  05E0  0DAA               	rlf	??i1___flmul+2,f
  7300  05E1  0DAB               	rlf	??i1___flmul+3,f
  7301  05E2                     u326_20:
  7302  05E2  3EFF               	addlw	-1
  7303  05E3  1D03               	skipz
  7304  05E4  2DDD               	goto	u326_25
  7305  05E5  0828               	movf	??i1___flmul,w
  7306  05E6  07B4               	addwf	i1___flmul@prod,f
  7307  05E7  0829               	movf	??i1___flmul+1,w
  7308  05E8  1103               	clrz
  7309  05E9  1803               	skipnc
  7310  05EA  3E01               	addlw	1
  7311  05EB  1903               	skipnz
  7312  05EC  2DEE               	goto	u327_21
  7313  05ED  07B5               	addwf	i1___flmul@prod+1,f
  7314  05EE                     u327_21:
  7315  05EE  082A               	movf	??i1___flmul+2,w
  7316  05EF  1103               	clrz
  7317  05F0  1803               	skipnc
  7318  05F1  3E01               	addlw	1
  7319  05F2  1903               	skipnz
  7320  05F3  2DF5               	goto	u327_22
  7321  05F4  07B6               	addwf	i1___flmul@prod+2,f
  7322  05F5                     u327_22:
  7323  05F5  082B               	movf	??i1___flmul+3,w
  7324  05F6  1103               	clrz
  7325  05F7  1803               	skipnc
  7326  05F8  3E01               	addlw	1
  7327  05F9  1903               	skipnz
  7328  05FA  2DFC               	goto	u327_23
  7329  05FB  07B7               	addwf	i1___flmul@prod+3,f
  7330  05FC                     u327_23:
  7331  05FC                     i1l2522:
  7332  05FC  082E               	movf	i1___flmul@grs,w
  7333  05FD  00A8               	movwf	??i1___flmul
  7334  05FE  082F               	movf	i1___flmul@grs+1,w
  7335  05FF  00A9               	movwf	??i1___flmul+1
  7336  0600  0830               	movf	i1___flmul@grs+2,w
  7337  0601  00AA               	movwf	??i1___flmul+2
  7338  0602  0831               	movf	i1___flmul@grs+3,w
  7339  0603  00AB               	movwf	??i1___flmul+3
  7340  0604  3018               	movlw	24
  7341  0605                     u328_25:
  7342  0605  1003               	clrc
  7343  0606  0CAB               	rrf	??i1___flmul+3,f
  7344  0607  0CAA               	rrf	??i1___flmul+2,f
  7345  0608  0CA9               	rrf	??i1___flmul+1,f
  7346  0609  0CA8               	rrf	??i1___flmul,f
  7347  060A                     u328_20:
  7348  060A  3EFF               	addlw	-1
  7349  060B  1D03               	skipz
  7350  060C  2E05               	goto	u328_25
  7351  060D  0828               	movf	??i1___flmul,w
  7352  060E  07B4               	addwf	i1___flmul@prod,f
  7353  060F  0829               	movf	??i1___flmul+1,w
  7354  0610  1103               	clrz
  7355  0611  1803               	skipnc
  7356  0612  3E01               	addlw	1
  7357  0613  1903               	skipnz
  7358  0614  2E16               	goto	u329_21
  7359  0615  07B5               	addwf	i1___flmul@prod+1,f
  7360  0616                     u329_21:
  7361  0616  082A               	movf	??i1___flmul+2,w
  7362  0617  1103               	clrz
  7363  0618  1803               	skipnc
  7364  0619  3E01               	addlw	1
  7365  061A  1903               	skipnz
  7366  061B  2E1D               	goto	u329_22
  7367  061C  07B6               	addwf	i1___flmul@prod+2,f
  7368  061D                     u329_22:
  7369  061D  082B               	movf	??i1___flmul+3,w
  7370  061E  1103               	clrz
  7371  061F  1803               	skipnc
  7372  0620  3E01               	addlw	1
  7373  0621  1903               	skipnz
  7374  0622  2E24               	goto	u329_23
  7375  0623  07B7               	addwf	i1___flmul@prod+3,f
  7376  0624                     u329_23:
  7377  0624                     i1l2524:
  7378  0624  3008               	movlw	8
  7379  0625  00A8               	movwf	??i1___flmul
  7380  0626                     u330_25:
  7381  0626  1003               	clrc
  7382  0627  0DAE               	rlf	i1___flmul@grs,f
  7383  0628  0DAF               	rlf	i1___flmul@grs+1,f
  7384  0629  0DB0               	rlf	i1___flmul@grs+2,f
  7385  062A  0DB1               	rlf	i1___flmul@grs+3,f
  7386  062B  0BA8               	decfsz	??i1___flmul,f
  7387  062C  2E26               	goto	u330_25
  7388  062D                     i1l2526:
  7389  062D  0833               	movf	i1___flmul@bexp,w
  7390  062E  0732               	addwf	i1___flmul@aexp,w
  7391  062F  00A8               	movwf	??i1___flmul
  7392  0630  01A9               	clrf	??i1___flmul+1
  7393  0631  0DA9               	rlf	??i1___flmul+1,f
  7394  0632  0828               	movf	??i1___flmul,w
  7395  0633  3E82               	addlw	130
  7396  0634  00B8               	movwf	i1___flmul@temp
  7397  0635  0829               	movf	??i1___flmul+1,w
  7398  0636  1803               	skipnc
  7399  0637  3E01               	addlw	1
  7400  0638  3EFF               	addlw	255
  7401  0639  00B9               	movwf	i1___flmul@temp+1
  7402  063A  2E58               	goto	i1l2538
  7403  063B                     i1l2528:
  7404  063B  3001               	movlw	1
  7405  063C  00A8               	movwf	??i1___flmul
  7406  063D                     u331_25:
  7407  063D  1003               	clrc
  7408  063E  0DB4               	rlf	i1___flmul@prod,f
  7409  063F  0DB5               	rlf	i1___flmul@prod+1,f
  7410  0640  0DB6               	rlf	i1___flmul@prod+2,f
  7411  0641  0DB7               	rlf	i1___flmul@prod+3,f
  7412  0642  0BA8               	decfsz	??i1___flmul,f
  7413  0643  2E3D               	goto	u331_25
  7414  0644                     i1l2530:
  7415  0644  1FB1               	btfss	i1___flmul@grs+3,7
  7416  0645  2E47               	goto	u332_21
  7417  0646  2E48               	goto	u332_20
  7418  0647                     u332_21:
  7419  0647  2E49               	goto	i1l2534
  7420  0648                     u332_20:
  7421  0648                     i1l2532:
  7422  0648  1434               	bsf	i1___flmul@prod,0
  7423  0649                     i1l2534:
  7424  0649  3001               	movlw	1
  7425  064A  00A8               	movwf	??i1___flmul
  7426  064B                     u333_25:
  7427  064B  1003               	clrc
  7428  064C  0DAE               	rlf	i1___flmul@grs,f
  7429  064D  0DAF               	rlf	i1___flmul@grs+1,f
  7430  064E  0DB0               	rlf	i1___flmul@grs+2,f
  7431  064F  0DB1               	rlf	i1___flmul@grs+3,f
  7432  0650  0BA8               	decfsz	??i1___flmul,f
  7433  0651  2E4B               	goto	u333_25
  7434  0652                     i1l2536:
  7435  0652  30FF               	movlw	255
  7436  0653  07B8               	addwf	i1___flmul@temp,f
  7437  0654  1803               	skipnc
  7438  0655  0AB9               	incf	i1___flmul@temp+1,f
  7439  0656  30FF               	movlw	255
  7440  0657  07B9               	addwf	i1___flmul@temp+1,f
  7441  0658                     i1l2538:
  7442  0658  1FB6               	btfss	i1___flmul@prod+2,7
  7443  0659  2E5B               	goto	u334_21
  7444  065A  2E5C               	goto	u334_20
  7445  065B                     u334_21:
  7446  065B  2E3B               	goto	i1l2528
  7447  065C                     u334_20:
  7448  065C                     i1l2540:
  7449  065C  01B2               	clrf	i1___flmul@aexp
  7450  065D                     i1l2542:
  7451  065D  1FB1               	btfss	i1___flmul@grs+3,7
  7452  065E  2E60               	goto	u335_21
  7453  065F  2E61               	goto	u335_20
  7454  0660                     u335_21:
  7455  0660  2E7D               	goto	i1l2550
  7456  0661                     u335_20:
  7457  0661                     i1l2544:
  7458  0661  30FF               	movlw	255
  7459  0662  052E               	andwf	i1___flmul@grs,w
  7460  0663  00A8               	movwf	??i1___flmul
  7461  0664  30FF               	movlw	255
  7462  0665  052F               	andwf	i1___flmul@grs+1,w
  7463  0666  00A9               	movwf	??i1___flmul+1
  7464  0667  30FF               	movlw	255
  7465  0668  0530               	andwf	i1___flmul@grs+2,w
  7466  0669  00AA               	movwf	??i1___flmul+2
  7467  066A  307F               	movlw	127
  7468  066B  0531               	andwf	i1___flmul@grs+3,w
  7469  066C  00AB               	movwf	??i1___flmul+3
  7470  066D  082B               	movf	??i1___flmul+3,w
  7471  066E  042A               	iorwf	??i1___flmul+2,w
  7472  066F  0429               	iorwf	??i1___flmul+1,w
  7473  0670  0428               	iorwf	??i1___flmul,w
  7474  0671  1903               	skipnz
  7475  0672  2E74               	goto	u336_21
  7476  0673  2E75               	goto	u336_20
  7477  0674                     u336_21:
  7478  0674  2E78               	goto	i1l729
  7479  0675                     u336_20:
  7480  0675                     i1l2546:
  7481  0675  01B2               	clrf	i1___flmul@aexp
  7482  0676  0AB2               	incf	i1___flmul@aexp,f
  7483  0677  2E7D               	goto	i1l2550
  7484  0678                     i1l729:
  7485  0678  1C34               	btfss	i1___flmul@prod,0
  7486  0679  2E7B               	goto	u337_21
  7487  067A  2E7C               	goto	u337_20
  7488  067B                     u337_21:
  7489  067B  2E7D               	goto	i1l2550
  7490  067C                     u337_20:
  7491  067C  2E75               	goto	i1l2546
  7492  067D                     i1l2550:
  7493  067D  0832               	movf	i1___flmul@aexp,w
  7494  067E  1903               	btfsc	3,2
  7495  067F  2E81               	goto	u338_21
  7496  0680  2E82               	goto	u338_20
  7497  0681                     u338_21:
  7498  0681  2EB3               	goto	i1l2560
  7499  0682                     u338_20:
  7500  0682                     i1l2552:
  7501  0682  3001               	movlw	1
  7502  0683  07B4               	addwf	i1___flmul@prod,f
  7503  0684  3000               	movlw	0
  7504  0685  1803               	skipnc
  7505  0686  3001               	movlw	1
  7506  0687  07B5               	addwf	i1___flmul@prod+1,f
  7507  0688  3000               	movlw	0
  7508  0689  1803               	skipnc
  7509  068A  3001               	movlw	1
  7510  068B  07B6               	addwf	i1___flmul@prod+2,f
  7511  068C  3000               	movlw	0
  7512  068D  1803               	skipnc
  7513  068E  3001               	movlw	1
  7514  068F  07B7               	addwf	i1___flmul@prod+3,f
  7515  0690                     i1l2554:
  7516  0690  1C37               	btfss	i1___flmul@prod+3,0
  7517  0691  2E93               	goto	u339_21
  7518  0692  2E94               	goto	u339_20
  7519  0693                     u339_21:
  7520  0693  2EB3               	goto	i1l2560
  7521  0694                     u339_20:
  7522  0694                     i1l2556:
  7523  0694  0834               	movf	i1___flmul@prod,w
  7524  0695  00A8               	movwf	??i1___flmul
  7525  0696  0835               	movf	i1___flmul@prod+1,w
  7526  0697  00A9               	movwf	??i1___flmul+1
  7527  0698  0836               	movf	i1___flmul@prod+2,w
  7528  0699  00AA               	movwf	??i1___flmul+2
  7529  069A  0837               	movf	i1___flmul@prod+3,w
  7530  069B  00AB               	movwf	??i1___flmul+3
  7531  069C  3001               	movlw	1
  7532  069D  00AC               	movwf	??i1___flmul+4
  7533  069E                     u340_25:
  7534  069E  0D2B               	rlf	??i1___flmul+3,w
  7535  069F  0CAB               	rrf	??i1___flmul+3,f
  7536  06A0  0CAA               	rrf	??i1___flmul+2,f
  7537  06A1  0CA9               	rrf	??i1___flmul+1,f
  7538  06A2  0CA8               	rrf	??i1___flmul,f
  7539  06A3                     u340_20:
  7540  06A3  0BAC               	decfsz	??i1___flmul+4,f
  7541  06A4  2E9E               	goto	u340_25
  7542  06A5  082B               	movf	??i1___flmul+3,w
  7543  06A6  00B7               	movwf	i1___flmul@prod+3
  7544  06A7  082A               	movf	??i1___flmul+2,w
  7545  06A8  00B6               	movwf	i1___flmul@prod+2
  7546  06A9  0829               	movf	??i1___flmul+1,w
  7547  06AA  00B5               	movwf	i1___flmul@prod+1
  7548  06AB  0828               	movf	??i1___flmul,w
  7549  06AC  00B4               	movwf	i1___flmul@prod
  7550  06AD                     i1l2558:
  7551  06AD  3001               	movlw	1
  7552  06AE  07B8               	addwf	i1___flmul@temp,f
  7553  06AF  1803               	skipnc
  7554  06B0  0AB9               	incf	i1___flmul@temp+1,f
  7555  06B1  3000               	movlw	0
  7556  06B2  07B9               	addwf	i1___flmul@temp+1,f
  7557  06B3                     i1l2560:
  7558  06B3  0839               	movf	i1___flmul@temp+1,w
  7559  06B4  3A80               	xorlw	128
  7560  06B5  00FF               	movwf	btemp+1
  7561  06B6  3080               	movlw	128
  7562  06B7  027F               	subwf	btemp+1,w
  7563  06B8  1D03               	skipz
  7564  06B9  2EBC               	goto	u341_25
  7565  06BA  30FF               	movlw	255
  7566  06BB  0238               	subwf	i1___flmul@temp,w
  7567  06BC                     u341_25:
  7568  06BC  1C03               	skipc
  7569  06BD  2EBF               	goto	u341_21
  7570  06BE  2EC0               	goto	u341_20
  7571  06BF                     u341_21:
  7572  06BF  2ECB               	goto	i1l2564
  7573  06C0                     u341_20:
  7574  06C0                     i1l2562:
  7575  06C0  307F               	movlw	127
  7576  06C1  1283               	bcf	3,5	;RP0=0, select bank0
  7577  06C2  1303               	bcf	3,6	;RP1=0, select bank0
  7578  06C3  00B7               	movwf	i1___flmul@prod+3
  7579  06C4  3080               	movlw	128
  7580  06C5  00B6               	movwf	i1___flmul@prod+2
  7581  06C6  3000               	movlw	0
  7582  06C7  00B5               	movwf	i1___flmul@prod+1
  7583  06C8  3000               	movlw	0
  7584  06C9  00B4               	movwf	i1___flmul@prod
  7585  06CA  2F00               	goto	i1l735
  7586  06CB                     i1l2564:
  7587  06CB  1283               	bcf	3,5	;RP0=0, select bank0
  7588  06CC  1303               	bcf	3,6	;RP1=0, select bank0
  7589  06CD  0839               	movf	i1___flmul@temp+1,w
  7590  06CE  3A80               	xorlw	128
  7591  06CF  00FF               	movwf	btemp+1
  7592  06D0  3080               	movlw	128
  7593  06D1  027F               	subwf	btemp+1,w
  7594  06D2  1D03               	skipz
  7595  06D3  2ED6               	goto	u342_25
  7596  06D4  3001               	movlw	1
  7597  06D5  0238               	subwf	i1___flmul@temp,w
  7598  06D6                     u342_25:
  7599  06D6  1803               	skipnc
  7600  06D7  2ED9               	goto	u342_21
  7601  06D8  2EDA               	goto	u342_20
  7602  06D9                     u342_21:
  7603  06D9  2EE6               	goto	i1l2570
  7604  06DA                     u342_20:
  7605  06DA                     i1l2566:
  7606  06DA  3000               	movlw	0
  7607  06DB  1283               	bcf	3,5	;RP0=0, select bank0
  7608  06DC  1303               	bcf	3,6	;RP1=0, select bank0
  7609  06DD  00B7               	movwf	i1___flmul@prod+3
  7610  06DE  3000               	movlw	0
  7611  06DF  00B6               	movwf	i1___flmul@prod+2
  7612  06E0  3000               	movlw	0
  7613  06E1  00B5               	movwf	i1___flmul@prod+1
  7614  06E2  3000               	movlw	0
  7615  06E3  00B4               	movwf	i1___flmul@prod
  7616  06E4                     i1l2568:
  7617  06E4  01AD               	clrf	i1___flmul@sign
  7618  06E5  2F00               	goto	i1l735
  7619  06E6                     i1l2570:
  7620  06E6  1283               	bcf	3,5	;RP0=0, select bank0
  7621  06E7  1303               	bcf	3,6	;RP1=0, select bank0
  7622  06E8  0838               	movf	i1___flmul@temp,w
  7623  06E9  00A8               	movwf	??i1___flmul
  7624  06EA  0828               	movf	??i1___flmul,w
  7625  06EB  00B3               	movwf	i1___flmul@bexp
  7626  06EC  30FF               	movlw	255
  7627  06ED  05B4               	andwf	i1___flmul@prod,f
  7628  06EE  30FF               	movlw	255
  7629  06EF  05B5               	andwf	i1___flmul@prod+1,f
  7630  06F0  307F               	movlw	127
  7631  06F1  05B6               	andwf	i1___flmul@prod+2,f
  7632  06F2  3000               	movlw	0
  7633  06F3  05B7               	andwf	i1___flmul@prod+3,f
  7634  06F4                     i1l2572:
  7635  06F4  1C33               	btfss	i1___flmul@bexp,0
  7636  06F5  2EF7               	goto	u343_21
  7637  06F6  2EF8               	goto	u343_20
  7638  06F7                     u343_21:
  7639  06F7  2EF9               	goto	i1l2576
  7640  06F8                     u343_20:
  7641  06F8                     i1l2574:
  7642  06F8  17B6               	bsf	i1___flmul@prod+2,7
  7643  06F9                     i1l2576:
  7644  06F9  0833               	movf	i1___flmul@bexp,w
  7645  06FA  00A8               	movwf	??i1___flmul
  7646  06FB  1003               	clrc
  7647  06FC  0C28               	rrf	??i1___flmul,w
  7648  06FD  00A9               	movwf	??i1___flmul+1
  7649  06FE  0829               	movf	??i1___flmul+1,w
  7650  06FF  00B7               	movwf	i1___flmul@prod+3
  7651  0700                     i1l735:
  7652  0700  082D               	movf	i1___flmul@sign,w
  7653  0701  00A8               	movwf	??i1___flmul
  7654  0702  0828               	movf	??i1___flmul,w
  7655  0703  04B7               	iorwf	i1___flmul@prod+3,f
  7656  0704                     i1l2578:
  7657  0704  0837               	movf	i1___flmul@prod+3,w
  7658  0705  00A3               	movwf	?i1___flmul+3
  7659  0706  0836               	movf	i1___flmul@prod+2,w
  7660  0707  00A2               	movwf	?i1___flmul+2
  7661  0708  0835               	movf	i1___flmul@prod+1,w
  7662  0709  00A1               	movwf	?i1___flmul+1
  7663  070A  0834               	movf	i1___flmul@prod,w
  7664  070B  00A0               	movwf	?i1___flmul
  7665  070C                     i1l723:
  7666  070C  0008               	return
  7667  070D                     __end_ofi1___flmul:
  7668                           
  7669                           	psect	text18
  7670  11D1                     __ptext18:	
  7671 ;; *************** function i1__Umul8_16 *****************
  7672 ;; Defined at:
  7673 ;;		line 4 in file "C:\Program Files\Microchip\xc8\v2.31\pic\sources\c90\common\Umul8_16.c"
  7674 ;; Parameters:    Size  Location     Type
  7675 ;;  multiplier      1    wreg     unsigned char 
  7676 ;;  multiplicand    1    0[COMMON] unsigned char 
  7677 ;; Auto vars:     Size  Location     Type
  7678 ;;  multiplier      1    8[COMMON] unsigned char 
  7679 ;;  word_mpld       2    6[COMMON] unsigned int 
  7680 ;;  product         2    4[COMMON] unsigned int 
  7681 ;; Return value:  Size  Location     Type
  7682 ;;                  2    0[COMMON] unsigned int 
  7683 ;; Registers used:
  7684 ;;		wreg, status,2, status,0
  7685 ;; Tracked objects:
  7686 ;;		On entry : 0/0
  7687 ;;		On exit  : 0/0
  7688 ;;		Unchanged: 0/0
  7689 ;; Data sizes:     COMMON   BANK0   BANK1   BANK3   BANK2
  7690 ;;      Params:         2       0       0       0       0
  7691 ;;      Locals:         5       0       0       0       0
  7692 ;;      Temps:          2       0       0       0       0
  7693 ;;      Totals:         9       0       0       0       0
  7694 ;;Total ram usage:        9 bytes
  7695 ;; Hardware stack levels used:    1
  7696 ;; This function calls:
  7697 ;;		Nothing
  7698 ;; This function is called by:
  7699 ;;		i1___flmul
  7700 ;; This function uses a non-reentrant model
  7701 ;;
  7702                           
  7703                           
  7704                           ;psect for function i1__Umul8_16
  7705  11D1                     i1__Umul8_16:
  7706                           
  7707                           ;incstack = 0
  7708 ;; hardware stack exceeded
  7709                           ; Regs used in i1__Umul8_16: [wreg+status,2+status,0]
  7710                           ;i1__Umul8_16@multiplier stored from wreg
  7711  11D1  00F8               	movwf	i1__Umul8_16@multiplier
  7712  11D2                     i1l2198:
  7713  11D2  01F4               	clrf	i1__Umul8_16@product
  7714  11D3  01F5               	clrf	i1__Umul8_16@product+1
  7715  11D4                     i1l2200:
  7716  11D4  0870               	movf	i1__Umul8_16@multiplicand,w
  7717  11D5  00F2               	movwf	??i1__Umul8_16
  7718  11D6  01F3               	clrf	??i1__Umul8_16+1
  7719  11D7  0872               	movf	??i1__Umul8_16,w
  7720  11D8  00F6               	movwf	i1__Umul8_16@word_mpld
  7721  11D9  0873               	movf	??i1__Umul8_16+1,w
  7722  11DA  00F7               	movwf	i1__Umul8_16@word_mpld+1
  7723  11DB                     i1l2202:
  7724  11DB  1C78               	btfss	i1__Umul8_16@multiplier,0
  7725  11DC  29DE               	goto	u248_21
  7726  11DD  29DF               	goto	u248_20
  7727  11DE                     u248_21:
  7728  11DE  29E5               	goto	i1l742
  7729  11DF                     u248_20:
  7730  11DF                     i1l2204:
  7731  11DF  0876               	movf	i1__Umul8_16@word_mpld,w
  7732  11E0  07F4               	addwf	i1__Umul8_16@product,f
  7733  11E1  1803               	skipnc
  7734  11E2  0AF5               	incf	i1__Umul8_16@product+1,f
  7735  11E3  0877               	movf	i1__Umul8_16@word_mpld+1,w
  7736  11E4  07F5               	addwf	i1__Umul8_16@product+1,f
  7737  11E5                     i1l742:
  7738  11E5  3001               	movlw	1
  7739  11E6                     u249_25:
  7740  11E6  1003               	clrc
  7741  11E7  0DF6               	rlf	i1__Umul8_16@word_mpld,f
  7742  11E8  0DF7               	rlf	i1__Umul8_16@word_mpld+1,f
  7743  11E9  3EFF               	addlw	-1
  7744  11EA  1D03               	skipz
  7745  11EB  29E6               	goto	u249_25
  7746  11EC  1003               	clrc
  7747  11ED  0CF8               	rrf	i1__Umul8_16@multiplier,f
  7748  11EE                     i1l2206:
  7749  11EE  0878               	movf	i1__Umul8_16@multiplier,w
  7750  11EF  1D03               	btfss	3,2
  7751  11F0  29F2               	goto	u250_21
  7752  11F1  29F3               	goto	u250_20
  7753  11F2                     u250_21:
  7754  11F2  29DB               	goto	i1l2202
  7755  11F3                     u250_20:
  7756  11F3                     i1l2208:
  7757  11F3  0875               	movf	i1__Umul8_16@product+1,w
  7758  11F4  00F1               	movwf	?i1__Umul8_16+1
  7759  11F5  0874               	movf	i1__Umul8_16@product,w
  7760  11F6  00F0               	movwf	?i1__Umul8_16
  7761  11F7                     i1l744:
  7762  11F7  0008               	return
  7763  11F8                     __end_ofi1__Umul8_16:
  7764                           
  7765                           	psect	text19
  7766  0AF0                     __ptext19:	
  7767 ;; *************** function i1___fladd *****************
  7768 ;; Defined at:
  7769 ;;		line 10 in file "C:\Program Files\Microchip\xc8\v2.31\pic\sources\c90\common\sprcadd.c"
  7770 ;; Parameters:    Size  Location     Type
  7771 ;;  b               4   26[BANK0 ] unsigned int 
  7772 ;;  a               4   30[BANK0 ] unsigned int 
  7773 ;; Auto vars:     Size  Location     Type
  7774 ;;  grs             1   45[BANK0 ] unsigned char 
  7775 ;;  bexp            1   44[BANK0 ] unsigned char 
  7776 ;;  aexp            1   43[BANK0 ] unsigned char 
  7777 ;;  signs           1   42[BANK0 ] unsigned char 
  7778 ;; Return value:  Size  Location     Type
  7779 ;;                  4   26[BANK0 ] unsigned char 
  7780 ;; Registers used:
  7781 ;;		wreg, status,2, status,0, btemp+1
  7782 ;; Tracked objects:
  7783 ;;		On entry : 0/0
  7784 ;;		On exit  : 0/0
  7785 ;;		Unchanged: 0/0
  7786 ;; Data sizes:     COMMON   BANK0   BANK1   BANK3   BANK2
  7787 ;;      Params:         0       8       0       0       0
  7788 ;;      Locals:         0       4       0       0       0
  7789 ;;      Temps:          0       8       0       0       0
  7790 ;;      Totals:         0      20       0       0       0
  7791 ;;Total ram usage:       20 bytes
  7792 ;; Hardware stack levels used:    1
  7793 ;; This function calls:
  7794 ;;		Nothing
  7795 ;; This function is called by:
  7796 ;;		i1_canales
  7797 ;; This function uses a non-reentrant model
  7798 ;;
  7799                           
  7800                           
  7801                           ;psect for function i1___fladd
  7802  0AF0                     i1___fladd:
  7803  0AF0                     i1l2248:	
  7804                           ;incstack = 0
  7805 ;; hardware stack exceeded
  7806                           ; Regs used in i1___fladd: [wreg+status,2+status,0+btemp+1]
  7807                           
  7808  0AF0  1283               	bcf	3,5	;RP0=0, select bank0
  7809  0AF1  1303               	bcf	3,6	;RP1=0, select bank0
  7810  0AF2  083D               	movf	i1___fladd@b+3,w
  7811  0AF3  3980               	andlw	128
  7812  0AF4  00C2               	movwf	??i1___fladd
  7813  0AF5  0842               	movf	??i1___fladd,w
  7814  0AF6  00CA               	movwf	i1___fladd@signs
  7815  0AF7                     i1l2250:
  7816  0AF7  083D               	movf	i1___fladd@b+3,w
  7817  0AF8  00C2               	movwf	??i1___fladd
  7818  0AF9  0742               	addwf	??i1___fladd,w
  7819  0AFA  00C3               	movwf	??i1___fladd+1
  7820  0AFB  0843               	movf	??i1___fladd+1,w
  7821  0AFC  00CC               	movwf	i1___fladd@bexp
  7822  0AFD                     i1l2252:
  7823  0AFD  1FBC               	btfss	i1___fladd@b+2,7
  7824  0AFE  2B00               	goto	u261_21
  7825  0AFF  2B01               	goto	u261_20
  7826  0B00                     u261_21:
  7827  0B00  2B02               	goto	i1l2256
  7828  0B01                     u261_20:
  7829  0B01                     i1l2254:
  7830  0B01  144C               	bsf	i1___fladd@bexp,0
  7831  0B02                     i1l2256:
  7832  0B02  084C               	movf	i1___fladd@bexp,w
  7833  0B03  1903               	btfsc	3,2
  7834  0B04  2B06               	goto	u262_21
  7835  0B05  2B07               	goto	u262_20
  7836  0B06                     u262_21:
  7837  0B06  2B17               	goto	i1l2266
  7838  0B07                     u262_20:
  7839  0B07                     i1l2258:
  7840  0B07  0A4C               	incf	i1___fladd@bexp,w
  7841  0B08  1D03               	btfss	3,2
  7842  0B09  2B0B               	goto	u263_21
  7843  0B0A  2B0C               	goto	u263_20
  7844  0B0B                     u263_21:
  7845  0B0B  2B14               	goto	i1l2262
  7846  0B0C                     u263_20:
  7847  0B0C                     i1l2260:
  7848  0B0C  3000               	movlw	0
  7849  0B0D  00BD               	movwf	i1___fladd@b+3
  7850  0B0E  3000               	movlw	0
  7851  0B0F  00BC               	movwf	i1___fladd@b+2
  7852  0B10  3000               	movlw	0
  7853  0B11  00BB               	movwf	i1___fladd@b+1
  7854  0B12  3000               	movlw	0
  7855  0B13  00BA               	movwf	i1___fladd@b
  7856  0B14                     i1l2262:
  7857  0B14  17BC               	bsf	i1___fladd@b+2,7
  7858  0B15                     i1l2264:
  7859  0B15  01BD               	clrf	i1___fladd@b+3
  7860  0B16  2B1F               	goto	i1l2268
  7861  0B17                     i1l2266:
  7862  0B17  3000               	movlw	0
  7863  0B18  00BD               	movwf	i1___fladd@b+3
  7864  0B19  3000               	movlw	0
  7865  0B1A  00BC               	movwf	i1___fladd@b+2
  7866  0B1B  3000               	movlw	0
  7867  0B1C  00BB               	movwf	i1___fladd@b+1
  7868  0B1D  3000               	movlw	0
  7869  0B1E  00BA               	movwf	i1___fladd@b
  7870  0B1F                     i1l2268:
  7871  0B1F  0841               	movf	i1___fladd@a+3,w
  7872  0B20  3980               	andlw	128
  7873  0B21  00C2               	movwf	??i1___fladd
  7874  0B22  0842               	movf	??i1___fladd,w
  7875  0B23  00CB               	movwf	i1___fladd@aexp
  7876  0B24                     i1l2270:
  7877  0B24  084B               	movf	i1___fladd@aexp,w
  7878  0B25  064A               	xorwf	i1___fladd@signs,w
  7879  0B26  1903               	skipnz
  7880  0B27  2B29               	goto	u264_21
  7881  0B28  2B2A               	goto	u264_20
  7882  0B29                     u264_21:
  7883  0B29  2B2B               	goto	i1l2274
  7884  0B2A                     u264_20:
  7885  0B2A                     i1l2272:
  7886  0B2A  174A               	bsf	i1___fladd@signs,6
  7887  0B2B                     i1l2274:
  7888  0B2B  0841               	movf	i1___fladd@a+3,w
  7889  0B2C  00C2               	movwf	??i1___fladd
  7890  0B2D  0742               	addwf	??i1___fladd,w
  7891  0B2E  00C3               	movwf	??i1___fladd+1
  7892  0B2F  0843               	movf	??i1___fladd+1,w
  7893  0B30  00CB               	movwf	i1___fladd@aexp
  7894  0B31                     i1l2276:
  7895  0B31  1FC0               	btfss	i1___fladd@a+2,7
  7896  0B32  2B34               	goto	u265_21
  7897  0B33  2B35               	goto	u265_20
  7898  0B34                     u265_21:
  7899  0B34  2B36               	goto	i1l2280
  7900  0B35                     u265_20:
  7901  0B35                     i1l2278:
  7902  0B35  144B               	bsf	i1___fladd@aexp,0
  7903  0B36                     i1l2280:
  7904  0B36  084B               	movf	i1___fladd@aexp,w
  7905  0B37  1903               	btfsc	3,2
  7906  0B38  2B3A               	goto	u266_21
  7907  0B39  2B3B               	goto	u266_20
  7908  0B3A                     u266_21:
  7909  0B3A  2B4B               	goto	i1l2290
  7910  0B3B                     u266_20:
  7911  0B3B                     i1l2282:
  7912  0B3B  0A4B               	incf	i1___fladd@aexp,w
  7913  0B3C  1D03               	btfss	3,2
  7914  0B3D  2B3F               	goto	u267_21
  7915  0B3E  2B40               	goto	u267_20
  7916  0B3F                     u267_21:
  7917  0B3F  2B48               	goto	i1l2286
  7918  0B40                     u267_20:
  7919  0B40                     i1l2284:
  7920  0B40  3000               	movlw	0
  7921  0B41  00C1               	movwf	i1___fladd@a+3
  7922  0B42  3000               	movlw	0
  7923  0B43  00C0               	movwf	i1___fladd@a+2
  7924  0B44  3000               	movlw	0
  7925  0B45  00BF               	movwf	i1___fladd@a+1
  7926  0B46  3000               	movlw	0
  7927  0B47  00BE               	movwf	i1___fladd@a
  7928  0B48                     i1l2286:
  7929  0B48  17C0               	bsf	i1___fladd@a+2,7
  7930  0B49                     i1l2288:
  7931  0B49  01C1               	clrf	i1___fladd@a+3
  7932  0B4A  2B53               	goto	i1l627
  7933  0B4B                     i1l2290:
  7934  0B4B  3000               	movlw	0
  7935  0B4C  00C1               	movwf	i1___fladd@a+3
  7936  0B4D  3000               	movlw	0
  7937  0B4E  00C0               	movwf	i1___fladd@a+2
  7938  0B4F  3000               	movlw	0
  7939  0B50  00BF               	movwf	i1___fladd@a+1
  7940  0B51  3000               	movlw	0
  7941  0B52  00BE               	movwf	i1___fladd@a
  7942  0B53                     i1l627:
  7943  0B53  084C               	movf	i1___fladd@bexp,w
  7944  0B54  024B               	subwf	i1___fladd@aexp,w
  7945  0B55  1803               	skipnc
  7946  0B56  2B58               	goto	u268_21
  7947  0B57  2B59               	goto	u268_20
  7948  0B58                     u268_21:
  7949  0B58  2B9D               	goto	i1l2326
  7950  0B59                     u268_20:
  7951  0B59                     i1l2292:
  7952  0B59  1F4A               	btfss	i1___fladd@signs,6
  7953  0B5A  2B5C               	goto	u269_21
  7954  0B5B  2B5D               	goto	u269_20
  7955  0B5C                     u269_21:
  7956  0B5C  2B61               	goto	i1l2296
  7957  0B5D                     u269_20:
  7958  0B5D                     i1l2294:
  7959  0B5D  3080               	movlw	128
  7960  0B5E  00C2               	movwf	??i1___fladd
  7961  0B5F  0842               	movf	??i1___fladd,w
  7962  0B60  06CA               	xorwf	i1___fladd@signs,f
  7963  0B61                     i1l2296:
  7964  0B61  084C               	movf	i1___fladd@bexp,w
  7965  0B62  00C2               	movwf	??i1___fladd
  7966  0B63  0842               	movf	??i1___fladd,w
  7967  0B64  00CD               	movwf	i1___fladd@grs
  7968  0B65                     i1l2298:
  7969  0B65  084B               	movf	i1___fladd@aexp,w
  7970  0B66  00C2               	movwf	??i1___fladd
  7971  0B67  0842               	movf	??i1___fladd,w
  7972  0B68  00CC               	movwf	i1___fladd@bexp
  7973  0B69                     i1l2300:
  7974  0B69  084D               	movf	i1___fladd@grs,w
  7975  0B6A  00C2               	movwf	??i1___fladd
  7976  0B6B  0842               	movf	??i1___fladd,w
  7977  0B6C  00CB               	movwf	i1___fladd@aexp
  7978  0B6D                     i1l2302:
  7979  0B6D  083A               	movf	i1___fladd@b,w
  7980  0B6E  00C2               	movwf	??i1___fladd
  7981  0B6F  0842               	movf	??i1___fladd,w
  7982  0B70  00CD               	movwf	i1___fladd@grs
  7983  0B71                     i1l2304:
  7984  0B71  083E               	movf	i1___fladd@a,w
  7985  0B72  00C2               	movwf	??i1___fladd
  7986  0B73  0842               	movf	??i1___fladd,w
  7987  0B74  00BA               	movwf	i1___fladd@b
  7988  0B75                     i1l2306:
  7989  0B75  084D               	movf	i1___fladd@grs,w
  7990  0B76  00C2               	movwf	??i1___fladd
  7991  0B77  0842               	movf	??i1___fladd,w
  7992  0B78  00BE               	movwf	i1___fladd@a
  7993  0B79                     i1l2308:
  7994  0B79  083B               	movf	i1___fladd@b+1,w
  7995  0B7A  00C2               	movwf	??i1___fladd
  7996  0B7B  0842               	movf	??i1___fladd,w
  7997  0B7C  00CD               	movwf	i1___fladd@grs
  7998  0B7D                     i1l2310:
  7999  0B7D  083F               	movf	i1___fladd@a+1,w
  8000  0B7E  00C2               	movwf	??i1___fladd
  8001  0B7F  0842               	movf	??i1___fladd,w
  8002  0B80  00BB               	movwf	i1___fladd@b+1
  8003  0B81                     i1l2312:
  8004  0B81  084D               	movf	i1___fladd@grs,w
  8005  0B82  00C2               	movwf	??i1___fladd
  8006  0B83  0842               	movf	??i1___fladd,w
  8007  0B84  00BF               	movwf	i1___fladd@a+1
  8008  0B85                     i1l2314:
  8009  0B85  083C               	movf	i1___fladd@b+2,w
  8010  0B86  00C2               	movwf	??i1___fladd
  8011  0B87  0842               	movf	??i1___fladd,w
  8012  0B88  00CD               	movwf	i1___fladd@grs
  8013  0B89                     i1l2316:
  8014  0B89  0840               	movf	i1___fladd@a+2,w
  8015  0B8A  00C2               	movwf	??i1___fladd
  8016  0B8B  0842               	movf	??i1___fladd,w
  8017  0B8C  00BC               	movwf	i1___fladd@b+2
  8018  0B8D                     i1l2318:
  8019  0B8D  084D               	movf	i1___fladd@grs,w
  8020  0B8E  00C2               	movwf	??i1___fladd
  8021  0B8F  0842               	movf	??i1___fladd,w
  8022  0B90  00C0               	movwf	i1___fladd@a+2
  8023  0B91                     i1l2320:
  8024  0B91  083D               	movf	i1___fladd@b+3,w
  8025  0B92  00C2               	movwf	??i1___fladd
  8026  0B93  0842               	movf	??i1___fladd,w
  8027  0B94  00CD               	movwf	i1___fladd@grs
  8028  0B95                     i1l2322:
  8029  0B95  0841               	movf	i1___fladd@a+3,w
  8030  0B96  00C2               	movwf	??i1___fladd
  8031  0B97  0842               	movf	??i1___fladd,w
  8032  0B98  00BD               	movwf	i1___fladd@b+3
  8033  0B99                     i1l2324:
  8034  0B99  084D               	movf	i1___fladd@grs,w
  8035  0B9A  00C2               	movwf	??i1___fladd
  8036  0B9B  0842               	movf	??i1___fladd,w
  8037  0B9C  00C1               	movwf	i1___fladd@a+3
  8038  0B9D                     i1l2326:
  8039  0B9D  01CD               	clrf	i1___fladd@grs
  8040  0B9E                     i1l2328:
  8041  0B9E  084B               	movf	i1___fladd@aexp,w
  8042  0B9F  00C2               	movwf	??i1___fladd
  8043  0BA0  01C3               	clrf	??i1___fladd+1
  8044  0BA1  0843               	movf	??i1___fladd+1,w
  8045  0BA2  00C5               	movwf	??i1___fladd+3
  8046  0BA3  084C               	movf	i1___fladd@bexp,w
  8047  0BA4  0242               	subwf	??i1___fladd,w
  8048  0BA5  00C4               	movwf	??i1___fladd+2
  8049  0BA6  1C03               	skipc
  8050  0BA7  03C5               	decf	??i1___fladd+3,f
  8051  0BA8  0845               	movf	??i1___fladd+3,w
  8052  0BA9  3A80               	xorlw	128
  8053  0BAA  00FF               	movwf	btemp+1
  8054  0BAB  3080               	movlw	128
  8055  0BAC  027F               	subwf	btemp+1,w
  8056  0BAD  1D03               	skipz
  8057  0BAE  2BB1               	goto	u270_25
  8058  0BAF  301A               	movlw	26
  8059  0BB0  0244               	subwf	??i1___fladd+2,w
  8060  0BB1                     u270_25:
  8061  0BB1  1C03               	skipc
  8062  0BB2  2BB4               	goto	u270_21
  8063  0BB3  2BB5               	goto	u270_20
  8064  0BB4                     u270_21:
  8065  0BB4  2BF2               	goto	i1l2344
  8066  0BB5                     u270_20:
  8067  0BB5                     i1l2330:
  8068  0BB5  1283               	bcf	3,5	;RP0=0, select bank0
  8069  0BB6  1303               	bcf	3,6	;RP1=0, select bank0
  8070  0BB7  083D               	movf	i1___fladd@b+3,w
  8071  0BB8  043C               	iorwf	i1___fladd@b+2,w
  8072  0BB9  043B               	iorwf	i1___fladd@b+1,w
  8073  0BBA  043A               	iorwf	i1___fladd@b,w
  8074  0BBB  1D03               	skipz
  8075  0BBC  2BBE               	goto	u271_21
  8076  0BBD  2BC0               	goto	u271_20
  8077  0BBE                     u271_21:
  8078  0BBE  3001               	movlw	1
  8079  0BBF  2BC1               	goto	u272_20
  8080  0BC0                     u271_20:
  8081  0BC0  3000               	movlw	0
  8082  0BC1                     u272_20:
  8083  0BC1  00C2               	movwf	??i1___fladd
  8084  0BC2  0842               	movf	??i1___fladd,w
  8085  0BC3  00CD               	movwf	i1___fladd@grs
  8086  0BC4  3000               	movlw	0
  8087  0BC5  00BD               	movwf	i1___fladd@b+3
  8088  0BC6  3000               	movlw	0
  8089  0BC7  00BC               	movwf	i1___fladd@b+2
  8090  0BC8  3000               	movlw	0
  8091  0BC9  00BB               	movwf	i1___fladd@b+1
  8092  0BCA  3000               	movlw	0
  8093  0BCB  00BA               	movwf	i1___fladd@b
  8094  0BCC  084B               	movf	i1___fladd@aexp,w
  8095  0BCD  00C2               	movwf	??i1___fladd
  8096  0BCE  0842               	movf	??i1___fladd,w
  8097  0BCF  00CC               	movwf	i1___fladd@bexp
  8098  0BD0  2BFA               	goto	i1l631
  8099  0BD1                     i1l633:
  8100  0BD1  1C4D               	btfss	i1___fladd@grs,0
  8101  0BD2  2BD4               	goto	u273_21
  8102  0BD3  2BD5               	goto	u273_20
  8103  0BD4                     u273_21:
  8104  0BD4  2BDE               	goto	i1l2334
  8105  0BD5                     u273_20:
  8106  0BD5                     i1l2332:
  8107  0BD5  084D               	movf	i1___fladd@grs,w
  8108  0BD6  00C2               	movwf	??i1___fladd
  8109  0BD7  1003               	clrc
  8110  0BD8  0C42               	rrf	??i1___fladd,w
  8111  0BD9  3801               	iorlw	1
  8112  0BDA  00C3               	movwf	??i1___fladd+1
  8113  0BDB  0843               	movf	??i1___fladd+1,w
  8114  0BDC  00CD               	movwf	i1___fladd@grs
  8115  0BDD  2BE0               	goto	i1l2336
  8116  0BDE                     i1l2334:
  8117  0BDE  1003               	clrc
  8118  0BDF  0CCD               	rrf	i1___fladd@grs,f
  8119  0BE0                     i1l2336:
  8120  0BE0  1C3A               	btfss	i1___fladd@b,0
  8121  0BE1  2BE3               	goto	u274_21
  8122  0BE2  2BE4               	goto	u274_20
  8123  0BE3                     u274_21:
  8124  0BE3  2BE5               	goto	i1l2340
  8125  0BE4                     u274_20:
  8126  0BE4                     i1l2338:
  8127  0BE4  17CD               	bsf	i1___fladd@grs,7
  8128  0BE5                     i1l2340:
  8129  0BE5  3001               	movlw	1
  8130  0BE6  00C2               	movwf	??i1___fladd
  8131  0BE7                     u275_25:
  8132  0BE7  0D3D               	rlf	i1___fladd@b+3,w
  8133  0BE8  0CBD               	rrf	i1___fladd@b+3,f
  8134  0BE9  0CBC               	rrf	i1___fladd@b+2,f
  8135  0BEA  0CBB               	rrf	i1___fladd@b+1,f
  8136  0BEB  0CBA               	rrf	i1___fladd@b,f
  8137  0BEC  0BC2               	decfsz	??i1___fladd& (0+127),f
  8138  0BED  2BE7               	goto	u275_25
  8139  0BEE                     i1l2342:
  8140  0BEE  3001               	movlw	1
  8141  0BEF  00C2               	movwf	??i1___fladd
  8142  0BF0  0842               	movf	??i1___fladd,w
  8143  0BF1  07CC               	addwf	i1___fladd@bexp,f
  8144  0BF2                     i1l2344:
  8145  0BF2  1283               	bcf	3,5	;RP0=0, select bank0
  8146  0BF3  1303               	bcf	3,6	;RP1=0, select bank0
  8147  0BF4  084B               	movf	i1___fladd@aexp,w
  8148  0BF5  024C               	subwf	i1___fladd@bexp,w
  8149  0BF6  1C03               	skipc
  8150  0BF7  2BF9               	goto	u276_21
  8151  0BF8  2BFA               	goto	u276_20
  8152  0BF9                     u276_21:
  8153  0BF9  2BD1               	goto	i1l633
  8154  0BFA                     u276_20:
  8155  0BFA                     i1l631:
  8156  0BFA  1B4A               	btfsc	i1___fladd@signs,6
  8157  0BFB  2BFD               	goto	u277_21
  8158  0BFC  2BFE               	goto	u277_20
  8159  0BFD                     u277_21:
  8160  0BFD  2C49               	goto	i1l2370
  8161  0BFE                     u277_20:
  8162  0BFE                     i1l2346:
  8163  0BFE  084C               	movf	i1___fladd@bexp,w
  8164  0BFF  1D03               	btfss	3,2
  8165  0C00  2C02               	goto	u278_21
  8166  0C01  2C03               	goto	u278_20
  8167  0C02                     u278_21:
  8168  0C02  2C0C               	goto	i1l2352
  8169  0C03                     u278_20:
  8170  0C03                     i1l2348:
  8171  0C03  3000               	movlw	0
  8172  0C04  00BD               	movwf	?i1___fladd+3
  8173  0C05  3000               	movlw	0
  8174  0C06  00BC               	movwf	?i1___fladd+2
  8175  0C07  3000               	movlw	0
  8176  0C08  00BB               	movwf	?i1___fladd+1
  8177  0C09  3000               	movlw	0
  8178  0C0A  00BA               	movwf	?i1___fladd
  8179  0C0B  2D77               	goto	i1l640
  8180  0C0C                     i1l2352:
  8181  0C0C  083E               	movf	i1___fladd@a,w
  8182  0C0D  07BA               	addwf	i1___fladd@b,f
  8183  0C0E  083F               	movf	i1___fladd@a+1,w
  8184  0C0F  1103               	clrz
  8185  0C10  1803               	skipnc
  8186  0C11  3E01               	addlw	1
  8187  0C12  1903               	skipnz
  8188  0C13  2C15               	goto	u279_21
  8189  0C14  07BB               	addwf	i1___fladd@b+1,f
  8190  0C15                     u279_21:
  8191  0C15  0840               	movf	i1___fladd@a+2,w
  8192  0C16  1103               	clrz
  8193  0C17  1803               	skipnc
  8194  0C18  3E01               	addlw	1
  8195  0C19  1903               	skipnz
  8196  0C1A  2C1C               	goto	u279_22
  8197  0C1B  07BC               	addwf	i1___fladd@b+2,f
  8198  0C1C                     u279_22:
  8199  0C1C  0841               	movf	i1___fladd@a+3,w
  8200  0C1D  1103               	clrz
  8201  0C1E  1803               	skipnc
  8202  0C1F  3E01               	addlw	1
  8203  0C20  1903               	skipnz
  8204  0C21  2C23               	goto	u279_23
  8205  0C22  07BD               	addwf	i1___fladd@b+3,f
  8206  0C23                     u279_23:
  8207  0C23                     i1l2354:
  8208  0C23  1C3D               	btfss	i1___fladd@b+3,0
  8209  0C24  2C26               	goto	u280_21
  8210  0C25  2C27               	goto	u280_20
  8211  0C26                     u280_21:
  8212  0C26  2CFD               	goto	i1l2404
  8213  0C27                     u280_20:
  8214  0C27                     i1l2356:
  8215  0C27  1C4D               	btfss	i1___fladd@grs,0
  8216  0C28  2C2A               	goto	u281_21
  8217  0C29  2C2B               	goto	u281_20
  8218  0C2A                     u281_21:
  8219  0C2A  2C34               	goto	i1l2360
  8220  0C2B                     u281_20:
  8221  0C2B                     i1l2358:
  8222  0C2B  084D               	movf	i1___fladd@grs,w
  8223  0C2C  00C2               	movwf	??i1___fladd
  8224  0C2D  1003               	clrc
  8225  0C2E  0C42               	rrf	??i1___fladd,w
  8226  0C2F  3801               	iorlw	1
  8227  0C30  00C3               	movwf	??i1___fladd+1
  8228  0C31  0843               	movf	??i1___fladd+1,w
  8229  0C32  00CD               	movwf	i1___fladd@grs
  8230  0C33  2C36               	goto	i1l2362
  8231  0C34                     i1l2360:
  8232  0C34  1003               	clrc
  8233  0C35  0CCD               	rrf	i1___fladd@grs,f
  8234  0C36                     i1l2362:
  8235  0C36  1C3A               	btfss	i1___fladd@b,0
  8236  0C37  2C39               	goto	u282_21
  8237  0C38  2C3A               	goto	u282_20
  8238  0C39                     u282_21:
  8239  0C39  2C3B               	goto	i1l2366
  8240  0C3A                     u282_20:
  8241  0C3A                     i1l2364:
  8242  0C3A  17CD               	bsf	i1___fladd@grs,7
  8243  0C3B                     i1l2366:
  8244  0C3B  3001               	movlw	1
  8245  0C3C  00C2               	movwf	??i1___fladd
  8246  0C3D                     u283_25:
  8247  0C3D  0D3D               	rlf	i1___fladd@b+3,w
  8248  0C3E  0CBD               	rrf	i1___fladd@b+3,f
  8249  0C3F  0CBC               	rrf	i1___fladd@b+2,f
  8250  0C40  0CBB               	rrf	i1___fladd@b+1,f
  8251  0C41  0CBA               	rrf	i1___fladd@b,f
  8252  0C42  0BC2               	decfsz	??i1___fladd& (0+127),f
  8253  0C43  2C3D               	goto	u283_25
  8254  0C44                     i1l2368:
  8255  0C44  3001               	movlw	1
  8256  0C45  00C2               	movwf	??i1___fladd
  8257  0C46  0842               	movf	??i1___fladd,w
  8258  0C47  07CC               	addwf	i1___fladd@bexp,f
  8259  0C48  2CFD               	goto	i1l2404
  8260  0C49                     i1l2370:
  8261  0C49  083D               	movf	i1___fladd@b+3,w
  8262  0C4A  3A80               	xorlw	128
  8263  0C4B  00FF               	movwf	btemp+1
  8264  0C4C  0841               	movf	i1___fladd@a+3,w
  8265  0C4D  3A80               	xorlw	128
  8266  0C4E  027F               	subwf	btemp+1,w
  8267  0C4F  1D03               	skipz
  8268  0C50  2C5B               	goto	u284_23
  8269  0C51  0840               	movf	i1___fladd@a+2,w
  8270  0C52  023C               	subwf	i1___fladd@b+2,w
  8271  0C53  1D03               	skipz
  8272  0C54  2C5B               	goto	u284_23
  8273  0C55  083F               	movf	i1___fladd@a+1,w
  8274  0C56  023B               	subwf	i1___fladd@b+1,w
  8275  0C57  1D03               	skipz
  8276  0C58  2C5B               	goto	u284_23
  8277  0C59  083E               	movf	i1___fladd@a,w
  8278  0C5A  023A               	subwf	i1___fladd@b,w
  8279  0C5B                     u284_23:
  8280  0C5B  1803               	skipnc
  8281  0C5C  2C5E               	goto	u284_21
  8282  0C5D  2C5F               	goto	u284_20
  8283  0C5E                     u284_21:
  8284  0C5E  2CB7               	goto	i1l2380
  8285  0C5F                     u284_20:
  8286  0C5F                     i1l2372:
  8287  0C5F  30FF               	movlw	255
  8288  0C60  00C2               	movwf	??i1___fladd
  8289  0C61  30FF               	movlw	255
  8290  0C62  00C3               	movwf	??i1___fladd+1
  8291  0C63  30FF               	movlw	255
  8292  0C64  00C4               	movwf	??i1___fladd+2
  8293  0C65  30FF               	movlw	255
  8294  0C66  00C5               	movwf	??i1___fladd+3
  8295  0C67  083E               	movf	i1___fladd@a,w
  8296  0C68  00C6               	movwf	??i1___fladd+4
  8297  0C69  083F               	movf	i1___fladd@a+1,w
  8298  0C6A  00C7               	movwf	??i1___fladd+5
  8299  0C6B  0840               	movf	i1___fladd@a+2,w
  8300  0C6C  00C8               	movwf	??i1___fladd+6
  8301  0C6D  0841               	movf	i1___fladd@a+3,w
  8302  0C6E  00C9               	movwf	??i1___fladd+7
  8303  0C6F  083A               	movf	i1___fladd@b,w
  8304  0C70  02C6               	subwf	??i1___fladd+4,f
  8305  0C71  083B               	movf	i1___fladd@b+1,w
  8306  0C72  1C03               	skipc
  8307  0C73  0F3B               	incfsz	i1___fladd@b+1,w
  8308  0C74  2C76               	goto	u285_21
  8309  0C75  2C77               	goto	u285_22
  8310  0C76                     u285_21:
  8311  0C76  02C7               	subwf	??i1___fladd+5,f
  8312  0C77                     u285_22:
  8313  0C77  083C               	movf	i1___fladd@b+2,w
  8314  0C78  1C03               	skipc
  8315  0C79  0F3C               	incfsz	i1___fladd@b+2,w
  8316  0C7A  2C7C               	goto	u285_23
  8317  0C7B  2C7D               	goto	u285_24
  8318  0C7C                     u285_23:
  8319  0C7C  02C8               	subwf	??i1___fladd+6,f
  8320  0C7D                     u285_24:
  8321  0C7D  083D               	movf	i1___fladd@b+3,w
  8322  0C7E  1C03               	skipc
  8323  0C7F  0F3D               	incfsz	i1___fladd@b+3,w
  8324  0C80  2C82               	goto	u285_25
  8325  0C81  2C83               	goto	u285_26
  8326  0C82                     u285_25:
  8327  0C82  02C9               	subwf	??i1___fladd+7,f
  8328  0C83                     u285_26:
  8329  0C83  0846               	movf	??i1___fladd+4,w
  8330  0C84  07C2               	addwf	??i1___fladd,f
  8331  0C85  0847               	movf	??i1___fladd+5,w
  8332  0C86  1803               	skipnc
  8333  0C87  0F47               	incfsz	??i1___fladd+5,w
  8334  0C88  2C8A               	goto	u286_20
  8335  0C89  2C8B               	goto	u286_21
  8336  0C8A                     u286_20:
  8337  0C8A  07C3               	addwf	??i1___fladd+1,f
  8338  0C8B                     u286_21:
  8339  0C8B  0848               	movf	??i1___fladd+6,w
  8340  0C8C  1803               	skipnc
  8341  0C8D  0F48               	incfsz	??i1___fladd+6,w
  8342  0C8E  2C90               	goto	u286_22
  8343  0C8F  2C91               	goto	u286_23
  8344  0C90                     u286_22:
  8345  0C90  07C4               	addwf	??i1___fladd+2,f
  8346  0C91                     u286_23:
  8347  0C91  0849               	movf	??i1___fladd+7,w
  8348  0C92  1803               	skipnc
  8349  0C93  0A49               	incf	??i1___fladd+7,w
  8350  0C94  07C5               	addwf	??i1___fladd+3,f
  8351  0C95  0845               	movf	??i1___fladd+3,w
  8352  0C96  00BD               	movwf	i1___fladd@b+3
  8353  0C97  0844               	movf	??i1___fladd+2,w
  8354  0C98  00BC               	movwf	i1___fladd@b+2
  8355  0C99  0843               	movf	??i1___fladd+1,w
  8356  0C9A  00BB               	movwf	i1___fladd@b+1
  8357  0C9B  0842               	movf	??i1___fladd,w
  8358  0C9C  00BA               	movwf	i1___fladd@b
  8359  0C9D                     i1l2374:
  8360  0C9D  3080               	movlw	128
  8361  0C9E  00C2               	movwf	??i1___fladd
  8362  0C9F  0842               	movf	??i1___fladd,w
  8363  0CA0  06CA               	xorwf	i1___fladd@signs,f
  8364  0CA1  09CD               	comf	i1___fladd@grs,f
  8365  0CA2  0ACD               	incf	i1___fladd@grs,f
  8366  0CA3                     i1l2376:
  8367  0CA3  084D               	movf	i1___fladd@grs,w
  8368  0CA4  1D03               	btfss	3,2
  8369  0CA5  2CA7               	goto	u287_21
  8370  0CA6  2CA8               	goto	u287_20
  8371  0CA7                     u287_21:
  8372  0CA7  2CC5               	goto	i1l648
  8373  0CA8                     u287_20:
  8374  0CA8                     i1l2378:
  8375  0CA8  3001               	movlw	1
  8376  0CA9  07BA               	addwf	i1___fladd@b,f
  8377  0CAA  3000               	movlw	0
  8378  0CAB  1803               	skipnc
  8379  0CAC  3001               	movlw	1
  8380  0CAD  07BB               	addwf	i1___fladd@b+1,f
  8381  0CAE  3000               	movlw	0
  8382  0CAF  1803               	skipnc
  8383  0CB0  3001               	movlw	1
  8384  0CB1  07BC               	addwf	i1___fladd@b+2,f
  8385  0CB2  3000               	movlw	0
  8386  0CB3  1803               	skipnc
  8387  0CB4  3001               	movlw	1
  8388  0CB5  07BD               	addwf	i1___fladd@b+3,f
  8389  0CB6  2CC5               	goto	i1l648
  8390  0CB7                     i1l2380:
  8391  0CB7  083E               	movf	i1___fladd@a,w
  8392  0CB8  02BA               	subwf	i1___fladd@b,f
  8393  0CB9  083F               	movf	i1___fladd@a+1,w
  8394  0CBA  1C03               	skipc
  8395  0CBB  0F3F               	incfsz	i1___fladd@a+1,w
  8396  0CBC  02BB               	subwf	i1___fladd@b+1,f
  8397  0CBD  0840               	movf	i1___fladd@a+2,w
  8398  0CBE  1C03               	skipc
  8399  0CBF  0F40               	incfsz	i1___fladd@a+2,w
  8400  0CC0  02BC               	subwf	i1___fladd@b+2,f
  8401  0CC1  0841               	movf	i1___fladd@a+3,w
  8402  0CC2  1C03               	skipc
  8403  0CC3  0F41               	incfsz	i1___fladd@a+3,w
  8404  0CC4  02BD               	subwf	i1___fladd@b+3,f
  8405  0CC5                     i1l648:
  8406  0CC5  083D               	movf	i1___fladd@b+3,w
  8407  0CC6  043C               	iorwf	i1___fladd@b+2,w
  8408  0CC7  043B               	iorwf	i1___fladd@b+1,w
  8409  0CC8  043A               	iorwf	i1___fladd@b,w
  8410  0CC9  1D03               	skipz
  8411  0CCA  2CCC               	goto	u288_21
  8412  0CCB  2CCD               	goto	u288_20
  8413  0CCC                     u288_21:
  8414  0CCC  2CF9               	goto	i1l2402
  8415  0CCD                     u288_20:
  8416  0CCD                     i1l2382:
  8417  0CCD  084D               	movf	i1___fladd@grs,w
  8418  0CCE  1D03               	btfss	3,2
  8419  0CCF  2CD1               	goto	u289_21
  8420  0CD0  2CD2               	goto	u289_20
  8421  0CD1                     u289_21:
  8422  0CD1  2CF9               	goto	i1l2402
  8423  0CD2                     u289_20:
  8424  0CD2                     i1l2384:
  8425  0CD2  3000               	movlw	0
  8426  0CD3  00BD               	movwf	?i1___fladd+3
  8427  0CD4  3000               	movlw	0
  8428  0CD5  00BC               	movwf	?i1___fladd+2
  8429  0CD6  3000               	movlw	0
  8430  0CD7  00BB               	movwf	?i1___fladd+1
  8431  0CD8  3000               	movlw	0
  8432  0CD9  00BA               	movwf	?i1___fladd
  8433  0CDA  2D77               	goto	i1l640
  8434  0CDB                     i1l2388:
  8435  0CDB  3001               	movlw	1
  8436  0CDC  00C2               	movwf	??i1___fladd
  8437  0CDD                     u290_25:
  8438  0CDD  1003               	clrc
  8439  0CDE  0DBA               	rlf	i1___fladd@b,f
  8440  0CDF  0DBB               	rlf	i1___fladd@b+1,f
  8441  0CE0  0DBC               	rlf	i1___fladd@b+2,f
  8442  0CE1  0DBD               	rlf	i1___fladd@b+3,f
  8443  0CE2  0BC2               	decfsz	??i1___fladd,f
  8444  0CE3  2CDD               	goto	u290_25
  8445  0CE4                     i1l2390:
  8446  0CE4  1FCD               	btfss	i1___fladd@grs,7
  8447  0CE5  2CE7               	goto	u291_21
  8448  0CE6  2CE8               	goto	u291_20
  8449  0CE7                     u291_21:
  8450  0CE7  2CE9               	goto	i1l652
  8451  0CE8                     u291_20:
  8452  0CE8                     i1l2392:
  8453  0CE8  143A               	bsf	i1___fladd@b,0
  8454  0CE9                     i1l652:
  8455  0CE9  1C4D               	btfss	i1___fladd@grs,0
  8456  0CEA  2CEC               	goto	u292_21
  8457  0CEB  2CED               	goto	u292_20
  8458  0CEC                     u292_21:
  8459  0CEC  2CF0               	goto	i1l2396
  8460  0CED                     u292_20:
  8461  0CED                     i1l2394:
  8462  0CED  1403               	setc
  8463  0CEE  0DCD               	rlf	i1___fladd@grs,f
  8464  0CEF  2CF2               	goto	i1l2398
  8465  0CF0                     i1l2396:
  8466  0CF0  1003               	clrc
  8467  0CF1  0DCD               	rlf	i1___fladd@grs,f
  8468  0CF2                     i1l2398:
  8469  0CF2  084C               	movf	i1___fladd@bexp,w
  8470  0CF3  1903               	btfsc	3,2
  8471  0CF4  2CF6               	goto	u293_21
  8472  0CF5  2CF7               	goto	u293_20
  8473  0CF6                     u293_21:
  8474  0CF6  2CF9               	goto	i1l2402
  8475  0CF7                     u293_20:
  8476  0CF7                     i1l2400:
  8477  0CF7  3001               	movlw	1
  8478  0CF8  02CC               	subwf	i1___fladd@bexp,f
  8479  0CF9                     i1l2402:
  8480  0CF9  1FBC               	btfss	i1___fladd@b+2,7
  8481  0CFA  2CFC               	goto	u294_21
  8482  0CFB  2CFD               	goto	u294_20
  8483  0CFC                     u294_21:
  8484  0CFC  2CDB               	goto	i1l2388
  8485  0CFD                     u294_20:
  8486  0CFD                     i1l2404:
  8487  0CFD  01CB               	clrf	i1___fladd@aexp
  8488  0CFE                     i1l2406:
  8489  0CFE  1FCD               	btfss	i1___fladd@grs,7
  8490  0CFF  2D01               	goto	u295_21
  8491  0D00  2D02               	goto	u295_20
  8492  0D01                     u295_21:
  8493  0D01  2D10               	goto	i1l2414
  8494  0D02                     u295_20:
  8495  0D02                     i1l2408:
  8496  0D02  084D               	movf	i1___fladd@grs,w
  8497  0D03  397F               	andlw	127
  8498  0D04  1903               	btfsc	3,2
  8499  0D05  2D07               	goto	u296_21
  8500  0D06  2D08               	goto	u296_20
  8501  0D07                     u296_21:
  8502  0D07  2D0B               	goto	i1l658
  8503  0D08                     u296_20:
  8504  0D08                     i1l2410:
  8505  0D08  01CB               	clrf	i1___fladd@aexp
  8506  0D09  0ACB               	incf	i1___fladd@aexp,f
  8507  0D0A  2D10               	goto	i1l2414
  8508  0D0B                     i1l658:
  8509  0D0B  1C3A               	btfss	i1___fladd@b,0
  8510  0D0C  2D0E               	goto	u297_21
  8511  0D0D  2D0F               	goto	u297_20
  8512  0D0E                     u297_21:
  8513  0D0E  2D10               	goto	i1l2414
  8514  0D0F                     u297_20:
  8515  0D0F  2D08               	goto	i1l2410
  8516  0D10                     i1l2414:
  8517  0D10  084B               	movf	i1___fladd@aexp,w
  8518  0D11  1903               	btfsc	3,2
  8519  0D12  2D14               	goto	u298_21
  8520  0D13  2D15               	goto	u298_20
  8521  0D14                     u298_21:
  8522  0D14  2D49               	goto	i1l661
  8523  0D15                     u298_20:
  8524  0D15                     i1l2416:
  8525  0D15  3001               	movlw	1
  8526  0D16  07BA               	addwf	i1___fladd@b,f
  8527  0D17  3000               	movlw	0
  8528  0D18  1803               	skipnc
  8529  0D19  3001               	movlw	1
  8530  0D1A  07BB               	addwf	i1___fladd@b+1,f
  8531  0D1B  3000               	movlw	0
  8532  0D1C  1803               	skipnc
  8533  0D1D  3001               	movlw	1
  8534  0D1E  07BC               	addwf	i1___fladd@b+2,f
  8535  0D1F  3000               	movlw	0
  8536  0D20  1803               	skipnc
  8537  0D21  3001               	movlw	1
  8538  0D22  07BD               	addwf	i1___fladd@b+3,f
  8539  0D23                     i1l2418:
  8540  0D23  1C3D               	btfss	i1___fladd@b+3,0
  8541  0D24  2D26               	goto	u299_21
  8542  0D25  2D27               	goto	u299_20
  8543  0D26                     u299_21:
  8544  0D26  2D49               	goto	i1l661
  8545  0D27                     u299_20:
  8546  0D27                     i1l2420:
  8547  0D27  083A               	movf	i1___fladd@b,w
  8548  0D28  00C2               	movwf	??i1___fladd
  8549  0D29  083B               	movf	i1___fladd@b+1,w
  8550  0D2A  00C3               	movwf	??i1___fladd+1
  8551  0D2B  083C               	movf	i1___fladd@b+2,w
  8552  0D2C  00C4               	movwf	??i1___fladd+2
  8553  0D2D  083D               	movf	i1___fladd@b+3,w
  8554  0D2E  00C5               	movwf	??i1___fladd+3
  8555  0D2F  3001               	movlw	1
  8556  0D30  00C6               	movwf	??i1___fladd+4
  8557  0D31                     u300_25:
  8558  0D31  0D45               	rlf	??i1___fladd+3,w
  8559  0D32  0CC5               	rrf	??i1___fladd+3,f
  8560  0D33  0CC4               	rrf	??i1___fladd+2,f
  8561  0D34  0CC3               	rrf	??i1___fladd+1,f
  8562  0D35  0CC2               	rrf	??i1___fladd,f
  8563  0D36                     u300_20:
  8564  0D36  0BC6               	decfsz	??i1___fladd+4,f
  8565  0D37  2D31               	goto	u300_25
  8566  0D38  0845               	movf	??i1___fladd+3,w
  8567  0D39  00BD               	movwf	i1___fladd@b+3
  8568  0D3A  0844               	movf	??i1___fladd+2,w
  8569  0D3B  00BC               	movwf	i1___fladd@b+2
  8570  0D3C  0843               	movf	??i1___fladd+1,w
  8571  0D3D  00BB               	movwf	i1___fladd@b+1
  8572  0D3E  0842               	movf	??i1___fladd,w
  8573  0D3F  00BA               	movwf	i1___fladd@b
  8574  0D40  0A4C               	incf	i1___fladd@bexp,w
  8575  0D41  1903               	btfsc	3,2
  8576  0D42  2D44               	goto	u301_21
  8577  0D43  2D45               	goto	u301_20
  8578  0D44                     u301_21:
  8579  0D44  2D49               	goto	i1l661
  8580  0D45                     u301_20:
  8581  0D45                     i1l2422:
  8582  0D45  3001               	movlw	1
  8583  0D46  00C2               	movwf	??i1___fladd
  8584  0D47  0842               	movf	??i1___fladd,w
  8585  0D48  07CC               	addwf	i1___fladd@bexp,f
  8586  0D49                     i1l661:
  8587  0D49  0A4C               	incf	i1___fladd@bexp,w
  8588  0D4A  1903               	btfsc	3,2
  8589  0D4B  2D4D               	goto	u302_21
  8590  0D4C  2D4E               	goto	u302_20
  8591  0D4D                     u302_21:
  8592  0D4D  2D53               	goto	i1l2426
  8593  0D4E                     u302_20:
  8594  0D4E                     i1l2424:
  8595  0D4E  084C               	movf	i1___fladd@bexp,w
  8596  0D4F  1D03               	btfss	3,2
  8597  0D50  2D52               	goto	u303_21
  8598  0D51  2D53               	goto	u303_20
  8599  0D52                     u303_21:
  8600  0D52  2D61               	goto	i1l2432
  8601  0D53                     u303_20:
  8602  0D53                     i1l2426:
  8603  0D53  3000               	movlw	0
  8604  0D54  00BD               	movwf	i1___fladd@b+3
  8605  0D55  3000               	movlw	0
  8606  0D56  00BC               	movwf	i1___fladd@b+2
  8607  0D57  3000               	movlw	0
  8608  0D58  00BB               	movwf	i1___fladd@b+1
  8609  0D59  3000               	movlw	0
  8610  0D5A  00BA               	movwf	i1___fladd@b
  8611  0D5B                     i1l2428:
  8612  0D5B  084C               	movf	i1___fladd@bexp,w
  8613  0D5C  1D03               	btfss	3,2
  8614  0D5D  2D5F               	goto	u304_21
  8615  0D5E  2D60               	goto	u304_20
  8616  0D5F                     u304_21:
  8617  0D5F  2D61               	goto	i1l2432
  8618  0D60                     u304_20:
  8619  0D60                     i1l2430:
  8620  0D60  01CA               	clrf	i1___fladd@signs
  8621  0D61                     i1l2432:
  8622  0D61  1C4C               	btfss	i1___fladd@bexp,0
  8623  0D62  2D64               	goto	u305_21
  8624  0D63  2D65               	goto	u305_20
  8625  0D64                     u305_21:
  8626  0D64  2D67               	goto	i1l2436
  8627  0D65                     u305_20:
  8628  0D65                     i1l2434:
  8629  0D65  17BC               	bsf	i1___fladd@b+2,7
  8630  0D66  2D6B               	goto	i1l669
  8631  0D67                     i1l2436:
  8632  0D67  307F               	movlw	127
  8633  0D68  00C2               	movwf	??i1___fladd
  8634  0D69  0842               	movf	??i1___fladd,w
  8635  0D6A  05BC               	andwf	i1___fladd@b+2,f
  8636  0D6B                     i1l669:
  8637  0D6B  084C               	movf	i1___fladd@bexp,w
  8638  0D6C  00C2               	movwf	??i1___fladd
  8639  0D6D  1003               	clrc
  8640  0D6E  0C42               	rrf	??i1___fladd,w
  8641  0D6F  00C3               	movwf	??i1___fladd+1
  8642  0D70  0843               	movf	??i1___fladd+1,w
  8643  0D71  00BD               	movwf	i1___fladd@b+3
  8644  0D72                     i1l2438:
  8645  0D72  1FCA               	btfss	i1___fladd@signs,7
  8646  0D73  2D75               	goto	u306_21
  8647  0D74  2D76               	goto	u306_20
  8648  0D75                     u306_21:
  8649  0D75  2D77               	goto	i1l670
  8650  0D76                     u306_20:
  8651  0D76                     i1l2440:
  8652  0D76  17BD               	bsf	i1___fladd@b+3,7
  8653  0D77                     i1l670:
  8654  0D77                     i1l640:
  8655  0D77  0008               	return
  8656  0D78                     __end_ofi1___fladd:
  8657                           
  8658                           	psect	text20
  8659  07C9                     __ptext20:	
  8660 ;; *************** function _MENSAJE *****************
  8661 ;; Defined at:
  8662 ;;		line 386 in file "Mainfinal2.c"
  8663 ;; Parameters:    Size  Location     Type
  8664 ;;		None
  8665 ;; Auto vars:     Size  Location     Type
  8666 ;;		None
  8667 ;; Return value:  Size  Location     Type
  8668 ;;                  1    wreg      void 
  8669 ;; Registers used:
  8670 ;;		wreg, fsr0l, fsr0h, status,2, status,0
  8671 ;; Tracked objects:
  8672 ;;		On entry : 0/0
  8673 ;;		On exit  : 0/0
  8674 ;;		Unchanged: 0/0
  8675 ;; Data sizes:     COMMON   BANK0   BANK1   BANK3   BANK2
  8676 ;;      Params:         0       0       0       0       0
  8677 ;;      Locals:         0       0       0       0       0
  8678 ;;      Temps:          3       0       0       0       0
  8679 ;;      Totals:         3       0       0       0       0
  8680 ;;Total ram usage:        3 bytes
  8681 ;; Hardware stack levels used:    1
  8682 ;; This function calls:
  8683 ;;		Nothing
  8684 ;; This function is called by:
  8685 ;;		_OTRO
  8686 ;; This function uses a non-reentrant model
  8687 ;;
  8688                           
  8689                           
  8690                           ;psect for function _MENSAJE
  8691  07C9                     _MENSAJE:
  8692  07C9                     i1l2626:	
  8693                           ;incstack = 0
  8694                           ; Regs used in _MENSAJE: [wreg-fsr0h+status,2+status,0]
  8695                           
  8696                           
  8697                           ;Mainfinal2.c: 387:     _delay((unsigned long)((500)*(4000000/4000.0)));
  8698  07C9  3003               	movlw	3
  8699  07CA  00F2               	movwf	??_MENSAJE+2
  8700  07CB  308A               	movlw	138
  8701  07CC  00F1               	movwf	??_MENSAJE+1
  8702  07CD  3055               	movlw	85
  8703  07CE  00F0               	movwf	??_MENSAJE
  8704  07CF                     u510_27:
  8705  07CF  0BF0               	decfsz	??_MENSAJE,f
  8706  07D0  2FCF               	goto	u510_27
  8707  07D1  0BF1               	decfsz	??_MENSAJE+1,f
  8708  07D2  2FCF               	goto	u510_27
  8709  07D3  0BF2               	decfsz	??_MENSAJE+2,f
  8710  07D4  2FCF               	goto	u510_27
  8711  07D5  2FD6               	nop2
  8712  07D6                     i1l2628:
  8713                           
  8714                           ;Mainfinal2.c: 388:     VALOR = 0;
  8715  07D6  1283               	bcf	3,5	;RP0=0, select bank0
  8716  07D7  1303               	bcf	3,6	;RP1=0, select bank0
  8717  07D8  01ED               	clrf	_VALOR
  8718  07D9                     i1l2630:
  8719  07D9  3001               	movlw	1
  8720  07DA  00F0               	movwf	??_MENSAJE
  8721  07DB  0870               	movf	??_MENSAJE,w
  8722  07DC  07ED               	addwf	_VALOR,f
  8723  07DD                     i1l2632:
  8724                           
  8725                           ;Mainfinal2.c: 390:     TXREG = M[VALOR];
  8726  07DD  086D               	movf	_VALOR,w
  8727  07DE  3E4C               	addlw	(low (_M| (0+256)))& (0+255)
  8728  07DF  0084               	movwf	4
  8729  07E0  1783               	bsf	3,7	;select IRP bank2
  8730  07E1  0800               	movf	0,w
  8731  07E2  0099               	movwf	25	;volatile
  8732  07E3                     i1l2634:
  8733                           
  8734                           ;Mainfinal2.c: 391:     _delay((unsigned long)((50)*(4000000/4000.0)));
  8735  07E3  3041               	movlw	65
  8736  07E4  00F1               	movwf	??_MENSAJE+1
  8737  07E5  30EE               	movlw	238
  8738  07E6  00F0               	movwf	??_MENSAJE
  8739  07E7                     u511_27:
  8740  07E7  0BF0               	decfsz	??_MENSAJE,f
  8741  07E8  2FE7               	goto	u511_27
  8742  07E9  0BF1               	decfsz	??_MENSAJE+1,f
  8743  07EA  2FE7               	goto	u511_27
  8744  07EB  0000               	nop
  8745  07EC                     i1l2636:
  8746                           
  8747                           ;Mainfinal2.c: 392:     }
  8748  07EC  3025               	movlw	37
  8749  07ED  1283               	bcf	3,5	;RP0=0, select bank0
  8750  07EE  1303               	bcf	3,6	;RP1=0, select bank0
  8751  07EF  026D               	subwf	_VALOR,w
  8752  07F0  1C03               	skipc
  8753  07F1  2FF3               	goto	u358_21
  8754  07F2  2FF4               	goto	u358_20
  8755  07F3                     u358_21:
  8756  07F3  2FD9               	goto	i1l2630
  8757  07F4                     u358_20:
  8758  07F4                     i1l237:
  8759  07F4  1E8C               	btfss	12,5	;volatile
  8760  07F5  2FF7               	goto	u359_21
  8761  07F6  2FF8               	goto	u359_20
  8762  07F7                     u359_21:
  8763  07F7  2FF4               	goto	i1l237
  8764  07F8                     u359_20:
  8765  07F8                     i1l2638:
  8766                           
  8767                           ;Mainfinal2.c: 395:     OP = 0;
  8768  07F8  1683               	bsf	3,5	;RP0=1, select bank3
  8769  07F9  1703               	bsf	3,6	;RP1=1, select bank3
  8770  07FA  01E5               	clrf	_OP^(0+384)
  8771  07FB                     i1l240:
  8772  07FB  0008               	return
  8773  07FC                     __end_of_MENSAJE:
  8774                           
  8775                           	psect	text21
  8776  11AB                     __ptext21:	
  8777 ;; *************** function _MTMR0 *****************
  8778 ;; Defined at:
  8779 ;;		line 398 in file "Mainfinal2.c"
  8780 ;; Parameters:    Size  Location     Type
  8781 ;;		None
  8782 ;; Auto vars:     Size  Location     Type
  8783 ;;		None
  8784 ;; Return value:  Size  Location     Type
  8785 ;;                  1    wreg      void 
  8786 ;; Registers used:
  8787 ;;		wreg, status,2, status,0
  8788 ;; Tracked objects:
  8789 ;;		On entry : 0/0
  8790 ;;		On exit  : 0/0
  8791 ;;		Unchanged: 0/0
  8792 ;; Data sizes:     COMMON   BANK0   BANK1   BANK3   BANK2
  8793 ;;      Params:         0       0       0       0       0
  8794 ;;      Locals:         0       0       0       0       0
  8795 ;;      Temps:          1       0       0       0       0
  8796 ;;      Totals:         1       0       0       0       0
  8797 ;;Total ram usage:        1 bytes
  8798 ;; Hardware stack levels used:    1
  8799 ;; This function calls:
  8800 ;;		Nothing
  8801 ;; This function is called by:
  8802 ;;		_isr
  8803 ;; This function uses a non-reentrant model
  8804 ;;
  8805                           
  8806                           
  8807                           ;psect for function _MTMR0
  8808  11AB                     _MTMR0:
  8809  11AB                     i1l3226:	
  8810                           ;incstack = 0
  8811                           ; Regs used in _MTMR0: [wreg+status,2+status,0]
  8812                           
  8813                           
  8814                           ;Mainfinal2.c: 399:     PWM1++;
  8815  11AB  3001               	movlw	1
  8816  11AC  00F0               	movwf	??_MTMR0
  8817  11AD  0870               	movf	??_MTMR0,w
  8818  11AE  1283               	bcf	3,5	;RP0=0, select bank0
  8819  11AF  1303               	bcf	3,6	;RP1=0, select bank0
  8820  11B0  07EF               	addwf	_PWM1,f
  8821  11B1                     i1l3228:
  8822                           
  8823                           ;Mainfinal2.c: 400:         if(PWM1 <= POT3){
  8824  11B1  086F               	movf	_PWM1,w
  8825  11B2  026E               	subwf	_POT3,w
  8826  11B3  1C03               	skipc
  8827  11B4  29B6               	goto	u484_21
  8828  11B5  29B7               	goto	u484_20
  8829  11B6                     u484_21:
  8830  11B6  29B9               	goto	i1l243
  8831  11B7                     u484_20:
  8832  11B7                     i1l3230:
  8833                           
  8834                           ;Mainfinal2.c: 401:             PORTCbits.RC3 = 1;
  8835  11B7  1587               	bsf	7,3	;volatile
  8836                           
  8837                           ;Mainfinal2.c: 402:         }
  8838  11B8  29BA               	goto	i1l3232
  8839  11B9                     i1l243:	
  8840                           ;Mainfinal2.c: 403:         else{
  8841                           
  8842                           
  8843                           ;Mainfinal2.c: 404:             PORTCbits.RC3 = 0;
  8844  11B9  1187               	bcf	7,3	;volatile
  8845  11BA                     i1l3232:
  8846                           
  8847                           ;Mainfinal2.c: 406:         if(PWM1 <= POT4){
  8848  11BA  086F               	movf	_PWM1,w
  8849  11BB  1683               	bsf	3,5	;RP0=1, select bank3
  8850  11BC  1703               	bsf	3,6	;RP1=1, select bank3
  8851  11BD  026D               	subwf	_POT4^(0+384),w
  8852  11BE  1C03               	skipc
  8853  11BF  29C1               	goto	u485_21
  8854  11C0  29C2               	goto	u485_20
  8855  11C1                     u485_21:
  8856  11C1  29C6               	goto	i1l245
  8857  11C2                     u485_20:
  8858  11C2                     i1l3234:
  8859                           
  8860                           ;Mainfinal2.c: 407:             PORTCbits.RC4 = 1;
  8861  11C2  1283               	bcf	3,5	;RP0=0, select bank0
  8862  11C3  1303               	bcf	3,6	;RP1=0, select bank0
  8863  11C4  1607               	bsf	7,4	;volatile
  8864                           
  8865                           ;Mainfinal2.c: 408:         }
  8866  11C5  29C9               	goto	i1l3236
  8867  11C6                     i1l245:	
  8868                           ;Mainfinal2.c: 409:         else{
  8869                           
  8870                           
  8871                           ;Mainfinal2.c: 410:             PORTCbits.RC4 = 0;
  8872  11C6  1283               	bcf	3,5	;RP0=0, select bank0
  8873  11C7  1303               	bcf	3,6	;RP1=0, select bank0
  8874  11C8  1207               	bcf	7,4	;volatile
  8875  11C9                     i1l3236:
  8876                           
  8877                           ;Mainfinal2.c: 412:         if(PWM1 >= 250){
  8878  11C9  30FA               	movlw	250
  8879  11CA  026F               	subwf	_PWM1,w
  8880  11CB  1C03               	skipc
  8881  11CC  29CE               	goto	u486_21
  8882  11CD  29CF               	goto	u486_20
  8883  11CE                     u486_21:
  8884  11CE  29D0               	goto	i1l248
  8885  11CF                     u486_20:
  8886  11CF                     i1l3238:
  8887                           
  8888                           ;Mainfinal2.c: 413:             PWM1 = 0;
  8889  11CF  01EF               	clrf	_PWM1
  8890  11D0                     i1l248:
  8891  11D0  0008               	return
  8892  11D1                     __end_of_MTMR0:
  8893  007E                     btemp	set	126	;btemp
  8894  007E                     wtemp0	set	126
  8895                           
  8896                           	psect	config
  8897                           
  8898                           ;Config register CONFIG1 @ 0x2007
  8899                           ;	Oscillator Selection bits
  8900                           ;	FOSC = INTRC_NOCLKOUT, INTOSCIO oscillator: I/O function on RA6/OSC2/CLKOUT pin, I/O f
      +                          unction on RA7/OSC1/CLKIN
  8901                           ;	Watchdog Timer Enable bit
  8902                           ;	WDTE = OFF, WDT disabled and can be enabled by SWDTEN bit of the WDTCON register
  8903                           ;	Power-up Timer Enable bit
  8904                           ;	PWRTE = OFF, PWRT disabled
  8905                           ;	RE3/MCLR pin function select bit
  8906                           ;	MCLRE = OFF, RE3/MCLR pin function is digital input, MCLR internally tied to VDD
  8907                           ;	Code Protection bit
  8908                           ;	CP = OFF, Program memory code protection is disabled
  8909                           ;	Data Code Protection bit
  8910                           ;	CPD = OFF, Data memory code protection is disabled
  8911                           ;	Brown Out Reset Selection bits
  8912                           ;	BOREN = OFF, BOR disabled
  8913                           ;	Internal External Switchover bit
  8914                           ;	IESO = OFF, Internal/External Switchover mode is disabled
  8915                           ;	Fail-Safe Clock Monitor Enabled bit
  8916                           ;	FCMEN = OFF, Fail-Safe Clock Monitor is disabled
  8917                           ;	Low Voltage Programming Enable bit
  8918                           ;	LVP = OFF, RB3 pin has digital I/O, HV on MCLR must be used for programming
  8919                           ;	In-Circuit Debugger Mode bit
  8920                           ;	DEBUG = 0x1, unprogrammed default
  8921  2007                     	org	8199
  8922  2007  20D4               	dw	8404
  8923                           
  8924                           ;Config register CONFIG2 @ 0x2008
  8925                           ;	Brown-out Reset Selection bit
  8926                           ;	BOR4V = BOR40V, Brown-out Reset set to 4.0V
  8927                           ;	Flash Program Memory Self Write Enable bits
  8928                           ;	WRT = OFF, Write protection off
  8929  2008                     	org	8200
  8930  2008  3FFF               	dw	16383

Data Sizes:
    Strings     0
    Constant    0
    Data        181
    BSS         17
    Persistent  0
    Stack       0

Auto Spaces:
    Space          Size  Autos    Used
    COMMON           14     14      14
    BANK0            80     77      80
    BANK1            80     76      80
    BANK3            96      0      95
    BANK2            96      0      96

Pointer List with Targets:

    None.

Critical Paths under _main in COMMON

    None.

Critical Paths under _isr in COMMON

    i1_canales->i1___xxtofl
    i1___fltol->i1___xxtofl
    i1___flmul->i1___xxtofl
    i1___fladd->i1___xxtofl

Critical Paths under _main in BANK0

    None.

Critical Paths under _isr in BANK0

    _isr->_UART
    _UART->_INS
    _INS->_OTRO
    _OTRO->i1_canales
    i1_canales->i1___fltol
    i1___fltol->i1___fladd
    i1___fladd->i1___flmul

Critical Paths under _main in BANK1

    _main->_canales
    _canales->___fltol
    ___fltol->___fladd
    ___flmul->___xxtofl
    ___fladd->___flmul

Critical Paths under _isr in BANK1

    None.

Critical Paths under _main in BANK3

    None.

Critical Paths under _isr in BANK3

    None.

Critical Paths under _main in BANK2

    None.

Critical Paths under _isr in BANK2

    None.

Call Graph Tables:

 ---------------------------------------------------------------------------------
 (Depth) Function   	        Calls       Base Space   Used Autos Params    Refs
 ---------------------------------------------------------------------------------
 (0) _main                                                 0     0      0    6750
                            _canales
                              _setup
 ---------------------------------------------------------------------------------
 (1) _setup                                                1     1      0       0
                                              0 BANK1      1     1      0
 ---------------------------------------------------------------------------------
 (1) _canales                                              5     5      0    6750
                                             71 BANK1      5     5      0
                            ___fladd
                            ___flmul
                            ___fltol
                           ___xxtofl
 ---------------------------------------------------------------------------------
 (2) ___xxtofl                                            14    10      4     626
                                              0 BANK1     14    10      4
 ---------------------------------------------------------------------------------
 (2) ___fltol                                             11     7      4     533
                                             60 BANK1     11     7      4
                            ___fladd (ARG)
                            ___flmul (ARG)
                           ___xxtofl (ARG)
 ---------------------------------------------------------------------------------
 (2) ___flmul                                             26    18      8    2873
                                             14 BANK1     26    18      8
                          __Umul8_16
                           ___xxtofl (ARG)
 ---------------------------------------------------------------------------------
 (3) __Umul8_16                                            9     7      2     799
                                              0 BANK1      9     7      2
 ---------------------------------------------------------------------------------
 (2) ___fladd                                             20    12      8    2718
                                             40 BANK1     20    12      8
                            ___flmul (ARG)
                           ___xxtofl (ARG)
 ---------------------------------------------------------------------------------
 Estimated maximum stack depth 3
 ---------------------------------------------------------------------------------
 (Depth) Function   	        Calls       Base Space   Used Autos Params    Refs
 ---------------------------------------------------------------------------------
 (4) _isr                                                  7     7      0    5367
                                             70 BANK0      7     7      0
                              _MTMR0
                               _UART
                           _escribir
                               _leer
 ---------------------------------------------------------------------------------
 (5) _leer                                                 3     3      0      45
                                              0 COMMON     3     3      0
 ---------------------------------------------------------------------------------
 (5) _escribir                                             2     1      1     348
                                              0 COMMON     2     1      1
 ---------------------------------------------------------------------------------
 (5) _UART                                                 3     3      0    4974
                                             67 BANK0      3     3      0
                                _INS
 ---------------------------------------------------------------------------------
 (6) _INS                                                  3     3      0    4974
                                             64 BANK0      3     3      0
                               _OTRO
 ---------------------------------------------------------------------------------
 (7) _OTRO                                                 2     2      0    4974
                                             62 BANK0      2     2      0
                            _MENSAJE
                          i1_canales
 ---------------------------------------------------------------------------------
 (8) i1_canales                                            5     5      0    4974
                                             57 BANK0      5     5      0
                          i1___fladd
                          i1___flmul
                          i1___fltol
                         i1___xxtofl
 ---------------------------------------------------------------------------------
 (9) i1___xxtofl                                          14    10      4     426
                                              0 COMMON    14    10      4
 ---------------------------------------------------------------------------------
 (9) i1___fltol                                           11     7      4     333
                                             46 BANK0     11     7      4
                          i1___fladd (ARG)
                          i1___flmul (ARG)
                         i1___xxtofl (ARG)
 ---------------------------------------------------------------------------------
 (9) i1___flmul                                           26    18      8    2023
                                              0 BANK0     26    18      8
                        i1__Umul8_16
                         i1___xxtofl (ARG)
 ---------------------------------------------------------------------------------
 (10) i1__Umul8_16                                         9     7      2     349
                                              0 COMMON     9     7      2
 ---------------------------------------------------------------------------------
 (9) i1___fladd                                           20    12      8    2192
                                             26 BANK0     20    12      8
                          i1___flmul (ARG)
                         i1___xxtofl (ARG)
 ---------------------------------------------------------------------------------
 (8) _MENSAJE                                              3     3      0       0
                                              0 COMMON     3     3      0
 ---------------------------------------------------------------------------------
 (5) _MTMR0                                                1     1      0       0
                                              0 COMMON     1     1      0
 ---------------------------------------------------------------------------------
 Estimated maximum stack depth 10
 ---------------------------------------------------------------------------------

 Call Graph Graphs:

 _main (ROOT)
   _canales
     ___fladd
       ___flmul (ARG)
         __Umul8_16
         ___xxtofl (ARG)
       ___xxtofl (ARG)
     ___flmul
       __Umul8_16
       ___xxtofl (ARG)
     ___fltol
       ___fladd (ARG)
         ___flmul (ARG)
           __Umul8_16
           ___xxtofl (ARG)
         ___xxtofl (ARG)
       ___flmul (ARG)
         __Umul8_16
         ___xxtofl (ARG)
       ___xxtofl (ARG)
     ___xxtofl
   _setup

 _isr (ROOT)
   _MTMR0
   _UART
     _INS
       _OTRO
         _MENSAJE
         i1_canales
           i1___fladd
             i1___flmul (ARG)
               i1__Umul8_16
               i1___xxtofl (ARG)
             i1___xxtofl (ARG)
           i1___flmul
             i1__Umul8_16
             i1___xxtofl (ARG)
           i1___fltol
             i1___fladd (ARG)
               i1___flmul (ARG)
                 i1__Umul8_16
                 i1___xxtofl (ARG)
               i1___xxtofl (ARG)
             i1___flmul (ARG)
               i1__Umul8_16
               i1___xxtofl (ARG)
             i1___xxtofl (ARG)
           i1___xxtofl
   _escribir
   _leer

 Address spaces:
Name               Size   Autos  Total    Cost      Usage
BANK3               60      0      5F       9       99.0%
BITBANK3            60      0       0       8        0.0%
SFR3                 0      0       0       4        0.0%
BITSFR3              0      0       0       4        0.0%
BANK2               60      0      60      11      100.0%
BITBANK2            60      0       0      10        0.0%
SFR2                 0      0       0       5        0.0%
BITSFR2              0      0       0       5        0.0%
BANK1               50     4C      50       7      100.0%
BITBANK1            50      0       0       6        0.0%
SFR1                 0      0       0       2        0.0%
BITSFR1              0      0       0       2        0.0%
BANK0               50     4D      50       5      100.0%
BITBANK0            50      0       0       4        0.0%
SFR0                 0      0       0       1        0.0%
BITSFR0              0      0       0       1        0.0%
COMMON               E      E       E       1      100.0%
BITCOMMON            E      0       0       0        0.0%
CODE                 0      0       0       0        0.0%
DATA                 0      0     16D      12        0.0%
ABS                  0      0     16D       3        0.0%
NULL                 0      0       0       0        0.0%
STACK                0      0       0       2        0.0%
EEDATA             100      0       0       0        0.0%


Microchip Technology PIC Macro Assembler V2.31 build 20201012212115 
Symbol Table                                                                                   Fri Jun 04 04:50:31 2021

                       _I 0190                         _M 014C                         _R 0110  
                       pc 0002               i1___fladd@a 003E               i1___fladd@b 003A  
                      _OP 01E5               i1___flmul@a 0024               i1___flmul@b 0020  
                      fsr 0004       __Umul8_16@word_mpld 00A6                i1___xxtofl 0863  
                     l171 137B                       l520 1473                       l530 1473  
                     l198 17FF                       l631 0E82                       l527 145E  
                     l640 0FFF                       l633 0E59                       l627 0DDB  
                     l723 03AB                       l652 0F71                       l661 0FD1  
                     l670 0FFF                       l742 120E                       l735 039F  
                     l648 0F4D                       l744 1220                       l729 0317  
                     l658 0F93                       l780 0792                       l669 0FF3  
                     l781 079E                       l773 0776                       l767 0731  
                     l769 07C8                       _INS 12AE                       _PR2 0092  
                     _VAL 00EF                       _isr 1503                       fsr0 0004  
                     indf 0000              i1___fltol@f1 004E             i1___fladd@grs 004D  
            ___flmul@aexp 00C0              ___flmul@bexp 00C1              ___flmul@sign 00BB  
            ___flmul@temp 00C6              ___flmul@prod 00C2                      ?_INS 0070  
         __end_of_MENSAJE 07FC              ___fltol@exp1 00E6                      l3000 0FE9  
                    l3002 0FED                      l3010 004B                      l3004 0FEF  
                    l3100 02E7                      l3020 0062                      l3012 0052  
                    l3006 0FFA                      l3110 02FC                      l3102 02E8  
                    l3030 007E                      l3022 0067                      l3014 0058  
                    l3008 0FFE                      l3120 0321                      l3112 0300  
                    l3104 02F1                      l3040 0093                      l3032 0084  
                    l3024 006F                      l3016 005C                      l3130 035F  
                    l3122 032F                      l3114 0314                      l3106 02F7  
                    l3050 00AF                      l3042 009B                      l3034 0088  
                    l3026 0071                      l3018 005D                      l3140 0393  
                    l3132 036A                      l3124 0333                      l3108 02FB  
                    l3060 00F2                      l3044 009D                      l3036 0089  
                    l3028 0079                      l3300 1357                      l3142 0397  
                    l3134 0379                      l3126 034C                      l3118 031C  
                    l3070 017B                      l3062 010E                      l3054 00B8  
                    l3046 00A5                      l3038 008E                      l3150 0710  
                    l3310 1362                      l3302 135A                      l3144 0398  
                    l3136 0383                      l3128 0352                      l3080 01EE  
                    l3072 018B                      l3064 013A                      l3056 00C8  
                    l3048 00AA                      l3152 0715                      l3320 136A  
                    l3312 1364                      l3304 135B                      l3240 130C  
                    l3146 03A3                      l3138 0385                      l3090 029B  
                    l3082 020B                      l3074 01A8                      l3066 0156  
                    l3058 00D5                      l3170 075F                      l3162 0742  
                    l3154 0719                      l3330 1371                      l3322 136B  
                    l3314 1365                      l3306 135C                      l3250 1317  
                    l3242 1310                      l3092 02C3                      l3084 0238  
                    l3076 01B8                      l3068 0172                      l3180 0796  
                    l3172 076D                      l3164 0747                      l3156 0729  
                    l3332 1372                      l3324 136C                      l3316 1368  
                    l3308 135E                      l3260 131F                      l3252 1318  
                    l3244 1311                      l3094 02CC                      l3086 0248  
                    l3078 01D5                      l3190 07C0                      l3182 07A0  
                    l3174 077D                      l3166 0754                      l3158 0739  
                    l3350 16A3                      l3342 1638                      l3334 1375  
                    l3326 136D                      l3318 1369                      l3270 1330  
                    l3262 1320                      l3254 131A                      l3246 1315  
                    l3096 02DA                      l3088 0275                      l3184 07B6  
                    l3176 0788                      l3168 075B                      l3360 1710  
                    l3352 16A7                      l3344 168E                      l3336 1379  
                    l3328 1370                      l3280 1337                      l3272 1331  
                    l3264 1325                      l3256 131B                      l3248 1316  
                    l3098 02E3                      l2810 1453                      l2802 143A  
                    l3186 07BB                      l3178 078C                      l3370 177F  
                    l3362 1766                      l3354 16FF                      l3346 1696  
                    l3338 1631                      l3290 1341                      l3282 1338  
                    l3274 1332                      l3266 132E                      l3258 131E  
                    l2900 0E5D                      l2820 0D85                      l2740 11FD  
                    l2812 1463                      l2804 144C                      l3188 07BF  
                    l3372 17D7                      l3364 176E                      l3356 1705  
                    l3348 169C                      l3380 17E4                      l3292 134C  
                    l3284 1339                      l3276 1333                      l3268 132F  
                    l3452 115C                      l2910 0E76                      l2902 0E66  
                    l2830 0D9C                      l2822 0D89                      l2742 1204  
                    l2814 1468                      l3374 17D9                      l3366 1774  
                    l3358 170C                      l3294 134F                      l3286 133A  
                    l3278 1334                      l3454 1161                      l2920 0E94  
                    l2904 0E68                      l2912 0E7A                      l2840 0DB2  
                    l2832 0D9D                      l2824 0D8A                      l2816 0D78  
                    l2744 1208                      l3376 17E0                      l3368 177B  
                    l3296 1352                      l3288 133F                      l2930 0EBE  
                    l2922 0EAB                      l2914 0E86                      l2906 0E6C  
                    l2850 0DC3                      l2842 0DB3                      l2826 0D8F  
                    l2834 0D9F                      l2818 0D7F                      l2746 1217  
                    l2738 11FB                      l3298 1353                      l2940 0EE7  
                    l2932 0EC2                      l2924 0EAF                      l2916 0E8B  
                    l2908 0E6D                      l2860 0DE1                      l2852 0DC8  
                    l2844 0DB9                      l2836 0DA7                      l2828 0D94  
                    l2748 121C                      l2780 13F8                      l3556 17F1  
                    l2950 0F55                      l2942 0F25                      l2934 0EC3  
                    l2926 0EB3                      l2870 0DF5                      l2862 0DE5  
                    l2854 0DD0                      l2846 0DBD                      l2838 0DAC  
                    l2790 1424                      l2782 1405                      l2960 0F70  
                    l2952 0F5A                      l2944 0F2B                      l2936 0ECC  
                    l2928 0EBC                      l2880 0E09                      l2872 0DF9  
                    l2864 0DE9                      l2856 0DD1                      l2848 0DBE  
                    l2792 142C                      l2962 0F75                      l2970 0F81  
                    l2946 0F30                      l2938 0ED1                      l2890 0E1D  
                    l2882 0E0D                      l2874 0DFD                      l2866 0DED  
                    l2858 0DD3                      l2794 142E                      l2786 140E  
                    l2964 0F78                      l2956 0F63                      l2948 0F3F  
                    l2972 0F85                      l2892 0E21                      l2884 0E11  
                    l2876 0E01                      l2868 0DF1                      l2796 1432  
                    l2788 1423                      l2990 0FCD                      l2982 0F98  
                    l2974 0F86                      l2966 0F7A                      l2958 0F6C  
                    l2886 0E15                      l2878 0E05                      l2894 0E25  
                    l2992 0FD6                      l2984 0F9D                      l2976 0F8A  
                    l2968 0F7F                      l2896 0E26                      l2888 0E19  
                    l2994 0FDB                      l2986 0FAB                      l2978 0F90  
                    l2898 0E3D                      l2996 0FE3                      l2988 0FAF  
                    l2998 0FE8                      ?_isr 0070                      _FLAG 01E6  
                    _IOCB 0096                      u4000 0E86                      u4001 0E85  
                    u4010 0E8B                      u4011 0E8A                      u4100 0F30  
                    u4101 0F2F                      u4021 0E9D                      u4110 0F55  
                    u4030 0EAF                      u4022 0EA4                      u4111 0F54  
                    u4031 0EAE                      u4023 0EAB                      u4200 0F97  
                    u4120 0F5A                      u4040 0EB3                      u4201 0F96  
                    u4121 0F59                      u4041 0EB2                      u4210 0F9D  
                    u4050 0EC2                      u4211 0F9C                      u4051 0EC1  
                    u4220 0FAF                      u4140 0F70                      u4300 005C  
                    u4221 0FAE                      u4141 0F6F                      u4301 005B  
                    u4230 0FBE                      u4150 0F75                      u4070 0EE7  
                    u4310 0062                      u4151 0F74                      u4135 0F65  
                    u4071 0EE6                      u4311 0061                      u4240 0FCD  
                    u4160 0F7F                      u4320 0067                      u4241 0FCC  
                    u4161 0F7E                      u4081 0EFE                      u4073 0EE3  
                    u4065 0EC5                      u4401 0148                      u4321 0066  
                    u4250 0FD6                      u4170 0F85                      u4090 0F12  
                    u4082 0EFF                      u4402 014F                      u4330 0088  
                    u4251 0FD5                      u4235 0FB9                      u4171 0F84  
                    u4091 0F13                      u4083 0F04                      u4411 0164  
                    u4403 0156                      u4331 0087                      u4260 0FDB  
                    u4180 0F8A                      u4092 0F18                      u4084 0F05  
                    u4412 016B                      u4340 008E                      u4261 0FDA  
                    u4181 0F89                      u4093 0F19                      u4085 0F0A  
                    u4501 028D                      u4413 0172                      u4341 008D  
                    u4270 0FE8                      u4190 0F90                      u4086 0F0B  
                    u3710 121C                      u4510 02A9                      u4502 0294  
                    u4350 0093                      u4271 0FE7                      u4191 0F8F  
                    u3711 121B                      u4503 029B                      u4431 019A  
                    u4351 0092                      u4280 0FED                      u4600 031B  
                    u4432 01A1                      u4360 00AA                      u3800 1452  
                    u4281 0FEC                      u3705 120F                      u4601 031A  
                    u4521 02B5                      u4441 01C7                      u4433 01A8  
                    u4425 0174                      u4361 00A9                      u3801 1451  
                    u4290 0FFE                      u4610 0321                      u4522 02BC  
                    u4442 01CE                      u4370 00AF                      u4291 0FFD  
                    u4611 0320                      u4523 02C3                      u4515 02A4  
                    u4443 01D5                      u4371 00AE                      u3900 0DC8  
                    u4620 0333                      u3820 1463                      u3740 1405  
                    u3901 0DC7                      u4621 0332                      u4461 01FD  
                    u4381 0100                      u3821 1462                      u3741 1404  
                    u3910 0DE1                      u4630 0342                      u4550 02E7  
                    u4462 0204                      u4382 0107                      u3830 1468  
                    u3750 141C                      u4710 075A                      u3911 0DE0  
                    u4551 02E6                      u4535 02C5                      u4471 022A  
                    u4463 020B                      u4455 01D7                      u4391 011C  
                    u4383 010E                      u3831 1467                      u3815 1455  
                    u4711 0759                      u3920 0DE5                      u3840 0D89  
                    u4640 035F                      u4472 0231                      u4392 0123  
                    u3760 1432                      u4800 07BF                      u3921 0DE4  
                    u3841 0D88                      u4641 035E                      u4545 02DC  
                    u4481 0257                      u4473 0238                      u4393 012A  
                    u3761 1431                      u4801 07BE                      u4705 074C  
                    u3930 0E3D                      u3850 0D8F                      u3690 1208  
                    u4650 0379                      u4570 02FB                      u4490 0281  
                    u4482 025E                      u3770 1439                      u4730 077C  
                    u3931 0E3C                      u3851 0D8E                      u3691 1207  
                    u4651 0378                      u4635 033D                      u4571 02FA  
                    u4483 0265                      u3771 1438                      u3755 1417  
                    u4731 077B                      u3940 0E48                      u3860 0D94  
                    u4660 0397                      u4580 0300                      _RCIF 0065  
                    u3941 0E46                      u3861 0D93                      u4661 0396  
                    u4645 035B                      u4581 02FF                      u4565 02EA  
                    u4725 076E                      u3950 0E49                      u3870 0DB2  
                    u4590 0314                      u3790 144B                      u4750 078C  
                    u4670 0715                      u3935 0E39                      u3871 0DB1  
                    u4655 0375                      u4591 0313                      u4495 027C  
                    u3791 144A                      u4751 078B                      u4671 0714  
                    u3960 0E5D                      u3880 0DBD                      u4760 0792  
                    u4680 0719                      u3961 0E5C                      u3881 0DBC  
                    u3785 143B                      u4761 0791                      u4745 0781  
                    u4681 0718                      u3970 0E6C                      u3890 0DC3  
                    u4770 0796                      u4690 0739                      u3971 0E6B  
                    u3891 0DC2                      u4771 0795                      u4691 0738  
                    u4780 07AB                      _VAL1 00EE                      u3990 0E82  
                    u4790 07BB                      u4870 1637                      _VAL2 00ED  
                    u3991 0E81                      u4791 07BA                      u4871 1636  
                    _VAL3 00EC                      u3985 0E6F                      u4785 07A6  
                    u4957 1349                      u4967 16A0                      u4977 1709  
                    u4987 1778                      u4997 17DD                      _POT3 006E  
                    _POT4 01ED                      _UART 1221                      _PWM1 006F  
                    _PWM2 01EE                      _TMR0 0001                      _OTRO 1474  
                    _WPUB 0095               leer@address 0071                      _main 115C  
                    _leer 116A                      _val1 01EC                      _val2 01EB  
                    _val3 01EA                      _val4 01E9             i1___flmul@grs 002E  
                    btemp 007E            i1___fladd@aexp 004B            i1___fladd@bexp 004C  
                    start 0012                     ??_INS 0060                     ??_isr 0066  
                   ?_UART 0070                     ?_OTRO 0070             ___fltol@sign1 00E5  
         __end_of___fladd 1000                     ?_main 0070                     ?_leer 0070  
                   _EEADR 010D                     _EEDAT 010C           __end_of___flmul 03AC  
         __end_of___fltol 1474                     _ANSEL 0188                     _T2CON 0012  
                   i1l201 119F                     i1l211 12B7                     i1l203 11A5  
                   i1l204 11AA                     i1l207 117A                     i1l240 07FB  
                   i1l232 1502                     i1l216 12EC                     i1l161 155E  
                   i1l153 153F                     i1l243 11B9                     i1l219 130B  
                   i1l163 154C                     i1l164 155B                     i1l156 153D  
                   i1l245 11C6                     i1l237 07F4                     i1l248 11D0  
                   i1l520 13F7                     i1l184 124F                     i1l168 1626  
                   i1l530 13F7                     i1l187 1258                     i1l198 0AEF  
                   i1l631 0BFA                     i1l527 13E2                     i1l640 0D77  
                   i1l633 0BD1                     i1l627 0B53                     i1l723 070C  
                   i1l652 0CE9                     i1l661 0D49                     i1l670 0D77  
                   i1l742 11E5                     i1l735 0700                     i1l648 0CC5  
                   i1l744 11F7                     i1l729 0678                     i1l658 0D0B  
                   i1l780 08E6                     i1l669 0D6B                     i1l781 08F2  
                   i1l773 08CA                     i1l767 0885                     i1l769 091C  
                   _RCREG 001A                     _MTMR0 11AB                     _VALOR 006D  
                   _SPBRG 0099                     _PORTA 0005                     _PORTB 0006  
                   _PORTC 0007                     _PORTD 0008           __end_of_canales 1800  
                   _TRISA 0085                     _TRISC 0087                     _TRISD 0088  
                   _TXREG 0019            i1___flmul@aexp 0032            i1___flmul@bexp 0033  
          i1___flmul@sign 002D            i1___flmul@temp 0038            i1___flmul@prod 0034  
                   _setup 130C                     pclath 000A            i1___fltol@exp1 0058  
                   status 0003                     wtemp0 007E        __size_ofi1___fladd 0288  
         i1___fladd@signs 004A        __size_ofi1___flmul 0361        __size_ofi1___fltol 007C  
      __size_ofi1_canales 01D3              __end_of_UART 1259              __end_of_OTRO 1503  
         __initialization 0015              __end_of_main 116A              __end_of_leer 117B  
                  ??_UART 0063                    ??_OTRO 005E                    ??_main 00EC  
                  ??_leer 0070               ?i1___xxtofl 0070                    ?_MTMR0 0070  
               ??_MENSAJE 0070                    _ADRESH 001E                    _EEDATA 010C  
                  _CCPR1L 0015                    _CCPR2L 001B                    _EECON2 018D  
                  ?_setup 0070                    _ANSELH 0189                    i1l2200 11D4  
                  i1l2202 11DB                    i1l2300 0B69                    i1l2204 11DF  
                  i1l2220 13A7                    i1l2212 137C                    i1l2310 0B7D  
                  i1l2302 0B6D                    i1l2206 11EE                    i1l2222 13A8  
                  i1l2214 1389                    i1l2400 0CF7                    i1l2320 0B91  
                  i1l2312 0B81                    i1l2304 0B71                    i1l2208 11F3  
                  i1l2224 13B0                    i1l3200 1236                    i1l2410 0D08  
                  i1l2402 0CF9                    i1l2330 0BB5                    i1l2322 0B95  
                  i1l2314 0B85                    i1l2306 0B75                    i1l2250 0AF7  
                  i1l2242 13D7                    i1l2234 13BE                    i1l2226 13B2  
                  i1l2218 1392                    i1l3202 123C                    i1l3210 1195  
                  i1l2420 0D27                    i1l2404 0CFD                    i1l2340 0BE5  
                  i1l2332 0BD5                    i1l2324 0B99                    i1l2316 0B89  
                  i1l2308 0B79                    i1l2260 0B0C                    i1l2252 0AFD  
                  i1l2500 04D3                    i1l2244 13E7                    i1l2228 13B6  
                  i1l2236 13D0                    i1l3204 1247                    i1l3212 1198  
                  i1l3220 116F                    i1l3230 11B7                    i1l2430 0D60  
                  i1l2422 0D45                    i1l2414 0D10                    i1l2406 0CFE  
                  i1l2342 0BEE                    i1l2334 0BDE                    i1l2318 0B8D  
                  i1l2326 0B9D                    i1l2270 0B24                    i1l2262 0B14  
                  i1l2254 0B01                    i1l2510 0536                    i1l2502 04DC  
                  i1l2246 13EC                    i1l3206 1253                    i1l3214 1199  
                  i1l3222 1172                    i1l3232 11BA                    i1l2440 0D76  
                  i1l2432 0D61                    i1l2424 0D4E                    i1l2416 0D15  
                  i1l2408 0D02                    i1l2360 0C34                    i1l2352 0C0C  
                  i1l2336 0BE0                    i1l2344 0BF2                    i1l2328 0B9E  
                  i1l2280 0B36                    i1l2272 0B2A                    i1l2264 0B15  
                  i1l2256 0B02                    i1l2248 0AF0                    i1l2520 05D6  
                  i1l2512 054F                    i1l2504 04EC                    i1l2600 08AF  
                  i1l3216 119E                    i1l3208 118F                    i1l3400 1524  
                  i1l3234 11C2                    i1l3226 11AB                    i1l2434 0D65  
                  i1l2426 0D53                    i1l2418 0D23                    i1l2362 0C36  
                  i1l2354 0C23                    i1l2346 0BFE                    i1l2370 0C49  
                  i1l2338 0BE4                    i1l2282 0B3B                    i1l2290 0B4B  
                  i1l2274 0B2B                    i1l2258 0B07                    i1l2266 0B17  
                  i1l2530 0644                    i1l2522 05FC                    i1l2514 056C  
                  i1l2506 0509                    i1l2450 03BE                    i1l2442 03AC  
                  i1l2610 08E0                    i1l2602 08B3                    i1l3218 116B  
                  i1l3410 1563                    i1l3402 1543                    i1l3236 11C9  
                  i1l3228 11B1                    i1l2436 0D67                    i1l2428 0D5B  
                  i1l2372 0C5F                    i1l2380 0CB7                    i1l2364 0C3A  
                  i1l2356 0C27                    i1l2348 0C03                    i1l2292 0B59  
                  i1l2284 0B40                    i1l2276 0B31                    i1l2268 0B1F  
                  i1l2540 065C                    i1l2532 0648                    i1l2524 0624  
                  i1l2516 0599                    i1l2508 0519                    i1l2460 03DA  
                  i1l2452 03C3                    i1l2444 03B3                    i1l2620 0913  
                  i1l2612 08EA                    i1l2604 08C1                    i1l2700 149C  
                  i1l3420 15B0                    i1l3412 1565                    i1l3404 1547  
                  i1l3238 11CF                    i1l2630 07D9                    i1l2438 0D72  
                  i1l2390 0CE4                    i1l2382 0CCD                    i1l2374 0C9D  
                  i1l2366 0C3B                    i1l2358 0C2B                    i1l2294 0B5D  
                  i1l2286 0B48                    i1l2278 0B35                    i1l2198 11D2  
                  i1l2550 067D                    i1l2542 065D                    i1l2534 0649  
                  i1l2526 062D                    i1l2518 05A9                    i1l2470 03EF  
                  i1l2462 03DF                    i1l2454 03C8                    i1l2446 03B9  
                  i1l2622 0914                    i1l2614 08F4                    i1l2606 08D1  
                  i1l2710 14B6                    i1l2702 14A1                    i1l3430 1600  
                  i1l3422 15E4                    i1l3414 1599                    i1l3406 154F  
                  i1l2632 07DD                    i1l2392 0CE8                    i1l2384 0CD2  
                  i1l2376 0CA3                    i1l2368 0C44                    i1l2296 0B61  
                  i1l2288 0B49                    i1l2552 0682                    i1l2560 06B3  
                  i1l2544 0661                    i1l2536 0652                    i1l2528 063B  
                  i1l2480 040B                    i1l2472 03F4                    i1l2464 03E5  
                  i1l2456 03D0                    i1l2448 03BD                    i1l2616 090A  
                  i1l2608 08DC                    i1l2640 091D                    i1l2720 14D0  
                  i1l2712 14BB                    i1l2704 14A9                    i1l3440 161B  
                  i1l3432 1605                    i1l3424 15E8                    i1l3416 15A7  
                  i1l3408 1554                    i1l2634 07E3                    i1l2626 07C9  
                  i1l2394 0CED                    i1l2378 0CA8                    i1l2298 0B65  
                  i1l2570 06E6                    i1l2562 06C0                    i1l2554 0690  
                  i1l2546 0675                    i1l2538 0658                    i1l2490 0436  
                  i1l2482 0410                    i1l2474 03FC                    i1l2466 03E9  
                  i1l2458 03D2                    i1l2618 090F                    i1l2650 0988  
                  i1l2722 14D5                    i1l2714 14C3                    i1l2706 14AF  
                  i1l3194 1221                    i1l3442 1620                    i1l3434 1613  
                  i1l3426 15EE                    i1l3418 15AD                    i1l2636 07EC  
                  i1l2628 07D6                    i1l2396 0CF0                    i1l2388 0CDB  
                  i1l2572 06F4                    i1l2564 06CB                    i1l2556 0694  
                  i1l2492 0453                    i1l2476 03FE                    i1l2468 03EA  
                  i1l2660 09FC                    i1l2652 098F                    i1l2644 0924  
                  i1l2724 14DD                    i1l2716 14C9                    i1l2732 14EA  
                  i1l3196 122F                    i1l3444 1624                    i1l3428 15F6  
                  i1l3436 1616                    i1l2638 07F8                    i1l2398 0CF2  
                  i1l2574 06F8                    i1l2566 06DA                    i1l2558 06AD  
                  i1l2494 046F                    i1l2486 0419                    i1l2478 0406  
                  i1l2590 088D                    i1l2582 0864                    i1l2670 0A6B  
                  i1l2662 0A00                    i1l2654 0993                    i1l2646 097C  
                  i1l2726 14E3                    i1l3198 1232                    i1l3446 1625  
                  i1l3438 1617                    i1l3390 1508                    i1l2576 06F9  
                  i1l2568 06E4                    i1l2496 049B                    i1l2488 0429  
                  i1l2584 0869                    i1l2672 0A6F                    i1l2664 0A58  
                  i1l2656 09EF                    i1l2648 0982                    i1l3560 1303  
                  i1l2760 12CF                    i1l2752 12AE                    i1l3392 150F  
                  i1l2578 0704                    i1l2498 04B7                    i1l2594 0896  
                  i1l2586 086D                    i1l2674 0AC9                    i1l2666 0A5E  
                  i1l2658 09F5                    i1l2682 0AD6                    i1l3562 14F4  
                  i1l2690 147D                    i1l2770 12F3                    i1l2762 12D3  
                  i1l2754 12BA                    i1l3394 1516                    i1l3386 1503  
                  i1l2596 089B                    i1l2588 087D                    i1l3564 0AE1  
                  i1l2676 0ACB                    i1l2668 0A64                    i1l2692 1482  
                  i1l2764 12D9                    i1l2756 12BE                    i1l3396 151D  
                  i1l2598 08A8                    i1l2678 0AD2                    i1l2694 148A  
                  i1l2766 12E4                    i1l2758 12CC                    i1l2774 12F9  
                  i1l3558 152F                    u300_20 0D36                    i1l2696 1490  
                  i1l2688 1474                    i1l2768 12F0                    i1l2698 1496  
                  u300_25 0D31                    u301_20 0D45                    u301_21 0D44  
                  u302_20 0D4E                    u310_20 03E9                    u302_21 0D4D  
                  u310_21 03E8                    u303_20 0D53                    u311_20 03EF  
                  u303_21 0D52                    u311_21 03EE                    u304_20 0D60  
                  u312_20 03F4                    u304_21 0D5F                    u320_21 04FB  
                  u312_21 03F3                    u320_22 0502                    u320_23 0509  
                  u305_20 0D65                    u313_20 040B                    u305_21 0D64  
                  u321_21 0528                    u313_21 040A                    u321_22 052F  
                  u321_23 0536                    u306_20 0D76                    u250_20 11F3  
                  u314_20 0410                    u306_21 0D75                    u250_21 11F2  
                  u314_21 040F                    u330_25 0626                    u322_25 0538  
                  u307_20 03BD                    u251_20 1389                    u323_21 055E  
                  u315_21 0461                    u307_21 03BC                    u251_21 1388  
                  u323_22 0565                    u315_22 0468                    u323_23 056C  
                  u315_23 046F                    u331_25 063D                    u340_20 06A3  
                  u332_20 0648                    u308_20 03C3                    u260_20 13EC  
                  u252_20 13A0                    u332_21 0647                    u324_21 058B  
                  u316_21 047D                    u308_21 03C2                    u260_21 13EB  
                  u324_22 0592                    u316_22 0484                    u324_23 0599  
                  u316_23 048B                    u340_25 069E                    u252_25 139B  
                  u500_27 15A1                    u261_20 0B01                    u341_20 06C0  
                  u309_20 03C8                    u253_20 13B6                    u261_21 0B00  
                  u341_21 06BF                    u325_21 05B8                    u317_21 04A9  
                  u309_21 03C7                    u253_21 13B5                    u325_22 05BF  
                  u317_22 04B0                    u325_23 05C6                    u317_23 04B7  
                  u341_25 06BC                    u333_25 064B                    u501_27 160D  
                  u270_20 0BB5                    u262_20 0B07                    u342_20 06DA  
                  u334_20 065C                    u326_20 05E2                    u254_20 13BD  
                  u350_20 08D0                    u270_21 0BB4                    u262_21 0B06  
                  u342_21 06D9                    u334_21 065B                    u318_21 04C5  
                  u254_21 13BC                    u350_21 08CF                    u318_22 04CC  
                  u318_23 04D3                    u270_25 0BB1                    u342_25 06D6  
                  u326_25 05DD                    u510_27 07CF                    u502_27 1229  
                  u271_20 0BC0                    u263_20 0B0C                    u343_20 06F8  
                  u335_20 0661                    u271_21 0BBE                    u263_21 0B0B  
                  u343_21 06F7                    u335_21 0660                    u327_21 05EE  
                  u327_22 05F5                    u327_23 05FC                    u319_25 04D5  
                  u255_25 13BF                    u351_25 08D5                    u511_27 07E7  
                  u503_27 1242                    u280_20 0C27                    u272_20 0BC1  
                  u264_20 0B2A                    u248_20 11DF                    u336_20 0675  
                  u328_20 060A                    u256_20 13CF                    u352_20 08E0  
                  u344_20 0869                    u360_20 0923                    u280_21 0C26  
                  u264_21 0B29                    u248_21 11DE                    u336_21 0674  
                  u256_21 13CE                    u352_21 08DF                    u344_21 0868  
                  u360_21 0922                    u328_25 0605                    u504_27 12C6  
                  u281_20 0C2B                    u273_20 0BD5                    u265_20 0B35  
                  u337_20 067C                    u257_20 13D6                    u353_20 08E6  
                  u345_20 086D                    u361_20 148A                    u281_21 0C2A  
                  u273_21 0BD4                    u265_21 0B34                    u337_21 067B  
                  u329_21 0616                    u257_21 13D5                    u353_21 08E5  
                  u345_21 086C                    u361_21 1489                    u329_22 061D  
                  u329_23 0624                    u249_25 11E6                    u505_27 12DF  
                  u282_20 0C3A                    u274_20 0BE4                    u266_20 0B3B  
                  u338_20 0682                    u354_20 08EA                    u346_20 088D  
                  u362_20 1490                    u282_21 0C39                    u274_21 0BE3  
                  u266_21 0B3A                    u338_21 0681                    u354_21 08E9  
                  u346_21 088C                    u362_21 148F                    u290_25 0CDD  
                  u258_25 13D9                    u506_27 098C                    u291_20 0CE8  
                  u267_20 0B40                    u339_20 0694                    u259_20 13E7  
                  u355_20 08FF                    u363_20 14A9                    u291_21 0CE7  
                  u267_21 0B3F                    u339_21 0693                    u259_21 13E6  
                  u363_21 14A8                    u283_25 0C3D                    u275_25 0BE7  
                  u355_25 08FA                    u347_25 08A0                    u507_27 09F9  
                  u292_20 0CED                    u284_20 0C5F                    u276_20 0BFA  
                  u268_20 0B59                    u356_20 090F                    u348_20 08AE  
                  u364_20 14AF                    u372_20 12EC                    u292_21 0CEC  
                  u284_21 0C5E                    u276_21 0BF9                    u268_21 0B58  
                  u356_21 090E                    u348_21 08AD                    u364_21 14AE  
                  u372_21 12EB                    u284_23 0C5B                    u508_27 0A68  
                  u293_20 0CF7                    u277_20 0BFE                    u269_20 0B5D  
                  u357_20 0913                    u365_20 14C3                    u373_20 12F0  
                  u293_21 0CF6                    u285_21 0C76                    u277_21 0BFD  
                  u269_21 0B5C                    u357_21 0912                    u365_21 14C2  
                  u373_21 12EF                    u285_22 0C77                    u285_23 0C7C  
                  u285_24 0C7D                    u285_25 0C82                    u349_25 08C2  
                  u285_26 0C83                    u509_27 0ACF                    u358_20 07F4  
                  u294_20 0CFD                    u286_20 0C8A                    u278_20 0C03  
                  u366_20 14C9                    u358_21 07F3                    u294_21 0CFC  
                  u286_21 0C8B                    u278_21 0C02                    u366_21 14C8  
                  u286_22 0C90                    u286_23 0C91                    u359_20 07F8  
                  u295_20 0D02                    u287_20 0CA8                    u367_20 14DD  
                  u359_21 07F7                    u295_21 0D01                    u287_21 0CA7  
                  u279_21 0C15                    u367_21 14DC                    u279_22 0C1C  
                  u279_23 0C23                    u296_20 0D08                    u288_20 0CCD  
                  u368_20 14E3                    u296_21 0D07                    u288_21 0CCC  
                  u368_21 14E2                    u297_20 0D0F                    u289_20 0CD2  
                  u481_20 124F                    u297_21 0D0E                    u289_21 0CD1  
                  u481_21 124E                    u298_20 0D15                    u482_20 1253  
                  u490_20 1547                    u298_21 0D14                    u482_21 1252  
                  u490_21 1546                    u299_20 0D27                    u483_20 11A5  
                  u491_20 155B                    u299_21 0D26                    u483_21 11A4  
                  u491_21 155A                    u484_20 11B7                    u492_20 1563  
                  u484_21 11B6                    u492_21 1562                    u485_20 11C2  
                  u493_20 15AD                    u485_21 11C1                    u493_21 15AC  
                  u486_20 11CF                    u494_20 161B                    u486_21 11CE  
                  u494_21 161A                    _VALOR1 01E8                    _VALOR2 01E7  
                  u488_20 1507                    u488_21 1506                    u489_20 1543  
                  u489_21 1542                    _SPBRGH 009A          __end_of___xxtofl 07C9  
               ??___fladd 00D0                 ??___flmul 00B6          __end_of_escribir 11AB  
               ??___fltol 00E0                 ??_canales 00E7         __end_ofi1___fladd 0D78  
       __end_ofi1___flmul 070D         __end_ofi1___fltol 13F8        __size_of__Umul8_16 0029  
       __end_ofi1_canales 0AF0                    saved_w 007E           i1___fltol@sign1 0057  
            escribir@data 0071              ___xxtofl@arg 00AA              ___xxtofl@exp 00A9  
            ___xxtofl@val 00A0   __end_of__initialization 0047       __size_ofi1___xxtofl 00BA  
              ___fltol@f1 00DC              ?i1__Umul8_16 0070             __end_of_MTMR0 11D1  
          __pcstackCOMMON 0070              __pidataBANK2 0803              __pidataBANK3 1259  
           __end_of_setup 137C                   ??_MTMR0 0070            _OPTION_REGbits 0081  
                 ??_setup 00A0                __pbssBANK0 006D                __pbssBANK1 00EC  
              __pbssBANK3 01E5            i1___xxtofl@arg 007A            i1___xxtofl@exp 0079  
          i1___xxtofl@val 0070         __end_of__Umul8_16 1221                __pmaintext 115C  
              __pintentry 0004                   _CCP1CON 0017                   _CCP2CON 001D  
                 _MENSAJE 07C9                 ?___xxtofl 00A0       i1__Umul8_16@product 0074  
               ?_escribir 0070                   ___fladd 0D78                   ___flmul 004B  
                 ___fltol 13F8                   _canales 1631              ??i1___xxtofl 0074  
                 __ptext1 130C                   __ptext2 1631                   __ptext3 070D  
                 __ptext4 13F8                   __ptext5 004B                   __ptext6 11F8  
                 __ptext7 0D78                   __ptext8 1503                   __ptext9 116A  
            __size_of_INS 005E              __size_of_isr 012E                ??___xxtofl 00A4  
    end_of_initialization 0047                ??_escribir 0071        __end_ofi1___xxtofl 091D  
    __size_ofi1__Umul8_16 0027                 _RCSTAbits 0018     i1__Umul8_16@word_mpld 0076  
               _PORTBbits 0006                 _PORTCbits 0007                 _PORTDbits 0008  
             ___fladd@grs 00DB             ___xxtofl@sign 00A8                 _TRISBbits 0086  
               i1___fladd 0AF0                 i1___flmul 03AC                 i1___fltol 137C  
               i1_canales 091D               ___flmul@grs 00BC                 _TXSTAbits 0098  
             _BAUDCTLbits 0187       start_initialization 0015               __end_of_INS 130C  
              ?i1___fladd 003A               __end_of_isr 1631                ?i1___flmul 0020  
              ?i1___fltol 004E                ?i1_canales 0070                init_fetch0 117B  
               __Umul8_16 11F8               __pdataBANK2 0110               __pdataBANK3 0190  
               ___fladd@a 00CC                 ___fladd@b 00C8                  ?_MENSAJE 0070  
               ___flmul@a 00B2                 ___flmul@b 00AE                 ___latbits 0002  
           __pcstackBANK0 0020             __pcstackBANK1 00A0         __size_of___xxtofl 00BC  
         i1___xxtofl@sign 0078         __size_of_escribir 001D  i1__Umul8_16@multiplicand 0070  
                ?___fladd 00C8                  ?___flmul 00AE                  ?___fltol 00DC  
              ?__Umul8_16 00A0                  ?_canales 0070            __size_of_MTMR0 0026  
             ??i1___fladd 0042               ??i1___flmul 0028               ??i1___fltol 0052  
             ??i1_canales 0059            __size_of_setup 0070         interrupt_function 0004  
                _PIE1bits 008C                  _PIR1bits 000C                  _PIR2bits 000D  
              _ADCON0bits 001F                _ADCON1bits 009F          __size_of_MENSAJE 0033  
              _EECON1bits 018C             ??i1__Umul8_16 0072               ??__Umul8_16 00A2  
        __size_of___fladd 0288          __size_of___flmul 0361          __size_of___fltol 007C  
        __size_of_canales 01CF                  ___xxtofl 070D                  __ptext10 118E  
                __ptext11 1221                  __ptext20 07C9                  __ptext12 12AE  
                __ptext21 11AB                  __ptext13 1474                  __ptext14 091D  
                __ptext15 0863                  __ptext16 137C                  __ptext17 03AC  
                __ptext18 11D1                  __ptext19 0AF0             __size_of_UART 0038  
                _escribir 118E             __size_of_OTRO 008F             __size_of_main 000E  
           __size_of_leer 0011       __end_ofi1__Umul8_16 11F8                  leer@data 0072  
              _INTCONbits 000B                  init_ram0 117F                  intlevel1 0000  
         escribir@address 0070    i1__Umul8_16@multiplier 0078                _OSCCONbits 008F  
  __Umul8_16@multiplicand 00A0                _OPTION_REG 0081             ___fladd@signs 00D8  
            ___fladd@aexp 00D9              ___fladd@bexp 00DA      __Umul8_16@multiplier 00A8  
             i1__Umul8_16 11D1         __Umul8_16@product 00A4  
